
OnePos.elf:     file format elf32-avr

Sections:
Idx Name          Size      VMA       LMA       File off  Algn
  0 .text         0000487e  00000000  00000000  00000094  2**1
                  CONTENTS, ALLOC, LOAD, READONLY, CODE
  1 .data         00000300  00802000  0000487e  00004912  2**1
                  CONTENTS, ALLOC, LOAD, DATA
  2 .bss          000002b6  00802300  00802300  00004c14  2**2
                  ALLOC
  3 .comment      0000005c  00000000  00000000  00004c12  2**0
                  CONTENTS, READONLY
  4 .debug_aranges 00000718  00000000  00000000  00004c70  2**3
                  CONTENTS, READONLY, DEBUGGING
  5 .debug_info   0000ff8b  00000000  00000000  00005388  2**0
                  CONTENTS, READONLY, DEBUGGING
  6 .debug_abbrev 00002573  00000000  00000000  00015313  2**0
                  CONTENTS, READONLY, DEBUGGING
  7 .debug_line   000090c6  00000000  00000000  00017886  2**0
                  CONTENTS, READONLY, DEBUGGING
  8 .debug_frame  000012d4  00000000  00000000  0002094c  2**2
                  CONTENTS, READONLY, DEBUGGING
  9 .debug_str    00031d5c  00000000  00000000  00021c20  2**0
                  CONTENTS, READONLY, DEBUGGING
 10 .debug_loc    00005f10  00000000  00000000  0005397c  2**0
                  CONTENTS, READONLY, DEBUGGING
 11 .debug_ranges 000006d8  00000000  00000000  00059890  2**3
                  CONTENTS, READONLY, DEBUGGING
 12 .debug_macro  0000bd32  00000000  00000000  00059f68  2**0
                  CONTENTS, READONLY, DEBUGGING

Disassembly of section .text:

00000000 <__vectors>:
       0:	04 c1       	rjmp	.+520    	; 0x20a <__ctors_end>
       2:	00 00       	nop
       4:	1f c1       	rjmp	.+574    	; 0x244 <__bad_interrupt>
       6:	00 00       	nop
       8:	1d c1       	rjmp	.+570    	; 0x244 <__bad_interrupt>
       a:	00 00       	nop
       c:	1b c1       	rjmp	.+566    	; 0x244 <__bad_interrupt>
       e:	00 00       	nop
      10:	19 c1       	rjmp	.+562    	; 0x244 <__bad_interrupt>
      12:	00 00       	nop
      14:	17 c1       	rjmp	.+558    	; 0x244 <__bad_interrupt>
      16:	00 00       	nop
      18:	15 c1       	rjmp	.+554    	; 0x244 <__bad_interrupt>
      1a:	00 00       	nop
      1c:	13 c1       	rjmp	.+550    	; 0x244 <__bad_interrupt>
      1e:	00 00       	nop
      20:	11 c1       	rjmp	.+546    	; 0x244 <__bad_interrupt>
      22:	00 00       	nop
      24:	0f c1       	rjmp	.+542    	; 0x244 <__bad_interrupt>
      26:	00 00       	nop
      28:	0d c1       	rjmp	.+538    	; 0x244 <__bad_interrupt>
      2a:	00 00       	nop
      2c:	0b c1       	rjmp	.+534    	; 0x244 <__bad_interrupt>
      2e:	00 00       	nop
      30:	09 c1       	rjmp	.+530    	; 0x244 <__bad_interrupt>
      32:	00 00       	nop
      34:	0c 94 85 09 	jmp	0x130a	; 0x130a <__vector_13>
      38:	05 c1       	rjmp	.+522    	; 0x244 <__bad_interrupt>
      3a:	00 00       	nop
      3c:	03 c1       	rjmp	.+518    	; 0x244 <__bad_interrupt>
      3e:	00 00       	nop
      40:	01 c1       	rjmp	.+514    	; 0x244 <__bad_interrupt>
      42:	00 00       	nop
      44:	ff c0       	rjmp	.+510    	; 0x244 <__bad_interrupt>
      46:	00 00       	nop
      48:	fd c0       	rjmp	.+506    	; 0x244 <__bad_interrupt>
      4a:	00 00       	nop
      4c:	fb c0       	rjmp	.+502    	; 0x244 <__bad_interrupt>
      4e:	00 00       	nop
      50:	f9 c0       	rjmp	.+498    	; 0x244 <__bad_interrupt>
      52:	00 00       	nop
      54:	f7 c0       	rjmp	.+494    	; 0x244 <__bad_interrupt>
      56:	00 00       	nop
      58:	f5 c0       	rjmp	.+490    	; 0x244 <__bad_interrupt>
      5a:	00 00       	nop
      5c:	f3 c0       	rjmp	.+486    	; 0x244 <__bad_interrupt>
      5e:	00 00       	nop
      60:	f1 c0       	rjmp	.+482    	; 0x244 <__bad_interrupt>
      62:	00 00       	nop
      64:	ef c0       	rjmp	.+478    	; 0x244 <__bad_interrupt>
      66:	00 00       	nop
      68:	ed c0       	rjmp	.+474    	; 0x244 <__bad_interrupt>
      6a:	00 00       	nop
      6c:	eb c0       	rjmp	.+470    	; 0x244 <__bad_interrupt>
      6e:	00 00       	nop
      70:	e9 c0       	rjmp	.+466    	; 0x244 <__bad_interrupt>
      72:	00 00       	nop
      74:	e7 c0       	rjmp	.+462    	; 0x244 <__bad_interrupt>
      76:	00 00       	nop
      78:	e5 c0       	rjmp	.+458    	; 0x244 <__bad_interrupt>
      7a:	00 00       	nop
      7c:	e3 c0       	rjmp	.+454    	; 0x244 <__bad_interrupt>
      7e:	00 00       	nop
      80:	e1 c0       	rjmp	.+450    	; 0x244 <__bad_interrupt>
      82:	00 00       	nop
      84:	df c0       	rjmp	.+446    	; 0x244 <__bad_interrupt>
      86:	00 00       	nop
      88:	dd c0       	rjmp	.+442    	; 0x244 <__bad_interrupt>
      8a:	00 00       	nop
      8c:	db c0       	rjmp	.+438    	; 0x244 <__bad_interrupt>
      8e:	00 00       	nop
      90:	d9 c0       	rjmp	.+434    	; 0x244 <__bad_interrupt>
      92:	00 00       	nop
      94:	d7 c0       	rjmp	.+430    	; 0x244 <__bad_interrupt>
      96:	00 00       	nop
      98:	d5 c0       	rjmp	.+426    	; 0x244 <__bad_interrupt>
      9a:	00 00       	nop
      9c:	d3 c0       	rjmp	.+422    	; 0x244 <__bad_interrupt>
      9e:	00 00       	nop
      a0:	d1 c0       	rjmp	.+418    	; 0x244 <__bad_interrupt>
      a2:	00 00       	nop
      a4:	cf c0       	rjmp	.+414    	; 0x244 <__bad_interrupt>
      a6:	00 00       	nop
      a8:	cd c0       	rjmp	.+410    	; 0x244 <__bad_interrupt>
      aa:	00 00       	nop
      ac:	cb c0       	rjmp	.+406    	; 0x244 <__bad_interrupt>
      ae:	00 00       	nop
      b0:	c9 c0       	rjmp	.+402    	; 0x244 <__bad_interrupt>
      b2:	00 00       	nop
      b4:	c7 c0       	rjmp	.+398    	; 0x244 <__bad_interrupt>
      b6:	00 00       	nop
      b8:	0c 94 a8 09 	jmp	0x1350	; 0x1350 <__vector_46>
      bc:	c3 c0       	rjmp	.+390    	; 0x244 <__bad_interrupt>
      be:	00 00       	nop
      c0:	c1 c0       	rjmp	.+386    	; 0x244 <__bad_interrupt>
      c2:	00 00       	nop
      c4:	bf c0       	rjmp	.+382    	; 0x244 <__bad_interrupt>
      c6:	00 00       	nop
      c8:	bd c0       	rjmp	.+378    	; 0x244 <__bad_interrupt>
      ca:	00 00       	nop
      cc:	bb c0       	rjmp	.+374    	; 0x244 <__bad_interrupt>
      ce:	00 00       	nop
      d0:	b9 c0       	rjmp	.+370    	; 0x244 <__bad_interrupt>
      d2:	00 00       	nop
      d4:	b7 c0       	rjmp	.+366    	; 0x244 <__bad_interrupt>
      d6:	00 00       	nop
      d8:	b5 c0       	rjmp	.+362    	; 0x244 <__bad_interrupt>
      da:	00 00       	nop
      dc:	b3 c0       	rjmp	.+358    	; 0x244 <__bad_interrupt>
      de:	00 00       	nop
      e0:	b1 c0       	rjmp	.+354    	; 0x244 <__bad_interrupt>
      e2:	00 00       	nop
      e4:	af c0       	rjmp	.+350    	; 0x244 <__bad_interrupt>
      e6:	00 00       	nop
      e8:	ad c0       	rjmp	.+346    	; 0x244 <__bad_interrupt>
      ea:	00 00       	nop
      ec:	ab c0       	rjmp	.+342    	; 0x244 <__bad_interrupt>
      ee:	00 00       	nop
      f0:	a9 c0       	rjmp	.+338    	; 0x244 <__bad_interrupt>
      f2:	00 00       	nop
      f4:	a7 c0       	rjmp	.+334    	; 0x244 <__bad_interrupt>
      f6:	00 00       	nop
      f8:	a5 c0       	rjmp	.+330    	; 0x244 <__bad_interrupt>
      fa:	00 00       	nop
      fc:	a3 c0       	rjmp	.+326    	; 0x244 <__bad_interrupt>
      fe:	00 00       	nop
     100:	a1 c0       	rjmp	.+322    	; 0x244 <__bad_interrupt>
     102:	00 00       	nop
     104:	9f c0       	rjmp	.+318    	; 0x244 <__bad_interrupt>
     106:	00 00       	nop
     108:	9d c0       	rjmp	.+314    	; 0x244 <__bad_interrupt>
     10a:	00 00       	nop
     10c:	9b c0       	rjmp	.+310    	; 0x244 <__bad_interrupt>
     10e:	00 00       	nop
     110:	99 c0       	rjmp	.+306    	; 0x244 <__bad_interrupt>
     112:	00 00       	nop
     114:	97 c0       	rjmp	.+302    	; 0x244 <__bad_interrupt>
     116:	00 00       	nop
     118:	95 c0       	rjmp	.+298    	; 0x244 <__bad_interrupt>
     11a:	00 00       	nop
     11c:	93 c0       	rjmp	.+294    	; 0x244 <__bad_interrupt>
     11e:	00 00       	nop
     120:	91 c0       	rjmp	.+290    	; 0x244 <__bad_interrupt>
     122:	00 00       	nop
     124:	8f c0       	rjmp	.+286    	; 0x244 <__bad_interrupt>
     126:	00 00       	nop
     128:	8d c0       	rjmp	.+282    	; 0x244 <__bad_interrupt>
     12a:	00 00       	nop
     12c:	8b c0       	rjmp	.+278    	; 0x244 <__bad_interrupt>
     12e:	00 00       	nop
     130:	89 c0       	rjmp	.+274    	; 0x244 <__bad_interrupt>
     132:	00 00       	nop
     134:	87 c0       	rjmp	.+270    	; 0x244 <__bad_interrupt>
     136:	00 00       	nop
     138:	85 c0       	rjmp	.+266    	; 0x244 <__bad_interrupt>
     13a:	00 00       	nop
     13c:	83 c0       	rjmp	.+262    	; 0x244 <__bad_interrupt>
     13e:	00 00       	nop
     140:	81 c0       	rjmp	.+258    	; 0x244 <__bad_interrupt>
     142:	00 00       	nop
     144:	7f c0       	rjmp	.+254    	; 0x244 <__bad_interrupt>
     146:	00 00       	nop
     148:	7d c0       	rjmp	.+250    	; 0x244 <__bad_interrupt>
     14a:	00 00       	nop
     14c:	7b c0       	rjmp	.+246    	; 0x244 <__bad_interrupt>
     14e:	00 00       	nop
     150:	79 c0       	rjmp	.+242    	; 0x244 <__bad_interrupt>
     152:	00 00       	nop
     154:	77 c0       	rjmp	.+238    	; 0x244 <__bad_interrupt>
     156:	00 00       	nop
     158:	75 c0       	rjmp	.+234    	; 0x244 <__bad_interrupt>
     15a:	00 00       	nop
     15c:	73 c0       	rjmp	.+230    	; 0x244 <__bad_interrupt>
     15e:	00 00       	nop
     160:	71 c0       	rjmp	.+226    	; 0x244 <__bad_interrupt>
     162:	00 00       	nop
     164:	6f c0       	rjmp	.+222    	; 0x244 <__bad_interrupt>
     166:	00 00       	nop
     168:	6d c0       	rjmp	.+218    	; 0x244 <__bad_interrupt>
     16a:	00 00       	nop
     16c:	6b c0       	rjmp	.+214    	; 0x244 <__bad_interrupt>
     16e:	00 00       	nop
     170:	69 c0       	rjmp	.+210    	; 0x244 <__bad_interrupt>
     172:	00 00       	nop
     174:	67 c0       	rjmp	.+206    	; 0x244 <__bad_interrupt>
     176:	00 00       	nop
     178:	65 c0       	rjmp	.+202    	; 0x244 <__bad_interrupt>
     17a:	00 00       	nop
     17c:	63 c0       	rjmp	.+198    	; 0x244 <__bad_interrupt>
     17e:	00 00       	nop
     180:	61 c0       	rjmp	.+194    	; 0x244 <__bad_interrupt>
     182:	00 00       	nop
     184:	5f c0       	rjmp	.+190    	; 0x244 <__bad_interrupt>
     186:	00 00       	nop
     188:	5d c0       	rjmp	.+186    	; 0x244 <__bad_interrupt>
     18a:	00 00       	nop
     18c:	5b c0       	rjmp	.+182    	; 0x244 <__bad_interrupt>
     18e:	00 00       	nop
     190:	59 c0       	rjmp	.+178    	; 0x244 <__bad_interrupt>
     192:	00 00       	nop
     194:	57 c0       	rjmp	.+174    	; 0x244 <__bad_interrupt>
     196:	00 00       	nop
     198:	55 c0       	rjmp	.+170    	; 0x244 <__bad_interrupt>
     19a:	00 00       	nop
     19c:	53 c0       	rjmp	.+166    	; 0x244 <__bad_interrupt>
     19e:	00 00       	nop
     1a0:	51 c0       	rjmp	.+162    	; 0x244 <__bad_interrupt>
     1a2:	00 00       	nop
     1a4:	4f c0       	rjmp	.+158    	; 0x244 <__bad_interrupt>
     1a6:	00 00       	nop
     1a8:	4d c0       	rjmp	.+154    	; 0x244 <__bad_interrupt>
     1aa:	00 00       	nop
     1ac:	4b c0       	rjmp	.+150    	; 0x244 <__bad_interrupt>
     1ae:	00 00       	nop
     1b0:	49 c0       	rjmp	.+146    	; 0x244 <__bad_interrupt>
     1b2:	00 00       	nop
     1b4:	47 c0       	rjmp	.+142    	; 0x244 <__bad_interrupt>
     1b6:	00 00       	nop
     1b8:	45 c0       	rjmp	.+138    	; 0x244 <__bad_interrupt>
     1ba:	00 00       	nop
     1bc:	43 c0       	rjmp	.+134    	; 0x244 <__bad_interrupt>
     1be:	00 00       	nop
     1c0:	41 c0       	rjmp	.+130    	; 0x244 <__bad_interrupt>
     1c2:	00 00       	nop
     1c4:	3f c0       	rjmp	.+126    	; 0x244 <__bad_interrupt>
     1c6:	00 00       	nop
     1c8:	3d c0       	rjmp	.+122    	; 0x244 <__bad_interrupt>
     1ca:	00 00       	nop
     1cc:	3b c0       	rjmp	.+118    	; 0x244 <__bad_interrupt>
     1ce:	00 00       	nop
     1d0:	39 c0       	rjmp	.+114    	; 0x244 <__bad_interrupt>
     1d2:	00 00       	nop
     1d4:	37 c0       	rjmp	.+110    	; 0x244 <__bad_interrupt>
     1d6:	00 00       	nop
     1d8:	35 c0       	rjmp	.+106    	; 0x244 <__bad_interrupt>
     1da:	00 00       	nop
     1dc:	33 c0       	rjmp	.+102    	; 0x244 <__bad_interrupt>
     1de:	00 00       	nop
     1e0:	31 c0       	rjmp	.+98     	; 0x244 <__bad_interrupt>
     1e2:	00 00       	nop
     1e4:	2f c0       	rjmp	.+94     	; 0x244 <__bad_interrupt>
     1e6:	00 00       	nop
     1e8:	2d c0       	rjmp	.+90     	; 0x244 <__bad_interrupt>
     1ea:	00 00       	nop
     1ec:	2b c0       	rjmp	.+86     	; 0x244 <__bad_interrupt>
     1ee:	00 00       	nop
     1f0:	29 c0       	rjmp	.+82     	; 0x244 <__bad_interrupt>
     1f2:	00 00       	nop
     1f4:	0c 94 ab 10 	jmp	0x2156	; 0x2156 <__vector_125>
     1f8:	0c 94 61 11 	jmp	0x22c2	; 0x22c2 <__vector_126>
     1fc:	bf 0c       	add	r11, r15
     1fe:	ad 0c       	add	r10, r13
     200:	b0 0c       	add	r11, r0
     202:	b3 0c       	add	r11, r3
     204:	b6 0c       	add	r11, r6
     206:	b9 0c       	add	r11, r9
     208:	bc 0c       	add	r11, r12

0000020a <__ctors_end>:
     20a:	11 24       	eor	r1, r1
     20c:	1f be       	out	0x3f, r1	; 63
     20e:	cf ef       	ldi	r28, 0xFF	; 255
     210:	cd bf       	out	0x3d, r28	; 61
     212:	df e2       	ldi	r29, 0x2F	; 47
     214:	de bf       	out	0x3e, r29	; 62

00000216 <__do_copy_data>:
     216:	13 e2       	ldi	r17, 0x23	; 35
     218:	a0 e0       	ldi	r26, 0x00	; 0
     21a:	b0 e2       	ldi	r27, 0x20	; 32
     21c:	ee e7       	ldi	r30, 0x7E	; 126
     21e:	f8 e4       	ldi	r31, 0x48	; 72
     220:	02 c0       	rjmp	.+4      	; 0x226 <__do_copy_data+0x10>
     222:	05 90       	lpm	r0, Z+
     224:	0d 92       	st	X+, r0
     226:	a0 30       	cpi	r26, 0x00	; 0
     228:	b1 07       	cpc	r27, r17
     22a:	d9 f7       	brne	.-10     	; 0x222 <__do_copy_data+0xc>

0000022c <__do_clear_bss>:
     22c:	25 e2       	ldi	r18, 0x25	; 37
     22e:	a0 e0       	ldi	r26, 0x00	; 0
     230:	b3 e2       	ldi	r27, 0x23	; 35
     232:	01 c0       	rjmp	.+2      	; 0x236 <.do_clear_bss_start>

00000234 <.do_clear_bss_loop>:
     234:	1d 92       	st	X+, r1

00000236 <.do_clear_bss_start>:
     236:	a6 3b       	cpi	r26, 0xB6	; 182
     238:	b2 07       	cpc	r27, r18
     23a:	e1 f7       	brne	.-8      	; 0x234 <.do_clear_bss_loop>
     23c:	0e 94 4b 20 	call	0x4096	; 0x4096 <main>
     240:	0c 94 3d 24 	jmp	0x487a	; 0x487a <_exit>

00000244 <__bad_interrupt>:
     244:	dd ce       	rjmp	.-582    	; 0x0 <__vectors>

00000246 <spi_master_init>:
 *
 * \param spi       Base address of the SPI instance.
 *
 */
void spi_master_init(SPI_t *spi)
{
     246:	cf 93       	push	r28
     248:	df 93       	push	r29
     24a:	ec 01       	movw	r28, r24
	if ((uint16_t)spi == (uint16_t)&SPIB) {
		sysclk_enable_module(SYSCLK_PORT_B, PR_SPI_bm);
	}
#endif
#ifdef SPIC
	if ((uint16_t)spi == (uint16_t)&SPIC) {
     24c:	c0 3c       	cpi	r28, 0xC0	; 192
     24e:	28 e0       	ldi	r18, 0x08	; 8
     250:	d2 07       	cpc	r29, r18
     252:	29 f4       	brne	.+10     	; 0x25e <spi_master_init+0x18>
		sysclk_enable_module(SYSCLK_PORT_C, PR_SPI_bm);
     254:	68 e0       	ldi	r22, 0x08	; 8
     256:	83 e0       	ldi	r24, 0x03	; 3
     258:	0e 94 98 12 	call	0x2530	; 0x2530 <sysclk_enable_module>
     25c:	07 c0       	rjmp	.+14     	; 0x26c <spi_master_init+0x26>
	}
#endif
#ifdef SPID
	if ((uint16_t)spi == (uint16_t)&SPID) {
     25e:	80 3c       	cpi	r24, 0xC0	; 192
     260:	99 40       	sbci	r25, 0x09	; 9
     262:	21 f4       	brne	.+8      	; 0x26c <spi_master_init+0x26>
		sysclk_enable_module(SYSCLK_PORT_D, PR_SPI_bm);
     264:	68 e0       	ldi	r22, 0x08	; 8
     266:	84 e0       	ldi	r24, 0x04	; 4
     268:	0e 94 98 12 	call	0x2530	; 0x2530 <sysclk_enable_module>
 *
 * \warning This may cause data loss if used on a slave SPI.
 */
static inline void spi_enable_master_mode(SPI_t *spi)
{
	spi->CTRL |= SPI_MASTER_bm;
     26c:	88 81       	ld	r24, Y
     26e:	80 61       	ori	r24, 0x10	; 16
     270:	88 83       	st	Y, r24
	if ((uint16_t)spi == (uint16_t)&SPIF) {
		sysclk_enable_module(SYSCLK_PORT_F, PR_SPI_bm);
	}
#endif
	spi_enable_master_mode(spi);
}
     272:	df 91       	pop	r29
     274:	cf 91       	pop	r28
     276:	08 95       	ret

00000278 <spi_master_setup_device>:
 * \param sel_id    Board specific select id
 */
void spi_master_setup_device(SPI_t *spi, struct spi_device *device,
		spi_flags_t flags, uint32_t baud_rate,
		board_spi_select_id_t sel_id)
{
     278:	ff 92       	push	r15
     27a:	0f 93       	push	r16
     27c:	1f 93       	push	r17
     27e:	cf 93       	push	r28
     280:	df 93       	push	r29
     282:	ec 01       	movw	r28, r24
     284:	f4 2e       	mov	r15, r20
     286:	b9 01       	movw	r22, r18
     288:	a8 01       	movw	r20, r16
	if (spi_xmega_set_baud_div(spi, baud_rate, sysclk_get_cpu_hz()) < 0) {
     28a:	00 e0       	ldi	r16, 0x00	; 0
     28c:	1c e6       	ldi	r17, 0x6C	; 108
     28e:	2c ed       	ldi	r18, 0xDC	; 220
     290:	32 e0       	ldi	r19, 0x02	; 2
     292:	56 d7       	rcall	.+3756   	; 0x1140 <spi_xmega_set_baud_div>
     294:	88 23       	and	r24, r24
     296:	4c f0       	brlt	.+18     	; 0x2aa <spi_master_setup_device+0x32>
		Assert(false);
		return;
	}

	/* Clear any set SPI mode flags and set them to the user-specified mode */
	spi->CTRL = (spi->CTRL & ~SPI_MODE_gm) |
     298:	88 81       	ld	r24, Y
			((flags << SPI_MODE_gp) & SPI_MODE_gm);
     29a:	9f 2d       	mov	r25, r15
     29c:	99 0f       	add	r25, r25
     29e:	99 0f       	add	r25, r25
		Assert(false);
		return;
	}

	/* Clear any set SPI mode flags and set them to the user-specified mode */
	spi->CTRL = (spi->CTRL & ~SPI_MODE_gm) |
     2a0:	9c 70       	andi	r25, 0x0C	; 12
     2a2:	83 7f       	andi	r24, 0xF3	; 243
     2a4:	f9 2e       	mov	r15, r25
     2a6:	f8 2a       	or	r15, r24
     2a8:	f8 82       	st	Y, r15
			((flags << SPI_MODE_gp) & SPI_MODE_gm);
}
     2aa:	df 91       	pop	r29
     2ac:	cf 91       	pop	r28
     2ae:	1f 91       	pop	r17
     2b0:	0f 91       	pop	r16
     2b2:	ff 90       	pop	r15
     2b4:	08 95       	ret

000002b6 <spi_write_packet>:
 * \param len    Length of data
 *
 * \pre SPI device must be selected with spi_select_device() first
 */
status_code_t spi_write_packet(SPI_t *spi, const uint8_t *data, size_t len)
{
     2b6:	fc 01       	movw	r30, r24
     2b8:	db 01       	movw	r26, r22
     2ba:	46 0f       	add	r20, r22
     2bc:	57 1f       	adc	r21, r23
	while (len--) {
     2be:	05 c0       	rjmp	.+10     	; 0x2ca <spi_write_packet+0x14>
		spi_write_single(spi, *data++);
     2c0:	8d 91       	ld	r24, X+
 * \param data The data byte to be loaded
 *
 */
static inline void spi_put(SPI_t *spi, uint8_t data)
{
	spi->DATA = data;
     2c2:	83 83       	std	Z+3, r24	; 0x03
 *
 * \return \c 1 if the SPI Receive Holding Register is full, otherwise \c 0.
 */
static inline bool spi_is_tx_ok(SPI_t *spi)
{
	return spi->STATUS & SPI_IF_bm ? true : false;
     2c4:	82 81       	ldd	r24, Z+2	; 0x02
		
		while (!spi_is_rx_full(spi)) {
     2c6:	88 23       	and	r24, r24
     2c8:	ec f7       	brge	.-6      	; 0x2c4 <spi_write_packet+0xe>
 *
 * \pre SPI device must be selected with spi_select_device() first
 */
status_code_t spi_write_packet(SPI_t *spi, const uint8_t *data, size_t len)
{
	while (len--) {
     2ca:	a4 17       	cp	r26, r20
     2cc:	b5 07       	cpc	r27, r21
     2ce:	c1 f7       	brne	.-16     	; 0x2c0 <spi_write_packet+0xa>
		while (!spi_is_rx_full(spi)) {
		}
	}
	
	return STATUS_OK;
}
     2d0:	80 e0       	ldi	r24, 0x00	; 0
     2d2:	08 95       	ret

000002d4 <spi_read_packet>:
 * \param len    Length of data
 *
 * \pre SPI device must be selected with spi_select_device() first
 */
status_code_t spi_read_packet(SPI_t *spi, uint8_t *data, size_t len)
{
     2d4:	fc 01       	movw	r30, r24
     2d6:	db 01       	movw	r26, r22
	while (len--) {
     2d8:	41 15       	cp	r20, r1
     2da:	51 05       	cpc	r21, r1
     2dc:	61 f0       	breq	.+24     	; 0x2f6 <spi_read_packet+0x22>
     2de:	46 0f       	add	r20, r22
     2e0:	57 1f       	adc	r21, r23
 * \param data The data byte to be loaded
 *
 */
static inline void spi_put(SPI_t *spi, uint8_t data)
{
	spi->DATA = data;
     2e2:	9f ef       	ldi	r25, 0xFF	; 255
     2e4:	93 83       	std	Z+3, r25	; 0x03
 *
 * \return \c 1 if the SPI Receive Holding Register is full, otherwise \c 0.
 */
static inline bool spi_is_tx_ok(SPI_t *spi)
{
	return spi->STATUS & SPI_IF_bm ? true : false;
     2e6:	82 81       	ldd	r24, Z+2	; 0x02
		spi_write_single(spi,CONFIG_SPI_MASTER_DUMMY); //Dummy write

		while (!spi_is_rx_full(spi)) {
     2e8:	88 23       	and	r24, r24
     2ea:	ec f7       	brge	.-6      	; 0x2e6 <spi_read_packet+0x12>
 * \return The data byte
 *
 */
static inline uint8_t spi_get(SPI_t *spi)
{
	return spi->DATA;
     2ec:	83 81       	ldd	r24, Z+3	; 0x03
 * \param data Pointer to the data byte where to store the received data.
 *
 */
inline static void spi_read_single(SPI_t *spi, uint8_t *data)
{
	*data=spi_get(spi);
     2ee:	8d 93       	st	X+, r24
 *
 * \pre SPI device must be selected with spi_select_device() first
 */
status_code_t spi_read_packet(SPI_t *spi, uint8_t *data, size_t len)
{
	while (len--) {
     2f0:	a4 17       	cp	r26, r20
     2f2:	b5 07       	cpc	r27, r21
     2f4:	b9 f7       	brne	.-18     	; 0x2e4 <spi_read_packet+0x10>
		spi_read_single(spi, data);
		data++;
	}
	
	return STATUS_OK;
}
     2f6:	80 e0       	ldi	r24, 0x00	; 0
     2f8:	08 95       	ret

000002fa <spi_select_device>:
 * \param device SPI device
 *
 */
void spi_select_device(SPI_t *spi, struct spi_device *device)
{
	ioport_set_pin_level(device->id,0);
     2fa:	fb 01       	movw	r30, r22
     2fc:	80 81       	ld	r24, Z
typedef uint8_t ioport_port_t;
typedef uint8_t ioport_port_mask_t;

__always_inline static ioport_port_t arch_ioport_pin_to_port_id(ioport_pin_t pin)
{
	return pin >> 3;
     2fe:	e8 2f       	mov	r30, r24
     300:	e6 95       	lsr	r30
     302:	e6 95       	lsr	r30
     304:	e6 95       	lsr	r30
}

__always_inline static PORT_t *arch_ioport_port_to_base(ioport_port_t port)
{
	return (PORT_t *)((uintptr_t)IOPORT_BASE_ADDRESS +
	       (port * IOPORT_PORT_OFFSET));
     306:	40 e2       	ldi	r20, 0x20	; 32
     308:	e4 9f       	mul	r30, r20
     30a:	f0 01       	movw	r30, r0
     30c:	11 24       	eor	r1, r1
	return pin >> 3;
}

__always_inline static PORT_t *arch_ioport_port_to_base(ioport_port_t port)
{
	return (PORT_t *)((uintptr_t)IOPORT_BASE_ADDRESS +
     30e:	fa 5f       	subi	r31, 0xFA	; 250
}

__always_inline static ioport_port_mask_t arch_ioport_pin_to_mask(
		ioport_pin_t pin)
{
	return 1U << (pin & 0x07);
     310:	87 70       	andi	r24, 0x07	; 7
     312:	21 e0       	ldi	r18, 0x01	; 1
     314:	30 e0       	ldi	r19, 0x00	; 0
     316:	a9 01       	movw	r20, r18
     318:	02 c0       	rjmp	.+4      	; 0x31e <spi_select_device+0x24>
     31a:	44 0f       	add	r20, r20
     31c:	55 1f       	adc	r21, r21
     31e:	8a 95       	dec	r24
     320:	e2 f7       	brpl	.-8      	; 0x31a <spi_select_device+0x20>
	PORT_t *base = arch_ioport_pin_to_base(pin);

	if (level) {
		base->OUTSET = arch_ioport_pin_to_mask(pin);
	} else {
		base->OUTCLR = arch_ioport_pin_to_mask(pin);
     322:	46 83       	std	Z+6, r20	; 0x06
     324:	08 95       	ret

00000326 <spi_deselect_device>:
 *
 * \pre SPI device must be selected with spi_select_device() first
 */
void spi_deselect_device(SPI_t *spi, struct spi_device *device)
{
	ioport_set_pin_level(device->id,1);
     326:	fb 01       	movw	r30, r22
     328:	80 81       	ld	r24, Z
typedef uint8_t ioport_port_t;
typedef uint8_t ioport_port_mask_t;

__always_inline static ioport_port_t arch_ioport_pin_to_port_id(ioport_pin_t pin)
{
	return pin >> 3;
     32a:	e8 2f       	mov	r30, r24
     32c:	e6 95       	lsr	r30
     32e:	e6 95       	lsr	r30
     330:	e6 95       	lsr	r30
}

__always_inline static PORT_t *arch_ioport_port_to_base(ioport_port_t port)
{
	return (PORT_t *)((uintptr_t)IOPORT_BASE_ADDRESS +
	       (port * IOPORT_PORT_OFFSET));
     332:	40 e2       	ldi	r20, 0x20	; 32
     334:	e4 9f       	mul	r30, r20
     336:	f0 01       	movw	r30, r0
     338:	11 24       	eor	r1, r1
	return pin >> 3;
}

__always_inline static PORT_t *arch_ioport_port_to_base(ioport_port_t port)
{
	return (PORT_t *)((uintptr_t)IOPORT_BASE_ADDRESS +
     33a:	fa 5f       	subi	r31, 0xFA	; 250
}

__always_inline static ioport_port_mask_t arch_ioport_pin_to_mask(
		ioport_pin_t pin)
{
	return 1U << (pin & 0x07);
     33c:	87 70       	andi	r24, 0x07	; 7
     33e:	21 e0       	ldi	r18, 0x01	; 1
     340:	30 e0       	ldi	r19, 0x00	; 0
     342:	a9 01       	movw	r20, r18
     344:	02 c0       	rjmp	.+4      	; 0x34a <spi_deselect_device+0x24>
     346:	44 0f       	add	r20, r20
     348:	55 1f       	adc	r21, r21
     34a:	8a 95       	dec	r24
     34c:	e2 f7       	brpl	.-8      	; 0x346 <spi_deselect_device+0x20>
		bool level)
{
	PORT_t *base = arch_ioport_pin_to_base(pin);

	if (level) {
		base->OUTSET = arch_ioport_pin_to_mask(pin);
     34e:	45 83       	std	Z+5, r20	; 0x05
     350:	08 95       	ret

00000352 <udi_cdc_comm_enable>:
}

bool udi_cdc_is_tx_ready(void)
{
	return udi_cdc_multi_is_tx_ready(0);
}
     352:	10 92 16 24 	sts	0x2416, r1
     356:	10 92 22 24 	sts	0x2422, r1
     35a:	10 92 23 24 	sts	0x2423, r1
     35e:	81 ea       	ldi	r24, 0xA1	; 161
     360:	80 93 18 24 	sts	0x2418, r24
     364:	80 e2       	ldi	r24, 0x20	; 32
     366:	80 93 19 24 	sts	0x2419, r24
     36a:	10 92 1a 24 	sts	0x241A, r1
     36e:	10 92 1b 24 	sts	0x241B, r1
     372:	10 92 1c 24 	sts	0x241C, r1
     376:	10 92 1d 24 	sts	0x241D, r1
     37a:	82 e0       	ldi	r24, 0x02	; 2
     37c:	90 e0       	ldi	r25, 0x00	; 0
     37e:	80 93 1e 24 	sts	0x241E, r24
     382:	90 93 1f 24 	sts	0x241F, r25
     386:	10 92 20 24 	sts	0x2420, r1
     38a:	10 92 21 24 	sts	0x2421, r1
     38e:	80 e0       	ldi	r24, 0x00	; 0
     390:	92 ec       	ldi	r25, 0xC2	; 194
     392:	a1 e0       	ldi	r26, 0x01	; 1
     394:	b0 e0       	ldi	r27, 0x00	; 0
     396:	80 93 24 24 	sts	0x2424, r24
     39a:	90 93 25 24 	sts	0x2425, r25
     39e:	a0 93 26 24 	sts	0x2426, r26
     3a2:	b0 93 27 24 	sts	0x2427, r27
     3a6:	10 92 28 24 	sts	0x2428, r1
     3aa:	10 92 29 24 	sts	0x2429, r1
     3ae:	88 e0       	ldi	r24, 0x08	; 8
     3b0:	80 93 2a 24 	sts	0x242A, r24
     3b4:	80 91 16 24 	lds	r24, 0x2416
     3b8:	8f 5f       	subi	r24, 0xFF	; 255
     3ba:	80 93 16 24 	sts	0x2416, r24
     3be:	81 e0       	ldi	r24, 0x01	; 1
     3c0:	08 95       	ret

000003c2 <udi_cdc_comm_disable>:
     3c2:	80 91 16 24 	lds	r24, 0x2416
     3c6:	81 50       	subi	r24, 0x01	; 1
     3c8:	80 93 16 24 	sts	0x2416, r24
     3cc:	08 95       	ret

000003ce <udi_cdc_data_disable>:
     3ce:	80 91 15 24 	lds	r24, 0x2415
     3d2:	81 50       	subi	r24, 0x01	; 1
     3d4:	80 93 15 24 	sts	0x2415, r24
     3d8:	80 91 15 24 	lds	r24, 0x2415
     3dc:	10 92 14 24 	sts	0x2414, r1
     3e0:	08 95       	ret

000003e2 <udi_cdc_data_setup>:
     3e2:	80 e0       	ldi	r24, 0x00	; 0
     3e4:	08 95       	ret

000003e6 <udi_cdc_getsetting>:
     3e6:	80 e0       	ldi	r24, 0x00	; 0
     3e8:	08 95       	ret

000003ea <udi_cdc_comm_setup>:
     3ea:	80 91 71 25 	lds	r24, 0x2571
     3ee:	88 23       	and	r24, r24
     3f0:	dc f4       	brge	.+54     	; 0x428 <udi_cdc_comm_setup+0x3e>
     3f2:	80 76       	andi	r24, 0x60	; 96
     3f4:	80 32       	cpi	r24, 0x20	; 32
     3f6:	e9 f5       	brne	.+122    	; 0x472 <udi_cdc_comm_setup+0x88>
     3f8:	80 91 72 25 	lds	r24, 0x2572
     3fc:	81 32       	cpi	r24, 0x21	; 33
     3fe:	d9 f5       	brne	.+118    	; 0x476 <udi_cdc_comm_setup+0x8c>
     400:	80 91 77 25 	lds	r24, 0x2577
     404:	90 91 78 25 	lds	r25, 0x2578
     408:	07 97       	sbiw	r24, 0x07	; 7
     40a:	b9 f5       	brne	.+110    	; 0x47a <udi_cdc_comm_setup+0x90>
     40c:	84 e2       	ldi	r24, 0x24	; 36
     40e:	94 e2       	ldi	r25, 0x24	; 36
     410:	80 93 79 25 	sts	0x2579, r24
     414:	90 93 7a 25 	sts	0x257A, r25
     418:	87 e0       	ldi	r24, 0x07	; 7
     41a:	90 e0       	ldi	r25, 0x00	; 0
     41c:	80 93 7b 25 	sts	0x257B, r24
     420:	90 93 7c 25 	sts	0x257C, r25
     424:	81 e0       	ldi	r24, 0x01	; 1
     426:	08 95       	ret
     428:	80 76       	andi	r24, 0x60	; 96
     42a:	80 32       	cpi	r24, 0x20	; 32
     42c:	41 f5       	brne	.+80     	; 0x47e <udi_cdc_comm_setup+0x94>
     42e:	80 91 72 25 	lds	r24, 0x2572
     432:	80 32       	cpi	r24, 0x20	; 32
     434:	21 f0       	breq	.+8      	; 0x43e <udi_cdc_comm_setup+0x54>
     436:	82 32       	cpi	r24, 0x22	; 34
     438:	21 f5       	brne	.+72     	; 0x482 <udi_cdc_comm_setup+0x98>
     43a:	81 e0       	ldi	r24, 0x01	; 1
     43c:	08 95       	ret
     43e:	80 91 77 25 	lds	r24, 0x2577
     442:	90 91 78 25 	lds	r25, 0x2578
     446:	07 97       	sbiw	r24, 0x07	; 7
     448:	f1 f4       	brne	.+60     	; 0x486 <udi_cdc_comm_setup+0x9c>
     44a:	85 e4       	ldi	r24, 0x45	; 69
     44c:	92 e0       	ldi	r25, 0x02	; 2
     44e:	80 93 7d 25 	sts	0x257D, r24
     452:	90 93 7e 25 	sts	0x257E, r25
     456:	84 e2       	ldi	r24, 0x24	; 36
     458:	94 e2       	ldi	r25, 0x24	; 36
     45a:	80 93 79 25 	sts	0x2579, r24
     45e:	90 93 7a 25 	sts	0x257A, r25
     462:	87 e0       	ldi	r24, 0x07	; 7
     464:	90 e0       	ldi	r25, 0x00	; 0
     466:	80 93 7b 25 	sts	0x257B, r24
     46a:	90 93 7c 25 	sts	0x257C, r25
     46e:	81 e0       	ldi	r24, 0x01	; 1
     470:	08 95       	ret
     472:	80 e0       	ldi	r24, 0x00	; 0
     474:	08 95       	ret
     476:	80 e0       	ldi	r24, 0x00	; 0
     478:	08 95       	ret
     47a:	80 e0       	ldi	r24, 0x00	; 0
     47c:	08 95       	ret
     47e:	80 e0       	ldi	r24, 0x00	; 0
     480:	08 95       	ret
     482:	80 e0       	ldi	r24, 0x00	; 0
     484:	08 95       	ret
     486:	80 e0       	ldi	r24, 0x00	; 0
     488:	08 95       	ret

0000048a <udi_cdc_line_coding_received>:
     48a:	08 95       	ret

0000048c <udi_cdc_tx_send>:
     48c:	ff 92       	push	r15
     48e:	0f 93       	push	r16
     490:	1f 93       	push	r17
     492:	cf 93       	push	r28
     494:	df 93       	push	r29
     496:	80 91 03 23 	lds	r24, 0x2303
     49a:	81 11       	cpse	r24, r1
     49c:	9c c0       	rjmp	.+312    	; 0x5d6 <udi_cdc_tx_send+0x14a>
     49e:	0e 94 ed 0e 	call	0x1dda	; 0x1dda <udd_is_high_speed>
     4a2:	88 23       	and	r24, r24
     4a4:	51 f0       	breq	.+20     	; 0x4ba <udi_cdc_tx_send+0x2e>
     4a6:	c0 91 04 23 	lds	r28, 0x2304
     4aa:	d0 91 05 23 	lds	r29, 0x2305
     4ae:	0e 94 fa 0e 	call	0x1df4	; 0x1df4 <udd_get_micro_frame_number>
     4b2:	c8 17       	cp	r28, r24
     4b4:	d9 07       	cpc	r29, r25
     4b6:	59 f4       	brne	.+22     	; 0x4ce <udi_cdc_tx_send+0x42>
     4b8:	8e c0       	rjmp	.+284    	; 0x5d6 <udi_cdc_tx_send+0x14a>
     4ba:	c0 91 04 23 	lds	r28, 0x2304
     4be:	d0 91 05 23 	lds	r29, 0x2305
     4c2:	0e 94 f5 0e 	call	0x1dea	; 0x1dea <udd_get_frame_number>
     4c6:	c8 17       	cp	r28, r24
     4c8:	d9 07       	cpc	r29, r25
     4ca:	09 f4       	brne	.+2      	; 0x4ce <udi_cdc_tx_send+0x42>
     4cc:	84 c0       	rjmp	.+264    	; 0x5d6 <udi_cdc_tx_send+0x14a>
     4ce:	df b7       	in	r29, 0x3f	; 63
     4d0:	f8 94       	cli
     4d2:	c0 91 06 23 	lds	r28, 0x2306
     4d6:	ec 2f       	mov	r30, r28
     4d8:	f0 e0       	ldi	r31, 0x00	; 0
     4da:	ee 0f       	add	r30, r30
     4dc:	ff 1f       	adc	r31, r31
     4de:	e9 5f       	subi	r30, 0xF9	; 249
     4e0:	fc 4d       	sbci	r31, 0xDC	; 220
     4e2:	80 81       	ld	r24, Z
     4e4:	91 81       	ldd	r25, Z+1	; 0x01
     4e6:	89 2b       	or	r24, r25
     4e8:	09 f5       	brne	.+66     	; 0x52c <udi_cdc_tx_send+0xa0>
     4ea:	80 91 00 23 	lds	r24, 0x2300
     4ee:	90 91 01 23 	lds	r25, 0x2301
     4f2:	01 96       	adiw	r24, 0x01	; 1
     4f4:	80 93 00 23 	sts	0x2300, r24
     4f8:	90 93 01 23 	sts	0x2301, r25
     4fc:	0e 94 ed 0e 	call	0x1dda	; 0x1dda <udd_is_high_speed>
     500:	81 11       	cpse	r24, r1
     502:	07 c0       	rjmp	.+14     	; 0x512 <udi_cdc_tx_send+0x86>
     504:	80 91 00 23 	lds	r24, 0x2300
     508:	90 91 01 23 	lds	r25, 0x2301
     50c:	84 36       	cpi	r24, 0x64	; 100
     50e:	91 05       	cpc	r25, r1
     510:	58 f0       	brcs	.+22     	; 0x528 <udi_cdc_tx_send+0x9c>
     512:	0e 94 ed 0e 	call	0x1dda	; 0x1dda <udd_is_high_speed>
     516:	88 23       	and	r24, r24
     518:	49 f0       	breq	.+18     	; 0x52c <udi_cdc_tx_send+0xa0>
     51a:	80 91 00 23 	lds	r24, 0x2300
     51e:	90 91 01 23 	lds	r25, 0x2301
     522:	80 32       	cpi	r24, 0x20	; 32
     524:	93 40       	sbci	r25, 0x03	; 3
     526:	10 f4       	brcc	.+4      	; 0x52c <udi_cdc_tx_send+0xa0>
     528:	df bf       	out	0x3f, r29	; 63
     52a:	55 c0       	rjmp	.+170    	; 0x5d6 <udi_cdc_tx_send+0x14a>
     52c:	10 92 00 23 	sts	0x2300, r1
     530:	10 92 01 23 	sts	0x2301, r1
     534:	80 91 02 23 	lds	r24, 0x2302
     538:	81 11       	cpse	r24, r1
     53a:	06 c0       	rjmp	.+12     	; 0x548 <udi_cdc_tx_send+0xbc>
     53c:	81 e0       	ldi	r24, 0x01	; 1
     53e:	c1 11       	cpse	r28, r1
     540:	80 e0       	ldi	r24, 0x00	; 0
     542:	80 93 06 23 	sts	0x2306, r24
     546:	04 c0       	rjmp	.+8      	; 0x550 <udi_cdc_tx_send+0xc4>
     548:	81 e0       	ldi	r24, 0x01	; 1
     54a:	c1 11       	cpse	r28, r1
     54c:	80 e0       	ldi	r24, 0x00	; 0
     54e:	c8 2f       	mov	r28, r24
     550:	81 e0       	ldi	r24, 0x01	; 1
     552:	80 93 03 23 	sts	0x2303, r24
     556:	df bf       	out	0x3f, r29	; 63
     558:	d0 e0       	ldi	r29, 0x00	; 0
     55a:	fe 01       	movw	r30, r28
     55c:	ee 0f       	add	r30, r30
     55e:	ff 1f       	adc	r31, r31
     560:	e9 5f       	subi	r30, 0xF9	; 249
     562:	fc 4d       	sbci	r31, 0xDC	; 220
     564:	ff 24       	eor	r15, r15
     566:	f3 94       	inc	r15
     568:	80 81       	ld	r24, Z
     56a:	91 81       	ldd	r25, Z+1	; 0x01
     56c:	80 34       	cpi	r24, 0x40	; 64
     56e:	91 05       	cpc	r25, r1
     570:	09 f4       	brne	.+2      	; 0x574 <udi_cdc_tx_send+0xe8>
     572:	f1 2c       	mov	r15, r1
     574:	ff 20       	and	r15, r15
     576:	91 f0       	breq	.+36     	; 0x59c <udi_cdc_tx_send+0x110>
     578:	0e 94 ed 0e 	call	0x1dda	; 0x1dda <udd_is_high_speed>
     57c:	88 23       	and	r24, r24
     57e:	39 f0       	breq	.+14     	; 0x58e <udi_cdc_tx_send+0x102>
     580:	0e 94 fa 0e 	call	0x1df4	; 0x1df4 <udd_get_micro_frame_number>
     584:	80 93 04 23 	sts	0x2304, r24
     588:	90 93 05 23 	sts	0x2305, r25
     58c:	0b c0       	rjmp	.+22     	; 0x5a4 <udi_cdc_tx_send+0x118>
     58e:	0e 94 f5 0e 	call	0x1dea	; 0x1dea <udd_get_frame_number>
     592:	80 93 04 23 	sts	0x2304, r24
     596:	90 93 05 23 	sts	0x2305, r25
     59a:	04 c0       	rjmp	.+8      	; 0x5a4 <udi_cdc_tx_send+0x118>
     59c:	10 92 04 23 	sts	0x2304, r1
     5a0:	10 92 05 23 	sts	0x2305, r1
     5a4:	fe 01       	movw	r30, r28
     5a6:	ee 0f       	add	r30, r30
     5a8:	ff 1f       	adc	r31, r31
     5aa:	e9 5f       	subi	r30, 0xF9	; 249
     5ac:	fc 4d       	sbci	r31, 0xDC	; 220
     5ae:	20 81       	ld	r18, Z
     5b0:	31 81       	ldd	r19, Z+1	; 0x01
     5b2:	ae 01       	movw	r20, r28
     5b4:	00 24       	eor	r0, r0
     5b6:	56 95       	lsr	r21
     5b8:	47 95       	ror	r20
     5ba:	07 94       	ror	r0
     5bc:	56 95       	lsr	r21
     5be:	47 95       	ror	r20
     5c0:	07 94       	ror	r0
     5c2:	54 2f       	mov	r21, r20
     5c4:	40 2d       	mov	r20, r0
     5c6:	44 5f       	subi	r20, 0xF4	; 244
     5c8:	5c 4d       	sbci	r21, 0xDC	; 220
     5ca:	01 ef       	ldi	r16, 0xF1	; 241
     5cc:	12 e0       	ldi	r17, 0x02	; 2
     5ce:	6f 2d       	mov	r22, r15
     5d0:	81 e8       	ldi	r24, 0x81	; 129
     5d2:	0e 94 ac 0f 	call	0x1f58	; 0x1f58 <udd_ep_run>
     5d6:	df 91       	pop	r29
     5d8:	cf 91       	pop	r28
     5da:	1f 91       	pop	r17
     5dc:	0f 91       	pop	r16
     5de:	ff 90       	pop	r15
     5e0:	08 95       	ret

000005e2 <udi_cdc_data_sent>:
     5e2:	81 11       	cpse	r24, r1
     5e4:	15 c0       	rjmp	.+42     	; 0x610 <udi_cdc_data_sent+0x2e>
     5e6:	20 91 06 23 	lds	r18, 0x2306
     5ea:	81 e0       	ldi	r24, 0x01	; 1
     5ec:	90 e0       	ldi	r25, 0x00	; 0
     5ee:	22 23       	and	r18, r18
     5f0:	11 f0       	breq	.+4      	; 0x5f6 <udi_cdc_data_sent+0x14>
     5f2:	80 e0       	ldi	r24, 0x00	; 0
     5f4:	90 e0       	ldi	r25, 0x00	; 0
     5f6:	fc 01       	movw	r30, r24
     5f8:	ee 0f       	add	r30, r30
     5fa:	ff 1f       	adc	r31, r31
     5fc:	e9 5f       	subi	r30, 0xF9	; 249
     5fe:	fc 4d       	sbci	r31, 0xDC	; 220
     600:	10 82       	st	Z, r1
     602:	11 82       	std	Z+1, r1	; 0x01
     604:	10 92 02 23 	sts	0x2302, r1
     608:	10 92 03 23 	sts	0x2303, r1
     60c:	80 e0       	ldi	r24, 0x00	; 0
     60e:	3e cf       	rjmp	.-388    	; 0x48c <udi_cdc_tx_send>
     610:	08 95       	ret

00000612 <udi_cdc_data_sof_notify>:
     612:	80 e0       	ldi	r24, 0x00	; 0
     614:	3b cf       	rjmp	.-394    	; 0x48c <udi_cdc_tx_send>
     616:	08 95       	ret

00000618 <udi_cdc_multi_get_nb_received_data>:
     618:	4f b7       	in	r20, 0x3f	; 63
     61a:	f8 94       	cli
     61c:	20 91 8d 23 	lds	r18, 0x238D
     620:	30 91 8e 23 	lds	r19, 0x238E
     624:	e0 91 8f 23 	lds	r30, 0x238F
     628:	f0 e0       	ldi	r31, 0x00	; 0
     62a:	ee 0f       	add	r30, r30
     62c:	ff 1f       	adc	r31, r31
     62e:	e0 57       	subi	r30, 0x70	; 112
     630:	fc 4d       	sbci	r31, 0xDC	; 220
     632:	80 81       	ld	r24, Z
     634:	91 81       	ldd	r25, Z+1	; 0x01
     636:	82 1b       	sub	r24, r18
     638:	93 0b       	sbc	r25, r19
     63a:	4f bf       	out	0x3f, r20	; 63
     63c:	08 95       	ret

0000063e <udi_cdc_multi_is_rx_ready>:
     63e:	ec df       	rcall	.-40     	; 0x618 <udi_cdc_multi_get_nb_received_data>
     640:	21 e0       	ldi	r18, 0x01	; 1
     642:	89 2b       	or	r24, r25
     644:	09 f4       	brne	.+2      	; 0x648 <udi_cdc_multi_is_rx_ready+0xa>
     646:	20 e0       	ldi	r18, 0x00	; 0
     648:	82 2f       	mov	r24, r18
     64a:	08 95       	ret

0000064c <udi_cdc_rx_start>:
     64c:	0f 93       	push	r16
     64e:	1f 93       	push	r17
     650:	cf 93       	push	r28
     652:	df 93       	push	r29
     654:	4f b7       	in	r20, 0x3f	; 63
     656:	f8 94       	cli
     658:	50 91 8f 23 	lds	r21, 0x238F
     65c:	80 91 8c 23 	lds	r24, 0x238C
     660:	81 11       	cpse	r24, r1
     662:	10 c0       	rjmp	.+32     	; 0x684 <udi_cdc_rx_start+0x38>
     664:	20 91 8d 23 	lds	r18, 0x238D
     668:	30 91 8e 23 	lds	r19, 0x238E
     66c:	c5 2f       	mov	r28, r21
     66e:	d0 e0       	ldi	r29, 0x00	; 0
     670:	fe 01       	movw	r30, r28
     672:	ee 0f       	add	r30, r30
     674:	ff 1f       	adc	r31, r31
     676:	e0 57       	subi	r30, 0x70	; 112
     678:	fc 4d       	sbci	r31, 0xDC	; 220
     67a:	80 81       	ld	r24, Z
     67c:	91 81       	ldd	r25, Z+1	; 0x01
     67e:	28 17       	cp	r18, r24
     680:	39 07       	cpc	r19, r25
     682:	18 f4       	brcc	.+6      	; 0x68a <udi_cdc_rx_start+0x3e>
     684:	4f bf       	out	0x3f, r20	; 63
     686:	80 e0       	ldi	r24, 0x00	; 0
     688:	23 c0       	rjmp	.+70     	; 0x6d0 <udi_cdc_rx_start+0x84>
     68a:	10 92 8d 23 	sts	0x238D, r1
     68e:	10 92 8e 23 	sts	0x238E, r1
     692:	81 e0       	ldi	r24, 0x01	; 1
     694:	51 11       	cpse	r21, r1
     696:	80 e0       	ldi	r24, 0x00	; 0
     698:	80 93 8f 23 	sts	0x238F, r24
     69c:	81 e0       	ldi	r24, 0x01	; 1
     69e:	80 93 8c 23 	sts	0x238C, r24
     6a2:	4f bf       	out	0x3f, r20	; 63
     6a4:	80 e0       	ldi	r24, 0x00	; 0
     6a6:	cb df       	rcall	.-106    	; 0x63e <udi_cdc_multi_is_rx_ready>
     6a8:	ae 01       	movw	r20, r28
     6aa:	00 24       	eor	r0, r0
     6ac:	56 95       	lsr	r21
     6ae:	47 95       	ror	r20
     6b0:	07 94       	ror	r0
     6b2:	56 95       	lsr	r21
     6b4:	47 95       	ror	r20
     6b6:	07 94       	ror	r0
     6b8:	54 2f       	mov	r21, r20
     6ba:	40 2d       	mov	r20, r0
     6bc:	4c 56       	subi	r20, 0x6C	; 108
     6be:	5c 4d       	sbci	r21, 0xDC	; 220
     6c0:	0f e9       	ldi	r16, 0x9F	; 159
     6c2:	13 e0       	ldi	r17, 0x03	; 3
     6c4:	20 e4       	ldi	r18, 0x40	; 64
     6c6:	30 e0       	ldi	r19, 0x00	; 0
     6c8:	61 e0       	ldi	r22, 0x01	; 1
     6ca:	82 e0       	ldi	r24, 0x02	; 2
     6cc:	0e 94 ac 0f 	call	0x1f58	; 0x1f58 <udd_ep_run>
     6d0:	df 91       	pop	r29
     6d2:	cf 91       	pop	r28
     6d4:	1f 91       	pop	r17
     6d6:	0f 91       	pop	r16
     6d8:	08 95       	ret

000006da <udi_cdc_data_enable>:
     6da:	10 92 15 24 	sts	0x2415, r1
     6de:	10 92 03 23 	sts	0x2303, r1
     6e2:	10 92 02 23 	sts	0x2302, r1
     6e6:	10 92 06 23 	sts	0x2306, r1
     6ea:	10 92 07 23 	sts	0x2307, r1
     6ee:	10 92 08 23 	sts	0x2308, r1
     6f2:	10 92 09 23 	sts	0x2309, r1
     6f6:	10 92 0a 23 	sts	0x230A, r1
     6fa:	10 92 04 23 	sts	0x2304, r1
     6fe:	10 92 05 23 	sts	0x2305, r1
     702:	80 e0       	ldi	r24, 0x00	; 0
     704:	c3 de       	rcall	.-634    	; 0x48c <udi_cdc_tx_send>
     706:	10 92 8c 23 	sts	0x238C, r1
     70a:	10 92 8f 23 	sts	0x238F, r1
     70e:	10 92 90 23 	sts	0x2390, r1
     712:	10 92 91 23 	sts	0x2391, r1
     716:	10 92 8d 23 	sts	0x238D, r1
     71a:	10 92 8e 23 	sts	0x238E, r1
     71e:	80 e0       	ldi	r24, 0x00	; 0
     720:	95 df       	rcall	.-214    	; 0x64c <udi_cdc_rx_start>
     722:	88 23       	and	r24, r24
     724:	59 f0       	breq	.+22     	; 0x73c <udi_cdc_data_enable+0x62>
     726:	90 91 15 24 	lds	r25, 0x2415
     72a:	9f 5f       	subi	r25, 0xFF	; 255
     72c:	90 93 15 24 	sts	0x2415, r25
     730:	90 91 15 24 	lds	r25, 0x2415
     734:	91 30       	cpi	r25, 0x01	; 1
     736:	11 f4       	brne	.+4      	; 0x73c <udi_cdc_data_enable+0x62>
     738:	90 93 14 24 	sts	0x2414, r25
     73c:	08 95       	ret

0000073e <udi_cdc_data_received>:
     73e:	0f 93       	push	r16
     740:	1f 93       	push	r17
     742:	94 2f       	mov	r25, r20
     744:	81 11       	cpse	r24, r1
     746:	29 c0       	rjmp	.+82     	; 0x79a <udi_cdc_data_received+0x5c>
     748:	80 91 8f 23 	lds	r24, 0x238F
     74c:	e1 e0       	ldi	r30, 0x01	; 1
     74e:	81 11       	cpse	r24, r1
     750:	e0 e0       	ldi	r30, 0x00	; 0
     752:	61 15       	cp	r22, r1
     754:	71 05       	cpc	r23, r1
     756:	b1 f4       	brne	.+44     	; 0x784 <udi_cdc_data_received+0x46>
     758:	f0 e0       	ldi	r31, 0x00	; 0
     75a:	00 24       	eor	r0, r0
     75c:	f6 95       	lsr	r31
     75e:	e7 95       	ror	r30
     760:	07 94       	ror	r0
     762:	f6 95       	lsr	r31
     764:	e7 95       	ror	r30
     766:	07 94       	ror	r0
     768:	fe 2f       	mov	r31, r30
     76a:	e0 2d       	mov	r30, r0
     76c:	af 01       	movw	r20, r30
     76e:	4c 56       	subi	r20, 0x6C	; 108
     770:	5c 4d       	sbci	r21, 0xDC	; 220
     772:	0f e9       	ldi	r16, 0x9F	; 159
     774:	13 e0       	ldi	r17, 0x03	; 3
     776:	20 e4       	ldi	r18, 0x40	; 64
     778:	30 e0       	ldi	r19, 0x00	; 0
     77a:	61 e0       	ldi	r22, 0x01	; 1
     77c:	89 2f       	mov	r24, r25
     77e:	0e 94 ac 0f 	call	0x1f58	; 0x1f58 <udd_ep_run>
     782:	0b c0       	rjmp	.+22     	; 0x79a <udi_cdc_data_received+0x5c>
     784:	f0 e0       	ldi	r31, 0x00	; 0
     786:	ee 0f       	add	r30, r30
     788:	ff 1f       	adc	r31, r31
     78a:	e0 57       	subi	r30, 0x70	; 112
     78c:	fc 4d       	sbci	r31, 0xDC	; 220
     78e:	60 83       	st	Z, r22
     790:	71 83       	std	Z+1, r23	; 0x01
     792:	10 92 8c 23 	sts	0x238C, r1
     796:	80 e0       	ldi	r24, 0x00	; 0
     798:	59 df       	rcall	.-334    	; 0x64c <udi_cdc_rx_start>
     79a:	1f 91       	pop	r17
     79c:	0f 91       	pop	r16
     79e:	08 95       	ret

000007a0 <udi_cdc_is_rx_ready>:
     7a0:	80 e0       	ldi	r24, 0x00	; 0
     7a2:	4d cf       	rjmp	.-358    	; 0x63e <udi_cdc_multi_is_rx_ready>
     7a4:	08 95       	ret

000007a6 <udi_cdc_multi_getc>:
     7a6:	1f 93       	push	r17
     7a8:	cf 93       	push	r28
     7aa:	df 93       	push	r29
     7ac:	11 e0       	ldi	r17, 0x01	; 1
     7ae:	80 91 2a 24 	lds	r24, 0x242A
     7b2:	89 30       	cpi	r24, 0x09	; 9
     7b4:	09 f0       	breq	.+2      	; 0x7b8 <udi_cdc_multi_getc+0x12>
     7b6:	10 e0       	ldi	r17, 0x00	; 0
     7b8:	60 e0       	ldi	r22, 0x00	; 0
     7ba:	70 e0       	ldi	r23, 0x00	; 0
     7bc:	3f b7       	in	r19, 0x3f	; 63
     7be:	f8 94       	cli
     7c0:	80 91 8d 23 	lds	r24, 0x238D
     7c4:	90 91 8e 23 	lds	r25, 0x238E
     7c8:	20 91 8f 23 	lds	r18, 0x238F
     7cc:	3f bf       	out	0x3f, r19	; 63
     7ce:	30 e0       	ldi	r19, 0x00	; 0
     7d0:	f9 01       	movw	r30, r18
     7d2:	ee 0f       	add	r30, r30
     7d4:	ff 1f       	adc	r31, r31
     7d6:	e0 57       	subi	r30, 0x70	; 112
     7d8:	fc 4d       	sbci	r31, 0xDC	; 220
     7da:	40 81       	ld	r20, Z
     7dc:	51 81       	ldd	r21, Z+1	; 0x01
     7de:	84 17       	cp	r24, r20
     7e0:	95 07       	cpc	r25, r21
     7e2:	30 f0       	brcs	.+12     	; 0x7f0 <udi_cdc_multi_getc+0x4a>
     7e4:	80 91 14 24 	lds	r24, 0x2414
     7e8:	81 11       	cpse	r24, r1
     7ea:	e8 cf       	rjmp	.-48     	; 0x7bc <udi_cdc_multi_getc+0x16>
     7ec:	90 e0       	ldi	r25, 0x00	; 0
     7ee:	20 c0       	rjmp	.+64     	; 0x830 <udi_cdc_multi_getc+0x8a>
     7f0:	f9 01       	movw	r30, r18
     7f2:	00 24       	eor	r0, r0
     7f4:	f6 95       	lsr	r31
     7f6:	e7 95       	ror	r30
     7f8:	07 94       	ror	r0
     7fa:	f6 95       	lsr	r31
     7fc:	e7 95       	ror	r30
     7fe:	07 94       	ror	r0
     800:	fe 2f       	mov	r31, r30
     802:	e0 2d       	mov	r30, r0
     804:	e8 0f       	add	r30, r24
     806:	f9 1f       	adc	r31, r25
     808:	ec 56       	subi	r30, 0x6C	; 108
     80a:	fc 4d       	sbci	r31, 0xDC	; 220
     80c:	20 81       	ld	r18, Z
     80e:	eb 01       	movw	r28, r22
     810:	c2 2b       	or	r28, r18
     812:	01 96       	adiw	r24, 0x01	; 1
     814:	80 93 8d 23 	sts	0x238D, r24
     818:	90 93 8e 23 	sts	0x238E, r25
     81c:	80 e0       	ldi	r24, 0x00	; 0
     81e:	16 df       	rcall	.-468    	; 0x64c <udi_cdc_rx_start>
     820:	11 23       	and	r17, r17
     822:	21 f0       	breq	.+8      	; 0x82c <udi_cdc_multi_getc+0x86>
     824:	7c 2f       	mov	r23, r28
     826:	66 27       	eor	r22, r22
     828:	10 e0       	ldi	r17, 0x00	; 0
     82a:	c8 cf       	rjmp	.-112    	; 0x7bc <udi_cdc_multi_getc+0x16>
     82c:	8c 2f       	mov	r24, r28
     82e:	9d 2f       	mov	r25, r29
     830:	df 91       	pop	r29
     832:	cf 91       	pop	r28
     834:	1f 91       	pop	r17
     836:	08 95       	ret

00000838 <udi_cdc_getc>:
     838:	80 e0       	ldi	r24, 0x00	; 0
     83a:	b5 cf       	rjmp	.-150    	; 0x7a6 <udi_cdc_multi_getc>
     83c:	08 95       	ret

0000083e <udi_cdc_multi_get_free_tx_buffer>:
     83e:	9f b7       	in	r25, 0x3f	; 63
     840:	f8 94       	cli
     842:	80 91 06 23 	lds	r24, 0x2306
     846:	e8 2f       	mov	r30, r24
     848:	f0 e0       	ldi	r31, 0x00	; 0
     84a:	ee 0f       	add	r30, r30
     84c:	ff 1f       	adc	r31, r31
     84e:	e9 5f       	subi	r30, 0xF9	; 249
     850:	fc 4d       	sbci	r31, 0xDC	; 220
     852:	20 81       	ld	r18, Z
     854:	31 81       	ldd	r19, Z+1	; 0x01
     856:	20 34       	cpi	r18, 0x40	; 64
     858:	31 05       	cpc	r19, r1
     85a:	89 f4       	brne	.+34     	; 0x87e <udi_cdc_multi_get_free_tx_buffer+0x40>
     85c:	40 91 03 23 	lds	r20, 0x2303
     860:	41 11       	cpse	r20, r1
     862:	0d c0       	rjmp	.+26     	; 0x87e <udi_cdc_multi_get_free_tx_buffer+0x40>
     864:	40 91 02 23 	lds	r20, 0x2302
     868:	41 11       	cpse	r20, r1
     86a:	09 c0       	rjmp	.+18     	; 0x87e <udi_cdc_multi_get_free_tx_buffer+0x40>
     86c:	21 e0       	ldi	r18, 0x01	; 1
     86e:	20 93 02 23 	sts	0x2302, r18
     872:	81 11       	cpse	r24, r1
     874:	20 e0       	ldi	r18, 0x00	; 0
     876:	20 93 06 23 	sts	0x2306, r18
     87a:	20 e0       	ldi	r18, 0x00	; 0
     87c:	30 e0       	ldi	r19, 0x00	; 0
     87e:	9f bf       	out	0x3f, r25	; 63
     880:	80 e4       	ldi	r24, 0x40	; 64
     882:	90 e0       	ldi	r25, 0x00	; 0
     884:	82 1b       	sub	r24, r18
     886:	93 0b       	sbc	r25, r19
     888:	08 95       	ret

0000088a <udi_cdc_multi_is_tx_ready>:
     88a:	d9 df       	rcall	.-78     	; 0x83e <udi_cdc_multi_get_free_tx_buffer>
     88c:	21 e0       	ldi	r18, 0x01	; 1
     88e:	89 2b       	or	r24, r25
     890:	09 f4       	brne	.+2      	; 0x894 <udi_cdc_multi_is_tx_ready+0xa>
     892:	20 e0       	ldi	r18, 0x00	; 0
     894:	82 2f       	mov	r24, r18
     896:	08 95       	ret

00000898 <udi_cdc_multi_putc>:

int udi_cdc_multi_putc(uint8_t port, int value)
{
     898:	1f 93       	push	r17
     89a:	cf 93       	push	r28
     89c:	df 93       	push	r29
     89e:	16 2f       	mov	r17, r22
     8a0:	c7 2f       	mov	r28, r23

#if UDI_CDC_PORT_NB == 1 // To optimize code
	port = 0;
#endif

	b_databit_9 = (9 == udi_cdc_line_coding[port].bDataBits);
     8a2:	d1 e0       	ldi	r29, 0x01	; 1
     8a4:	80 91 2a 24 	lds	r24, 0x242A
     8a8:	89 30       	cpi	r24, 0x09	; 9
     8aa:	09 f0       	breq	.+2      	; 0x8ae <udi_cdc_multi_putc+0x16>
     8ac:	d0 e0       	ldi	r29, 0x00	; 0

udi_cdc_putc_process_one_byte:
	// Check available space
	if (!udi_cdc_multi_is_tx_ready(port)) {
     8ae:	80 e0       	ldi	r24, 0x00	; 0
     8b0:	ec df       	rcall	.-40     	; 0x88a <udi_cdc_multi_is_tx_ready>
     8b2:	81 11       	cpse	r24, r1
     8b4:	07 c0       	rjmp	.+14     	; 0x8c4 <udi_cdc_multi_putc+0x2c>
		if (!udi_cdc_data_running) {
     8b6:	80 91 14 24 	lds	r24, 0x2414
     8ba:	81 11       	cpse	r24, r1
     8bc:	f8 cf       	rjmp	.-16     	; 0x8ae <udi_cdc_multi_putc+0x16>
			return false;
     8be:	80 e0       	ldi	r24, 0x00	; 0
     8c0:	90 e0       	ldi	r25, 0x00	; 0
     8c2:	2b c0       	rjmp	.+86     	; 0x91a <udi_cdc_multi_putc+0x82>

typedef uint8_t irqflags_t;

static inline irqflags_t cpu_irq_save(void)
{
	irqflags_t flags = SREG;
     8c4:	6f b7       	in	r22, 0x3f	; 63
	cpu_irq_disable();
     8c6:	f8 94       	cli
		goto udi_cdc_putc_process_one_byte;
	}

	// Write value
	flags = cpu_irq_save();
	buf_sel = udi_cdc_tx_buf_sel[port];
     8c8:	20 91 06 23 	lds	r18, 0x2306
	udi_cdc_tx_buf[port][buf_sel][udi_cdc_tx_buf_nb[port][buf_sel]++] = value;
     8cc:	30 e0       	ldi	r19, 0x00	; 0
     8ce:	f9 01       	movw	r30, r18
     8d0:	ee 0f       	add	r30, r30
     8d2:	ff 1f       	adc	r31, r31
     8d4:	e9 5f       	subi	r30, 0xF9	; 249
     8d6:	fc 4d       	sbci	r31, 0xDC	; 220
     8d8:	80 81       	ld	r24, Z
     8da:	91 81       	ldd	r25, Z+1	; 0x01
     8dc:	ac 01       	movw	r20, r24
     8de:	4f 5f       	subi	r20, 0xFF	; 255
     8e0:	5f 4f       	sbci	r21, 0xFF	; 255
     8e2:	40 83       	st	Z, r20
     8e4:	51 83       	std	Z+1, r21	; 0x01
     8e6:	f9 01       	movw	r30, r18
     8e8:	00 24       	eor	r0, r0
     8ea:	f6 95       	lsr	r31
     8ec:	e7 95       	ror	r30
     8ee:	07 94       	ror	r0
     8f0:	f6 95       	lsr	r31
     8f2:	e7 95       	ror	r30
     8f4:	07 94       	ror	r0
     8f6:	fe 2f       	mov	r31, r30
     8f8:	e0 2d       	mov	r30, r0
     8fa:	8e 0f       	add	r24, r30
     8fc:	9f 1f       	adc	r25, r31
     8fe:	fc 01       	movw	r30, r24
     900:	e4 5f       	subi	r30, 0xF4	; 244
     902:	fc 4d       	sbci	r31, 0xDC	; 220
     904:	10 83       	st	Z, r17
}

static inline void cpu_irq_restore(irqflags_t flags)
{
	barrier();
	SREG = flags;
     906:	6f bf       	out	0x3f, r22	; 63
	cpu_irq_restore(flags);

	if (b_databit_9) {
     908:	dd 23       	and	r29, r29
     90a:	29 f0       	breq	.+10     	; 0x916 <udi_cdc_multi_putc+0x7e>
		// Send MSB
		b_databit_9 = false;
		value = value >> 8;
     90c:	1c 2f       	mov	r17, r28
     90e:	cc 0f       	add	r28, r28
     910:	cc 0b       	sbc	r28, r28
	udi_cdc_tx_buf[port][buf_sel][udi_cdc_tx_buf_nb[port][buf_sel]++] = value;
	cpu_irq_restore(flags);

	if (b_databit_9) {
		// Send MSB
		b_databit_9 = false;
     912:	d0 e0       	ldi	r29, 0x00	; 0
		value = value >> 8;
		goto udi_cdc_putc_process_one_byte;
     914:	cc cf       	rjmp	.-104    	; 0x8ae <udi_cdc_multi_putc+0x16>
	}
	return true;
     916:	81 e0       	ldi	r24, 0x01	; 1
     918:	90 e0       	ldi	r25, 0x00	; 0
}
     91a:	df 91       	pop	r29
     91c:	cf 91       	pop	r28
     91e:	1f 91       	pop	r17
     920:	08 95       	ret

00000922 <udi_cdc_putc>:

int udi_cdc_putc(int value)
{
	return udi_cdc_multi_putc(0, value);
     922:	bc 01       	movw	r22, r24
     924:	80 e0       	ldi	r24, 0x00	; 0
     926:	b8 cf       	rjmp	.-144    	; 0x898 <udi_cdc_multi_putc>
}
     928:	08 95       	ret

0000092a <udc_next_desc_in_iface>:
/*! \brief Stop the USB Device stack
 */
void udc_stop(void)
{
	udd_disable();
	udc_reset();
     92a:	e0 91 30 24 	lds	r30, 0x2430
     92e:	f0 91 31 24 	lds	r31, 0x2431
     932:	01 90       	ld	r0, Z+
     934:	f0 81       	ld	r31, Z
     936:	e0 2d       	mov	r30, r0
     938:	22 81       	ldd	r18, Z+2	; 0x02
     93a:	33 81       	ldd	r19, Z+3	; 0x03
     93c:	2e 0f       	add	r18, r30
     93e:	3f 1f       	adc	r19, r31
     940:	fc 01       	movw	r30, r24
     942:	40 81       	ld	r20, Z
     944:	e4 0f       	add	r30, r20
     946:	f1 1d       	adc	r31, r1
     948:	e2 17       	cp	r30, r18
     94a:	f3 07       	cpc	r31, r19
     94c:	a0 f4       	brcc	.+40     	; 0x976 <udc_next_desc_in_iface+0x4c>
     94e:	81 81       	ldd	r24, Z+1	; 0x01
     950:	84 30       	cpi	r24, 0x04	; 4
     952:	a1 f0       	breq	.+40     	; 0x97c <udc_next_desc_in_iface+0x52>
     954:	86 13       	cpse	r24, r22
     956:	06 c0       	rjmp	.+12     	; 0x964 <udc_next_desc_in_iface+0x3a>
     958:	14 c0       	rjmp	.+40     	; 0x982 <udc_next_desc_in_iface+0x58>
     95a:	81 81       	ldd	r24, Z+1	; 0x01
     95c:	84 30       	cpi	r24, 0x04	; 4
     95e:	a1 f0       	breq	.+40     	; 0x988 <udc_next_desc_in_iface+0x5e>
     960:	86 17       	cp	r24, r22
     962:	a9 f0       	breq	.+42     	; 0x98e <udc_next_desc_in_iface+0x64>
     964:	80 81       	ld	r24, Z
     966:	e8 0f       	add	r30, r24
     968:	f1 1d       	adc	r31, r1
     96a:	e2 17       	cp	r30, r18
     96c:	f3 07       	cpc	r31, r19
     96e:	a8 f3       	brcs	.-22     	; 0x95a <udc_next_desc_in_iface+0x30>
     970:	80 e0       	ldi	r24, 0x00	; 0
     972:	90 e0       	ldi	r25, 0x00	; 0
     974:	08 95       	ret
     976:	80 e0       	ldi	r24, 0x00	; 0
     978:	90 e0       	ldi	r25, 0x00	; 0
     97a:	08 95       	ret
     97c:	80 e0       	ldi	r24, 0x00	; 0
     97e:	90 e0       	ldi	r25, 0x00	; 0
     980:	08 95       	ret
     982:	8e 2f       	mov	r24, r30
     984:	9f 2f       	mov	r25, r31
     986:	08 95       	ret
     988:	80 e0       	ldi	r24, 0x00	; 0
     98a:	90 e0       	ldi	r25, 0x00	; 0
     98c:	08 95       	ret
     98e:	8e 2f       	mov	r24, r30
     990:	9f 2f       	mov	r25, r31
     992:	08 95       	ret

00000994 <udc_valid_address>:
     994:	80 91 73 25 	lds	r24, 0x2573
     998:	8f 77       	andi	r24, 0x7F	; 127
     99a:	0c 94 ef 0e 	jmp	0x1dde	; 0x1dde <udd_set_address>
     99e:	08 95       	ret

000009a0 <udc_update_iface_desc>:
     9a0:	90 91 32 24 	lds	r25, 0x2432
     9a4:	99 23       	and	r25, r25
     9a6:	81 f1       	breq	.+96     	; 0xa08 <udc_update_iface_desc+0x68>
     9a8:	e0 91 30 24 	lds	r30, 0x2430
     9ac:	f0 91 31 24 	lds	r31, 0x2431
     9b0:	01 90       	ld	r0, Z+
     9b2:	f0 81       	ld	r31, Z
     9b4:	e0 2d       	mov	r30, r0
     9b6:	94 81       	ldd	r25, Z+4	; 0x04
     9b8:	89 17       	cp	r24, r25
     9ba:	40 f5       	brcc	.+80     	; 0xa0c <udc_update_iface_desc+0x6c>
     9bc:	e0 93 2e 24 	sts	0x242E, r30
     9c0:	f0 93 2f 24 	sts	0x242F, r31
     9c4:	22 81       	ldd	r18, Z+2	; 0x02
     9c6:	33 81       	ldd	r19, Z+3	; 0x03
     9c8:	2e 0f       	add	r18, r30
     9ca:	3f 1f       	adc	r19, r31
     9cc:	e2 17       	cp	r30, r18
     9ce:	f3 07       	cpc	r31, r19
     9d0:	f8 f4       	brcc	.+62     	; 0xa10 <udc_update_iface_desc+0x70>
     9d2:	91 81       	ldd	r25, Z+1	; 0x01
     9d4:	94 30       	cpi	r25, 0x04	; 4
     9d6:	61 f4       	brne	.+24     	; 0x9f0 <udc_update_iface_desc+0x50>
     9d8:	92 81       	ldd	r25, Z+2	; 0x02
     9da:	98 13       	cpse	r25, r24
     9dc:	09 c0       	rjmp	.+18     	; 0x9f0 <udc_update_iface_desc+0x50>
     9de:	93 81       	ldd	r25, Z+3	; 0x03
     9e0:	96 13       	cpse	r25, r22
     9e2:	06 c0       	rjmp	.+12     	; 0x9f0 <udc_update_iface_desc+0x50>
     9e4:	e0 93 2e 24 	sts	0x242E, r30
     9e8:	f0 93 2f 24 	sts	0x242F, r31
     9ec:	81 e0       	ldi	r24, 0x01	; 1
     9ee:	08 95       	ret
     9f0:	90 81       	ld	r25, Z
     9f2:	e9 0f       	add	r30, r25
     9f4:	f1 1d       	adc	r31, r1
     9f6:	e2 17       	cp	r30, r18
     9f8:	f3 07       	cpc	r31, r19
     9fa:	58 f3       	brcs	.-42     	; 0x9d2 <udc_update_iface_desc+0x32>
     9fc:	e0 93 2e 24 	sts	0x242E, r30
     a00:	f0 93 2f 24 	sts	0x242F, r31
     a04:	80 e0       	ldi	r24, 0x00	; 0
     a06:	08 95       	ret
     a08:	80 e0       	ldi	r24, 0x00	; 0
     a0a:	08 95       	ret
     a0c:	80 e0       	ldi	r24, 0x00	; 0
     a0e:	08 95       	ret
     a10:	80 e0       	ldi	r24, 0x00	; 0
     a12:	08 95       	ret

00000a14 <udc_iface_disable>:
     a14:	ff 92       	push	r15
     a16:	0f 93       	push	r16
     a18:	1f 93       	push	r17
     a1a:	cf 93       	push	r28
     a1c:	df 93       	push	r29
     a1e:	c8 2f       	mov	r28, r24
     a20:	60 e0       	ldi	r22, 0x00	; 0
     a22:	be df       	rcall	.-132    	; 0x9a0 <udc_update_iface_desc>
     a24:	f8 2e       	mov	r15, r24
     a26:	88 23       	and	r24, r24
     a28:	81 f1       	breq	.+96     	; 0xa8a <udc_iface_disable+0x76>
     a2a:	a0 91 30 24 	lds	r26, 0x2430
     a2e:	b0 91 31 24 	lds	r27, 0x2431
     a32:	ec 2f       	mov	r30, r28
     a34:	f0 e0       	ldi	r31, 0x00	; 0
     a36:	ee 0f       	add	r30, r30
     a38:	ff 1f       	adc	r31, r31
     a3a:	12 96       	adiw	r26, 0x02	; 2
     a3c:	2d 91       	ld	r18, X+
     a3e:	3c 91       	ld	r19, X
     a40:	13 97       	sbiw	r26, 0x03	; 3
     a42:	e2 0f       	add	r30, r18
     a44:	f3 1f       	adc	r31, r19
     a46:	00 81       	ld	r16, Z
     a48:	11 81       	ldd	r17, Z+1	; 0x01
     a4a:	d8 01       	movw	r26, r16
     a4c:	16 96       	adiw	r26, 0x06	; 6
     a4e:	ed 91       	ld	r30, X+
     a50:	fc 91       	ld	r31, X
     a52:	17 97       	sbiw	r26, 0x07	; 7
     a54:	09 95       	icall
     a56:	68 2f       	mov	r22, r24
     a58:	8c 2f       	mov	r24, r28
     a5a:	a2 df       	rcall	.-188    	; 0x9a0 <udc_update_iface_desc>
     a5c:	f8 2e       	mov	r15, r24
     a5e:	88 23       	and	r24, r24
     a60:	a1 f0       	breq	.+40     	; 0xa8a <udc_iface_disable+0x76>
     a62:	c0 91 2e 24 	lds	r28, 0x242E
     a66:	d0 91 2f 24 	lds	r29, 0x242F
     a6a:	65 e0       	ldi	r22, 0x05	; 5
     a6c:	ce 01       	movw	r24, r28
     a6e:	5d df       	rcall	.-326    	; 0x92a <udc_next_desc_in_iface>
     a70:	ec 01       	movw	r28, r24
     a72:	00 97       	sbiw	r24, 0x00	; 0
     a74:	21 f0       	breq	.+8      	; 0xa7e <udc_iface_disable+0x6a>
     a76:	8a 81       	ldd	r24, Y+2	; 0x02
     a78:	0e 94 6d 10 	call	0x20da	; 0x20da <udd_ep_free>
     a7c:	f6 cf       	rjmp	.-20     	; 0xa6a <udc_iface_disable+0x56>
     a7e:	d8 01       	movw	r26, r16
     a80:	12 96       	adiw	r26, 0x02	; 2
     a82:	ed 91       	ld	r30, X+
     a84:	fc 91       	ld	r31, X
     a86:	13 97       	sbiw	r26, 0x03	; 3
     a88:	09 95       	icall
     a8a:	8f 2d       	mov	r24, r15
     a8c:	df 91       	pop	r29
     a8e:	cf 91       	pop	r28
     a90:	1f 91       	pop	r17
     a92:	0f 91       	pop	r16
     a94:	ff 90       	pop	r15
     a96:	08 95       	ret

00000a98 <udc_iface_enable>:
     a98:	1f 93       	push	r17
     a9a:	cf 93       	push	r28
     a9c:	df 93       	push	r29
     a9e:	18 2f       	mov	r17, r24
     aa0:	7f df       	rcall	.-258    	; 0x9a0 <udc_update_iface_desc>
     aa2:	88 23       	and	r24, r24
     aa4:	41 f1       	breq	.+80     	; 0xaf6 <udc_iface_enable+0x5e>
     aa6:	c0 91 2e 24 	lds	r28, 0x242E
     aaa:	d0 91 2f 24 	lds	r29, 0x242F
     aae:	65 e0       	ldi	r22, 0x05	; 5
     ab0:	ce 01       	movw	r24, r28
     ab2:	3b df       	rcall	.-394    	; 0x92a <udc_next_desc_in_iface>
     ab4:	ec 01       	movw	r28, r24
     ab6:	00 97       	sbiw	r24, 0x00	; 0
     ab8:	49 f0       	breq	.+18     	; 0xacc <udc_iface_enable+0x34>
     aba:	4c 81       	ldd	r20, Y+4	; 0x04
     abc:	5d 81       	ldd	r21, Y+5	; 0x05
     abe:	6b 81       	ldd	r22, Y+3	; 0x03
     ac0:	8a 81       	ldd	r24, Y+2	; 0x02
     ac2:	0e 94 06 0f 	call	0x1e0c	; 0x1e0c <udd_ep_alloc>
     ac6:	81 11       	cpse	r24, r1
     ac8:	f2 cf       	rjmp	.-28     	; 0xaae <udc_iface_enable+0x16>
     aca:	15 c0       	rjmp	.+42     	; 0xaf6 <udc_iface_enable+0x5e>
     acc:	a0 91 30 24 	lds	r26, 0x2430
     ad0:	b0 91 31 24 	lds	r27, 0x2431
     ad4:	81 2f       	mov	r24, r17
     ad6:	90 e0       	ldi	r25, 0x00	; 0
     ad8:	88 0f       	add	r24, r24
     ada:	99 1f       	adc	r25, r25
     adc:	12 96       	adiw	r26, 0x02	; 2
     ade:	ed 91       	ld	r30, X+
     ae0:	fc 91       	ld	r31, X
     ae2:	13 97       	sbiw	r26, 0x03	; 3
     ae4:	e8 0f       	add	r30, r24
     ae6:	f9 1f       	adc	r31, r25
     ae8:	01 90       	ld	r0, Z+
     aea:	f0 81       	ld	r31, Z
     aec:	e0 2d       	mov	r30, r0
     aee:	01 90       	ld	r0, Z+
     af0:	f0 81       	ld	r31, Z
     af2:	e0 2d       	mov	r30, r0
     af4:	09 95       	icall
     af6:	df 91       	pop	r29
     af8:	cf 91       	pop	r28
     afa:	1f 91       	pop	r17
     afc:	08 95       	ret

00000afe <udc_start>:
     afe:	0c 94 83 0e 	jmp	0x1d06	; 0x1d06 <udd_enable>
     b02:	08 95       	ret

00000b04 <udc_reset>:
     b04:	cf 93       	push	r28
     b06:	80 91 32 24 	lds	r24, 0x2432
     b0a:	88 23       	and	r24, r24
     b0c:	c1 f0       	breq	.+48     	; 0xb3e <udc_reset+0x3a>
     b0e:	e0 91 30 24 	lds	r30, 0x2430
     b12:	f0 91 31 24 	lds	r31, 0x2431
     b16:	01 90       	ld	r0, Z+
     b18:	f0 81       	ld	r31, Z
     b1a:	e0 2d       	mov	r30, r0
     b1c:	84 81       	ldd	r24, Z+4	; 0x04
     b1e:	88 23       	and	r24, r24
     b20:	71 f0       	breq	.+28     	; 0xb3e <udc_reset+0x3a>
     b22:	c0 e0       	ldi	r28, 0x00	; 0
     b24:	8c 2f       	mov	r24, r28
     b26:	76 df       	rcall	.-276    	; 0xa14 <udc_iface_disable>
     b28:	cf 5f       	subi	r28, 0xFF	; 255
     b2a:	e0 91 30 24 	lds	r30, 0x2430
     b2e:	f0 91 31 24 	lds	r31, 0x2431
     b32:	01 90       	ld	r0, Z+
     b34:	f0 81       	ld	r31, Z
     b36:	e0 2d       	mov	r30, r0
     b38:	84 81       	ldd	r24, Z+4	; 0x04
     b3a:	c8 17       	cp	r28, r24
     b3c:	98 f3       	brcs	.-26     	; 0xb24 <udc_reset+0x20>
     b3e:	10 92 32 24 	sts	0x2432, r1
     b42:	81 e0       	ldi	r24, 0x01	; 1
     b44:	90 e0       	ldi	r25, 0x00	; 0
     b46:	80 93 36 24 	sts	0x2436, r24
     b4a:	90 93 37 24 	sts	0x2437, r25
     b4e:	cf 91       	pop	r28
     b50:	08 95       	ret

00000b52 <udc_sof_notify>:
			CPU_TO_LE16(USB_DEV_STATUS_BUS_POWERED);
#endif
}

void udc_sof_notify(void)
{
     b52:	cf 93       	push	r28
	uint8_t iface_num;

	if (udc_num_configuration) {
     b54:	80 91 32 24 	lds	r24, 0x2432
     b58:	88 23       	and	r24, r24
     b5a:	41 f1       	breq	.+80     	; 0xbac <udc_sof_notify+0x5a>
		for (iface_num = 0;
				iface_num < udc_ptr_conf->desc->bNumInterfaces;
     b5c:	e0 91 30 24 	lds	r30, 0x2430
     b60:	f0 91 31 24 	lds	r31, 0x2431
     b64:	a0 81       	ld	r26, Z
     b66:	b1 81       	ldd	r27, Z+1	; 0x01
void udc_sof_notify(void)
{
	uint8_t iface_num;

	if (udc_num_configuration) {
		for (iface_num = 0;
     b68:	14 96       	adiw	r26, 0x04	; 4
     b6a:	8c 91       	ld	r24, X
     b6c:	88 23       	and	r24, r24
     b6e:	f1 f0       	breq	.+60     	; 0xbac <udc_sof_notify+0x5a>
     b70:	c0 e0       	ldi	r28, 0x00	; 0
				iface_num < udc_ptr_conf->desc->bNumInterfaces;
				iface_num++) {
			if (udc_ptr_conf->udi_apis[iface_num]->sof_notify != NULL) {
     b72:	8c 2f       	mov	r24, r28
     b74:	90 e0       	ldi	r25, 0x00	; 0
     b76:	88 0f       	add	r24, r24
     b78:	99 1f       	adc	r25, r25
     b7a:	02 80       	ldd	r0, Z+2	; 0x02
     b7c:	f3 81       	ldd	r31, Z+3	; 0x03
     b7e:	e0 2d       	mov	r30, r0
     b80:	e8 0f       	add	r30, r24
     b82:	f9 1f       	adc	r31, r25
     b84:	01 90       	ld	r0, Z+
     b86:	f0 81       	ld	r31, Z
     b88:	e0 2d       	mov	r30, r0
     b8a:	00 84       	ldd	r0, Z+8	; 0x08
     b8c:	f1 85       	ldd	r31, Z+9	; 0x09
     b8e:	e0 2d       	mov	r30, r0
     b90:	30 97       	sbiw	r30, 0x00	; 0
     b92:	09 f0       	breq	.+2      	; 0xb96 <udc_sof_notify+0x44>
				udc_ptr_conf->udi_apis[iface_num]->sof_notify();
     b94:	09 95       	icall
	uint8_t iface_num;

	if (udc_num_configuration) {
		for (iface_num = 0;
				iface_num < udc_ptr_conf->desc->bNumInterfaces;
				iface_num++) {
     b96:	cf 5f       	subi	r28, 0xFF	; 255
{
	uint8_t iface_num;

	if (udc_num_configuration) {
		for (iface_num = 0;
				iface_num < udc_ptr_conf->desc->bNumInterfaces;
     b98:	e0 91 30 24 	lds	r30, 0x2430
     b9c:	f0 91 31 24 	lds	r31, 0x2431
     ba0:	a0 81       	ld	r26, Z
     ba2:	b1 81       	ldd	r27, Z+1	; 0x01
void udc_sof_notify(void)
{
	uint8_t iface_num;

	if (udc_num_configuration) {
		for (iface_num = 0;
     ba4:	14 96       	adiw	r26, 0x04	; 4
     ba6:	8c 91       	ld	r24, X
     ba8:	c8 17       	cp	r28, r24
     baa:	18 f3       	brcs	.-58     	; 0xb72 <udc_sof_notify+0x20>
			if (udc_ptr_conf->udi_apis[iface_num]->sof_notify != NULL) {
				udc_ptr_conf->udi_apis[iface_num]->sof_notify();
			}
		}
	}
}
     bac:	cf 91       	pop	r28
     bae:	08 95       	ret

00000bb0 <udc_process_setup>:
 * sent to a specific application callback.
 *
 * \return true if the request is supported, else the request is stalled by UDD
 */
bool udc_process_setup(void)
{
     bb0:	ef 92       	push	r14
     bb2:	ff 92       	push	r15
     bb4:	0f 93       	push	r16
     bb6:	1f 93       	push	r17
     bb8:	cf 93       	push	r28
     bba:	df 93       	push	r29
	// By default no data (receive/send) and no callbacks registered
	udd_g_ctrlreq.payload_size = 0;
     bbc:	10 92 7b 25 	sts	0x257B, r1
     bc0:	10 92 7c 25 	sts	0x257C, r1
	udd_g_ctrlreq.callback = NULL;
     bc4:	10 92 7d 25 	sts	0x257D, r1
     bc8:	10 92 7e 25 	sts	0x257E, r1
	udd_g_ctrlreq.over_under_run = NULL;
     bcc:	10 92 7f 25 	sts	0x257F, r1
     bd0:	10 92 80 25 	sts	0x2580, r1

	if (Udd_setup_is_in()) {
     bd4:	20 91 71 25 	lds	r18, 0x2571
     bd8:	22 23       	and	r18, r18
     bda:	0c f0       	brlt	.+2      	; 0xbde <udc_process_setup+0x2e>
     bdc:	97 c2       	rjmp	.+1326   	; 0x110c <udc_process_setup+0x55c>
		if (udd_g_ctrlreq.req.wLength == 0) {
     bde:	80 91 77 25 	lds	r24, 0x2577
     be2:	90 91 78 25 	lds	r25, 0x2578
     be6:	00 97       	sbiw	r24, 0x00	; 0
     be8:	09 f0       	breq	.+2      	; 0xbec <udc_process_setup+0x3c>
     bea:	95 c2       	rjmp	.+1322   	; 0x1116 <udc_process_setup+0x566>
     bec:	8b c2       	rjmp	.+1302   	; 0x1104 <udc_process_setup+0x554>
		// GET Standard Requests
		if (udd_g_ctrlreq.req.wLength == 0) {
			return false; // Error for USB host
		}

		if (USB_REQ_RECIP_DEVICE == Udd_setup_recipient()) {
     bee:	2f 71       	andi	r18, 0x1F	; 31
     bf0:	09 f0       	breq	.+2      	; 0xbf4 <udc_process_setup+0x44>
     bf2:	b9 c0       	rjmp	.+370    	; 0xd66 <udc_process_setup+0x1b6>
			// Standard Get Device request
			switch (udd_g_ctrlreq.req.bRequest) {
     bf4:	30 91 72 25 	lds	r19, 0x2572
     bf8:	36 30       	cpi	r19, 0x06	; 6
     bfa:	89 f0       	breq	.+34     	; 0xc1e <udc_process_setup+0x6e>
     bfc:	38 30       	cpi	r19, 0x08	; 8
     bfe:	09 f4       	brne	.+2      	; 0xc02 <udc_process_setup+0x52>
     c00:	a6 c0       	rjmp	.+332    	; 0xd4e <udc_process_setup+0x19e>
     c02:	31 11       	cpse	r19, r1
     c04:	b0 c0       	rjmp	.+352    	; 0xd66 <udc_process_setup+0x1b6>
 *
 * \return true if success
 */
static bool udc_req_std_dev_get_status(void)
{
	if (udd_g_ctrlreq.req.wLength != sizeof(udc_device_status)) {
     c06:	02 97       	sbiw	r24, 0x02	; 2
     c08:	41 f4       	brne	.+16     	; 0xc1a <udc_process_setup+0x6a>
		return false;
	}

	udd_set_setup_payload( (uint8_t *) & udc_device_status,
     c0a:	62 e0       	ldi	r22, 0x02	; 2
     c0c:	70 e0       	ldi	r23, 0x00	; 0
     c0e:	86 e3       	ldi	r24, 0x36	; 54
     c10:	94 e2       	ldi	r25, 0x24	; 36
     c12:	0e 94 fd 0e 	call	0x1dfa	; 0x1dfa <udd_set_setup_payload>
			sizeof(udc_device_status));
	return true;
     c16:	01 e0       	ldi	r16, 0x01	; 1
     c18:	f8 c1       	rjmp	.+1008   	; 0x100a <udc_process_setup+0x45a>
 * \return true if success
 */
static bool udc_req_std_dev_get_status(void)
{
	if (udd_g_ctrlreq.req.wLength != sizeof(udc_device_status)) {
		return false;
     c1a:	00 e0       	ldi	r16, 0x00	; 0
     c1c:	f6 c1       	rjmp	.+1004   	; 0x100a <udc_process_setup+0x45a>
 */
static bool udc_req_std_dev_get_descriptor(void)
{
	uint8_t conf_num;

	conf_num = udd_g_ctrlreq.req.wValue & 0xff;
     c1e:	20 91 73 25 	lds	r18, 0x2573
     c22:	30 91 74 25 	lds	r19, 0x2574

	// Check descriptor ID
	switch ((uint8_t) (udd_g_ctrlreq.req.wValue >> 8)) {
     c26:	83 2f       	mov	r24, r19
     c28:	99 27       	eor	r25, r25
     c2a:	82 30       	cpi	r24, 0x02	; 2
     c2c:	91 05       	cpc	r25, r1
     c2e:	a1 f0       	breq	.+40     	; 0xc58 <udc_process_setup+0xa8>
     c30:	1c f4       	brge	.+6      	; 0xc38 <udc_process_setup+0x88>
     c32:	01 97       	sbiw	r24, 0x01	; 1
     c34:	39 f0       	breq	.+14     	; 0xc44 <udc_process_setup+0x94>
     c36:	81 c0       	rjmp	.+258    	; 0xd3a <udc_process_setup+0x18a>
     c38:	83 30       	cpi	r24, 0x03	; 3
     c3a:	91 05       	cpc	r25, r1
     c3c:	f1 f1       	breq	.+124    	; 0xcba <udc_process_setup+0x10a>
     c3e:	0f 97       	sbiw	r24, 0x0f	; 15
     c40:	69 f1       	breq	.+90     	; 0xc9c <udc_process_setup+0xec>
     c42:	7b c0       	rjmp	.+246    	; 0xd3a <udc_process_setup+0x18a>
		} else
#endif
		{
			udd_set_setup_payload(
				(uint8_t *) udc_config.confdev_lsfs,
				udc_config.confdev_lsfs->bLength);
     c44:	80 91 34 20 	lds	r24, 0x2034
     c48:	90 91 35 20 	lds	r25, 0x2035
				(uint8_t *) udc_config.confdev_hs,
				udc_config.confdev_hs->bLength);
		} else
#endif
		{
			udd_set_setup_payload(
     c4c:	dc 01       	movw	r26, r24
     c4e:	6c 91       	ld	r22, X
     c50:	70 e0       	ldi	r23, 0x00	; 0
     c52:	0e 94 fd 0e 	call	0x1dfa	; 0x1dfa <udd_set_setup_payload>
     c56:	60 c0       	rjmp	.+192    	; 0xd18 <udc_process_setup+0x168>
				le16_to_cpu(udc_config.conf_hs[conf_num].desc->wTotalLength));
		} else
#endif
		{
			// FS descriptor
			if (conf_num >= udc_config.confdev_lsfs->
     c58:	e0 91 34 20 	lds	r30, 0x2034
     c5c:	f0 91 35 20 	lds	r31, 0x2035
     c60:	81 89       	ldd	r24, Z+17	; 0x11
     c62:	28 17       	cp	r18, r24
     c64:	08 f0       	brcs	.+2      	; 0xc68 <udc_process_setup+0xb8>
     c66:	6b c0       	rjmp	.+214    	; 0xd3e <udc_process_setup+0x18e>
					bNumConfigurations) {
				return false;
			}
			udd_set_setup_payload(
				(uint8_t *)udc_config.conf_lsfs[conf_num].desc,
				le16_to_cpu(udc_config.conf_lsfs[conf_num].desc->wTotalLength));
     c68:	c9 01       	movw	r24, r18
     c6a:	99 27       	eor	r25, r25
     c6c:	88 0f       	add	r24, r24
     c6e:	99 1f       	adc	r25, r25
     c70:	88 0f       	add	r24, r24
     c72:	99 1f       	adc	r25, r25
     c74:	e0 91 36 20 	lds	r30, 0x2036
     c78:	f0 91 37 20 	lds	r31, 0x2037
     c7c:	e8 0f       	add	r30, r24
     c7e:	f9 1f       	adc	r31, r25
     c80:	80 81       	ld	r24, Z
     c82:	91 81       	ldd	r25, Z+1	; 0x01
			// FS descriptor
			if (conf_num >= udc_config.confdev_lsfs->
					bNumConfigurations) {
				return false;
			}
			udd_set_setup_payload(
     c84:	fc 01       	movw	r30, r24
     c86:	62 81       	ldd	r22, Z+2	; 0x02
     c88:	73 81       	ldd	r23, Z+3	; 0x03
     c8a:	0e 94 fd 0e 	call	0x1dfa	; 0x1dfa <udd_set_setup_payload>
				(uint8_t *)udc_config.conf_lsfs[conf_num].desc,
				le16_to_cpu(udc_config.conf_lsfs[conf_num].desc->wTotalLength));
		}
		((usb_conf_desc_t *) udd_g_ctrlreq.payload)->bDescriptorType =
     c8e:	e0 91 79 25 	lds	r30, 0x2579
     c92:	f0 91 7a 25 	lds	r31, 0x257A
     c96:	82 e0       	ldi	r24, 0x02	; 2
     c98:	81 83       	std	Z+1, r24	; 0x01
     c9a:	3e c0       	rjmp	.+124    	; 0xd18 <udc_process_setup+0x168>
		break;
#endif

	case USB_DT_BOS:
		// Device BOS descriptor requested
		if (udc_config.conf_bos == NULL) {
     c9c:	80 91 38 20 	lds	r24, 0x2038
     ca0:	90 91 39 20 	lds	r25, 0x2039
     ca4:	00 97       	sbiw	r24, 0x00	; 0
     ca6:	09 f4       	brne	.+2      	; 0xcaa <udc_process_setup+0xfa>
     ca8:	4c c0       	rjmp	.+152    	; 0xd42 <udc_process_setup+0x192>
			return false;
		}
		udd_set_setup_payload( (uint8_t *) udc_config.conf_bos,
     caa:	dc 01       	movw	r26, r24
     cac:	12 96       	adiw	r26, 0x02	; 2
     cae:	6d 91       	ld	r22, X+
     cb0:	7c 91       	ld	r23, X
     cb2:	13 97       	sbiw	r26, 0x03	; 3
     cb4:	0e 94 fd 0e 	call	0x1dfa	; 0x1dfa <udd_set_setup_payload>
     cb8:	2f c0       	rjmp	.+94     	; 0xd18 <udc_process_setup+0x168>
	uint8_t i;
	const uint8_t *str;
	uint8_t str_length = 0;

	// Link payload pointer to the string corresponding at request
	switch (udd_g_ctrlreq.req.wValue & 0xff) {
     cba:	33 27       	eor	r19, r19
     cbc:	21 30       	cpi	r18, 0x01	; 1
     cbe:	31 05       	cpc	r19, r1
     cc0:	89 f0       	breq	.+34     	; 0xce4 <udc_process_setup+0x134>
     cc2:	48 f0       	brcs	.+18     	; 0xcd6 <udc_process_setup+0x126>
     cc4:	22 30       	cpi	r18, 0x02	; 2
     cc6:	31 05       	cpc	r19, r1
     cc8:	09 f4       	brne	.+2      	; 0xccc <udc_process_setup+0x11c>
     cca:	2a c2       	rjmp	.+1108   	; 0x1120 <udc_process_setup+0x570>
     ccc:	23 30       	cpi	r18, 0x03	; 3
     cce:	31 05       	cpc	r19, r1
     cd0:	09 f4       	brne	.+2      	; 0xcd4 <udc_process_setup+0x124>
     cd2:	2a c2       	rjmp	.+1108   	; 0x1128 <udc_process_setup+0x578>
     cd4:	38 c0       	rjmp	.+112    	; 0xd46 <udc_process_setup+0x196>
	case 0:
		udd_set_setup_payload((uint8_t *) &udc_string_desc_languageid,
     cd6:	64 e0       	ldi	r22, 0x04	; 4
     cd8:	70 e0       	ldi	r23, 0x00	; 0
     cda:	80 e3       	ldi	r24, 0x30	; 48
     cdc:	90 e2       	ldi	r25, 0x20	; 32
     cde:	0e 94 fd 0e 	call	0x1dfa	; 0x1dfa <udd_set_setup_payload>
     ce2:	1a c0       	rjmp	.+52     	; 0xd18 <udc_process_setup+0x168>
		break;

#ifdef USB_DEVICE_MANUFACTURE_NAME
	case 1:
		str_length = USB_DEVICE_MANUFACTURE_NAME_SIZE;
		str = udc_string_manufacturer_name;
     ce4:	89 e2       	ldi	r24, 0x29	; 41
     ce6:	90 e2       	ldi	r25, 0x20	; 32
				sizeof(udc_string_desc_languageid));
		break;

#ifdef USB_DEVICE_MANUFACTURE_NAME
	case 1:
		str_length = USB_DEVICE_MANUFACTURE_NAME_SIZE;
     ce8:	25 e0       	ldi	r18, 0x05	; 5
     cea:	38 2f       	mov	r19, r24
     cec:	a6 e1       	ldi	r26, 0x16	; 22
     cee:	b0 e2       	ldi	r27, 0x20	; 32
     cf0:	e8 2f       	mov	r30, r24
     cf2:	f9 2f       	mov	r31, r25
		return false;
	}

	if (str_length) {
		for(i = 0; i < str_length; i++) {
			udc_string_desc.string[i] = cpu_to_le16((le16_t)str[i]);
     cf4:	81 91       	ld	r24, Z+
     cf6:	90 e0       	ldi	r25, 0x00	; 0
     cf8:	8d 93       	st	X+, r24
     cfa:	9d 93       	st	X+, r25
     cfc:	8e 2f       	mov	r24, r30
     cfe:	83 1b       	sub	r24, r19
#endif
		return false;
	}

	if (str_length) {
		for(i = 0; i < str_length; i++) {
     d00:	82 17       	cp	r24, r18
     d02:	c0 f3       	brcs	.-16     	; 0xcf4 <udc_process_setup+0x144>
			udc_string_desc.string[i] = cpu_to_le16((le16_t)str[i]);
		}

		udc_string_desc.header.bLength = 2 + (str_length) * 2;
     d04:	22 0f       	add	r18, r18
     d06:	62 e0       	ldi	r22, 0x02	; 2
     d08:	62 0f       	add	r22, r18
     d0a:	60 93 14 20 	sts	0x2014, r22
		udd_set_setup_payload(
     d0e:	70 e0       	ldi	r23, 0x00	; 0
     d10:	84 e1       	ldi	r24, 0x14	; 20
     d12:	90 e2       	ldi	r25, 0x20	; 32
     d14:	0e 94 fd 0e 	call	0x1dfa	; 0x1dfa <udd_set_setup_payload>
	default:
		// Unknown descriptor requested
		return false;
	}
	// if the descriptor is larger than length requested, then reduce it
	if (udd_g_ctrlreq.req.wLength < udd_g_ctrlreq.payload_size) {
     d18:	80 91 77 25 	lds	r24, 0x2577
     d1c:	90 91 78 25 	lds	r25, 0x2578
     d20:	20 91 7b 25 	lds	r18, 0x257B
     d24:	30 91 7c 25 	lds	r19, 0x257C
     d28:	82 17       	cp	r24, r18
     d2a:	93 07       	cpc	r25, r19
     d2c:	70 f4       	brcc	.+28     	; 0xd4a <udc_process_setup+0x19a>
		udd_g_ctrlreq.payload_size = udd_g_ctrlreq.req.wLength;
     d2e:	80 93 7b 25 	sts	0x257B, r24
     d32:	90 93 7c 25 	sts	0x257C, r25
	}
	return true;
     d36:	01 e0       	ldi	r16, 0x01	; 1
     d38:	68 c1       	rjmp	.+720    	; 0x100a <udc_process_setup+0x45a>
		}
		break;

	default:
		// Unknown descriptor requested
		return false;
     d3a:	00 e0       	ldi	r16, 0x00	; 0
     d3c:	66 c1       	rjmp	.+716    	; 0x100a <udc_process_setup+0x45a>
#endif
		{
			// FS descriptor
			if (conf_num >= udc_config.confdev_lsfs->
					bNumConfigurations) {
				return false;
     d3e:	00 e0       	ldi	r16, 0x00	; 0
     d40:	64 c1       	rjmp	.+712    	; 0x100a <udc_process_setup+0x45a>
#endif

	case USB_DT_BOS:
		// Device BOS descriptor requested
		if (udc_config.conf_bos == NULL) {
			return false;
     d42:	00 e0       	ldi	r16, 0x00	; 0
     d44:	62 c1       	rjmp	.+708    	; 0x100a <udc_process_setup+0x45a>
		break;

	case USB_DT_STRING:
		// String descriptor requested
		if (!udc_req_std_dev_get_str_desc()) {
			return false;
     d46:	00 e0       	ldi	r16, 0x00	; 0
     d48:	60 c1       	rjmp	.+704    	; 0x100a <udc_process_setup+0x45a>
	}
	// if the descriptor is larger than length requested, then reduce it
	if (udd_g_ctrlreq.req.wLength < udd_g_ctrlreq.payload_size) {
		udd_g_ctrlreq.payload_size = udd_g_ctrlreq.req.wLength;
	}
	return true;
     d4a:	01 e0       	ldi	r16, 0x01	; 1
     d4c:	5e c1       	rjmp	.+700    	; 0x100a <udc_process_setup+0x45a>
 *
 * \return true if success
 */
static bool udc_req_std_dev_get_configuration(void)
{
	if (udd_g_ctrlreq.req.wLength != 1) {
     d4e:	01 97       	sbiw	r24, 0x01	; 1
     d50:	41 f4       	brne	.+16     	; 0xd62 <udc_process_setup+0x1b2>
		return false;
	}

	udd_set_setup_payload(&udc_num_configuration,1);
     d52:	61 e0       	ldi	r22, 0x01	; 1
     d54:	70 e0       	ldi	r23, 0x00	; 0
     d56:	82 e3       	ldi	r24, 0x32	; 50
     d58:	94 e2       	ldi	r25, 0x24	; 36
     d5a:	0e 94 fd 0e 	call	0x1dfa	; 0x1dfa <udd_set_setup_payload>
	return true;
     d5e:	01 e0       	ldi	r16, 0x01	; 1
     d60:	54 c1       	rjmp	.+680    	; 0x100a <udc_process_setup+0x45a>
 * \return true if success
 */
static bool udc_req_std_dev_get_configuration(void)
{
	if (udd_g_ctrlreq.req.wLength != 1) {
		return false;
     d62:	00 e0       	ldi	r16, 0x00	; 0
     d64:	52 c1       	rjmp	.+676    	; 0x100a <udc_process_setup+0x45a>
			default:
				break;
			}
		}

		if (USB_REQ_RECIP_INTERFACE == Udd_setup_recipient()) {
     d66:	21 30       	cpi	r18, 0x01	; 1
     d68:	09 f0       	breq	.+2      	; 0xd6c <udc_process_setup+0x1bc>
     d6a:	40 c0       	rjmp	.+128    	; 0xdec <udc_process_setup+0x23c>
			// Standard Get Interface request
			switch (udd_g_ctrlreq.req.bRequest) {
     d6c:	30 91 72 25 	lds	r19, 0x2572
     d70:	3a 30       	cpi	r19, 0x0A	; 10
     d72:	e1 f5       	brne	.+120    	; 0xdec <udc_process_setup+0x23c>
static bool udc_req_std_iface_get_setting(void)
{
	uint8_t iface_num;
	udi_api_t UDC_DESC_STORAGE *udi_api;

	if (udd_g_ctrlreq.req.wLength != 1) {
     d74:	01 97       	sbiw	r24, 0x01	; 1
     d76:	a1 f5       	brne	.+104    	; 0xde0 <udc_process_setup+0x230>
		return false; // Error in request
	}
	if (!udc_num_configuration) {
     d78:	80 91 32 24 	lds	r24, 0x2432
     d7c:	88 23       	and	r24, r24
     d7e:	91 f1       	breq	.+100    	; 0xde4 <udc_process_setup+0x234>
		return false; // The device is not is configured state yet
	}

	// Check the interface number included in the request
	iface_num = udd_g_ctrlreq.req.wIndex & 0xFF;
     d80:	c0 91 75 25 	lds	r28, 0x2575
     d84:	d0 91 76 25 	lds	r29, 0x2576
	if (iface_num >= udc_ptr_conf->desc->bNumInterfaces) {
     d88:	e0 90 30 24 	lds	r14, 0x2430
     d8c:	f0 90 31 24 	lds	r15, 0x2431
     d90:	d7 01       	movw	r26, r14
     d92:	ed 91       	ld	r30, X+
     d94:	fc 91       	ld	r31, X
     d96:	84 81       	ldd	r24, Z+4	; 0x04
     d98:	c8 17       	cp	r28, r24
     d9a:	30 f5       	brcc	.+76     	; 0xde8 <udc_process_setup+0x238>
		return false;
	}

	// Select first alternate setting of the interface to update udc_ptr_iface
	// before call iface->getsetting()
	if (!udc_update_iface_desc(iface_num, 0)) {
     d9c:	60 e0       	ldi	r22, 0x00	; 0
     d9e:	8c 2f       	mov	r24, r28
     da0:	ff dd       	rcall	.-1026   	; 0x9a0 <udc_update_iface_desc>
     da2:	08 2f       	mov	r16, r24
     da4:	88 23       	and	r24, r24
     da6:	09 f4       	brne	.+2      	; 0xdaa <udc_process_setup+0x1fa>
     da8:	30 c1       	rjmp	.+608    	; 0x100a <udc_process_setup+0x45a>
		return false;
	}
	// Get alternate setting from UDI
	udi_api = udc_ptr_conf->udi_apis[iface_num];
     daa:	ce 01       	movw	r24, r28
     dac:	99 27       	eor	r25, r25
     dae:	88 0f       	add	r24, r24
     db0:	99 1f       	adc	r25, r25
     db2:	d7 01       	movw	r26, r14
     db4:	12 96       	adiw	r26, 0x02	; 2
     db6:	ed 91       	ld	r30, X+
     db8:	fc 91       	ld	r31, X
     dba:	13 97       	sbiw	r26, 0x03	; 3
     dbc:	e8 0f       	add	r30, r24
     dbe:	f9 1f       	adc	r31, r25
	udc_iface_setting = udi_api->getsetting();
     dc0:	01 90       	ld	r0, Z+
     dc2:	f0 81       	ld	r31, Z
     dc4:	e0 2d       	mov	r30, r0
     dc6:	06 80       	ldd	r0, Z+6	; 0x06
     dc8:	f7 81       	ldd	r31, Z+7	; 0x07
     dca:	e0 2d       	mov	r30, r0
     dcc:	09 95       	icall
     dce:	80 93 34 24 	sts	0x2434, r24

	// Link value to payload pointer of request
	udd_set_setup_payload(&udc_iface_setting,1);
     dd2:	61 e0       	ldi	r22, 0x01	; 1
     dd4:	70 e0       	ldi	r23, 0x00	; 0
     dd6:	84 e3       	ldi	r24, 0x34	; 52
     dd8:	94 e2       	ldi	r25, 0x24	; 36
     dda:	0e 94 fd 0e 	call	0x1dfa	; 0x1dfa <udd_set_setup_payload>
     dde:	15 c1       	rjmp	.+554    	; 0x100a <udc_process_setup+0x45a>
{
	uint8_t iface_num;
	udi_api_t UDC_DESC_STORAGE *udi_api;

	if (udd_g_ctrlreq.req.wLength != 1) {
		return false; // Error in request
     de0:	00 e0       	ldi	r16, 0x00	; 0
     de2:	13 c1       	rjmp	.+550    	; 0x100a <udc_process_setup+0x45a>
	}
	if (!udc_num_configuration) {
		return false; // The device is not is configured state yet
     de4:	00 e0       	ldi	r16, 0x00	; 0
     de6:	11 c1       	rjmp	.+546    	; 0x100a <udc_process_setup+0x45a>
	}

	// Check the interface number included in the request
	iface_num = udd_g_ctrlreq.req.wIndex & 0xFF;
	if (iface_num >= udc_ptr_conf->desc->bNumInterfaces) {
		return false;
     de8:	00 e0       	ldi	r16, 0x00	; 0
     dea:	0f c1       	rjmp	.+542    	; 0x100a <udc_process_setup+0x45a>
			default:
				break;
			}
		}
#if (0!=USB_DEVICE_MAX_EP)
		if (USB_REQ_RECIP_ENDPOINT == Udd_setup_recipient()) {
     dec:	22 30       	cpi	r18, 0x02	; 2
     dee:	09 f0       	breq	.+2      	; 0xdf2 <udc_process_setup+0x242>
     df0:	0e c1       	rjmp	.+540    	; 0x100e <udc_process_setup+0x45e>
			// Standard Get Endpoint request
			switch (udd_g_ctrlreq.req.bRequest) {
     df2:	20 91 72 25 	lds	r18, 0x2572
     df6:	21 11       	cpse	r18, r1
     df8:	03 c1       	rjmp	.+518    	; 0x1000 <udc_process_setup+0x450>
 */
static bool udc_req_std_ep_get_status(void)
{
	static le16_t udc_ep_status;

	if (udd_g_ctrlreq.req.wLength != sizeof(udc_ep_status)) {
     dfa:	02 97       	sbiw	r24, 0x02	; 2
     dfc:	81 f4       	brne	.+32     	; 0xe1e <udc_process_setup+0x26e>
		return false;
	}

	udc_ep_status = udd_ep_is_halted(udd_g_ctrlreq.req.
     dfe:	80 91 75 25 	lds	r24, 0x2575
     e02:	0e 94 67 0f 	call	0x1ece	; 0x1ece <udd_ep_is_halted>
     e06:	90 e0       	ldi	r25, 0x00	; 0
     e08:	80 93 2c 24 	sts	0x242C, r24
     e0c:	90 93 2d 24 	sts	0x242D, r25
			wIndex & 0xFF) ? CPU_TO_LE16(USB_EP_STATUS_HALTED) : 0;

	udd_set_setup_payload( (uint8_t *) & udc_ep_status,
     e10:	62 e0       	ldi	r22, 0x02	; 2
     e12:	70 e0       	ldi	r23, 0x00	; 0
     e14:	8c e2       	ldi	r24, 0x2C	; 44
     e16:	94 e2       	ldi	r25, 0x24	; 36
     e18:	f0 d7       	rcall	.+4064   	; 0x1dfa <udd_set_setup_payload>
			sizeof(udc_ep_status));
	return true;
     e1a:	01 e0       	ldi	r16, 0x01	; 1
     e1c:	f6 c0       	rjmp	.+492    	; 0x100a <udc_process_setup+0x45a>
static bool udc_req_std_ep_get_status(void)
{
	static le16_t udc_ep_status;

	if (udd_g_ctrlreq.req.wLength != sizeof(udc_ep_status)) {
		return false;
     e1e:	00 e0       	ldi	r16, 0x00	; 0
     e20:	f4 c0       	rjmp	.+488    	; 0x100a <udc_process_setup+0x45a>
			}
		}
#endif
	} else {
		// SET Standard Requests
		if (USB_REQ_RECIP_DEVICE == Udd_setup_recipient()) {
     e22:	2f 71       	andi	r18, 0x1F	; 31
     e24:	09 f0       	breq	.+2      	; 0xe28 <udc_process_setup+0x278>
     e26:	90 c0       	rjmp	.+288    	; 0xf48 <udc_process_setup+0x398>
			// Standard Set Device request
			switch (udd_g_ctrlreq.req.bRequest) {
     e28:	80 91 72 25 	lds	r24, 0x2572
     e2c:	83 30       	cpi	r24, 0x03	; 3
     e2e:	09 f4       	brne	.+2      	; 0xe32 <udc_process_setup+0x282>
     e30:	e9 c0       	rjmp	.+466    	; 0x1004 <udc_process_setup+0x454>
     e32:	18 f4       	brcc	.+6      	; 0xe3a <udc_process_setup+0x28a>
     e34:	81 30       	cpi	r24, 0x01	; 1
     e36:	b1 f0       	breq	.+44     	; 0xe64 <udc_process_setup+0x2b4>
     e38:	87 c0       	rjmp	.+270    	; 0xf48 <udc_process_setup+0x398>
     e3a:	85 30       	cpi	r24, 0x05	; 5
     e3c:	19 f0       	breq	.+6      	; 0xe44 <udc_process_setup+0x294>
     e3e:	89 30       	cpi	r24, 0x09	; 9
     e40:	61 f1       	breq	.+88     	; 0xe9a <udc_process_setup+0x2ea>
     e42:	82 c0       	rjmp	.+260    	; 0xf48 <udc_process_setup+0x398>
 *
 * \return true if success
 */
static bool udc_req_std_dev_set_address(void)
{
	if (udd_g_ctrlreq.req.wLength) {
     e44:	80 91 77 25 	lds	r24, 0x2577
     e48:	90 91 78 25 	lds	r25, 0x2578
     e4c:	89 2b       	or	r24, r25
     e4e:	41 f4       	brne	.+16     	; 0xe60 <udc_process_setup+0x2b0>
		return false;
	}

	// The address must be changed at the end of setup request after the handshake
	// then we use a callback to change address
	udd_g_ctrlreq.callback = udc_valid_address;
     e50:	8a ec       	ldi	r24, 0xCA	; 202
     e52:	94 e0       	ldi	r25, 0x04	; 4
     e54:	80 93 7d 25 	sts	0x257D, r24
     e58:	90 93 7e 25 	sts	0x257E, r25
	return true;
     e5c:	01 e0       	ldi	r16, 0x01	; 1
     e5e:	d5 c0       	rjmp	.+426    	; 0x100a <udc_process_setup+0x45a>
 * \return true if success
 */
static bool udc_req_std_dev_set_address(void)
{
	if (udd_g_ctrlreq.req.wLength) {
		return false;
     e60:	00 e0       	ldi	r16, 0x00	; 0
     e62:	d3 c0       	rjmp	.+422    	; 0x100a <udc_process_setup+0x45a>
 *
 * \return true if success
 */
static bool udc_req_std_dev_clear_feature(void)
{
	if (udd_g_ctrlreq.req.wLength) {
     e64:	80 91 77 25 	lds	r24, 0x2577
     e68:	90 91 78 25 	lds	r25, 0x2578
     e6c:	89 2b       	or	r24, r25
     e6e:	89 f4       	brne	.+34     	; 0xe92 <udc_process_setup+0x2e2>
		return false;
	}

	if (udd_g_ctrlreq.req.wValue == USB_DEV_FEATURE_REMOTE_WAKEUP) {
     e70:	80 91 73 25 	lds	r24, 0x2573
     e74:	90 91 74 25 	lds	r25, 0x2574
     e78:	01 97       	sbiw	r24, 0x01	; 1
     e7a:	69 f4       	brne	.+26     	; 0xe96 <udc_process_setup+0x2e6>
		udc_device_status &= CPU_TO_LE16(~(uint32_t)USB_DEV_STATUS_REMOTEWAKEUP);
     e7c:	80 91 36 24 	lds	r24, 0x2436
     e80:	90 91 37 24 	lds	r25, 0x2437
     e84:	8d 7f       	andi	r24, 0xFD	; 253
     e86:	80 93 36 24 	sts	0x2436, r24
     e8a:	90 93 37 24 	sts	0x2437, r25
#if (USB_CONFIG_ATTR_REMOTE_WAKEUP \
	== (USB_DEVICE_ATTR & USB_CONFIG_ATTR_REMOTE_WAKEUP))
		UDC_REMOTEWAKEUP_DISABLE();
#endif
		return true;
     e8e:	01 e0       	ldi	r16, 0x01	; 1
     e90:	bc c0       	rjmp	.+376    	; 0x100a <udc_process_setup+0x45a>
 * \return true if success
 */
static bool udc_req_std_dev_clear_feature(void)
{
	if (udd_g_ctrlreq.req.wLength) {
		return false;
     e92:	00 e0       	ldi	r16, 0x00	; 0
     e94:	ba c0       	rjmp	.+372    	; 0x100a <udc_process_setup+0x45a>
	== (USB_DEVICE_ATTR & USB_CONFIG_ATTR_REMOTE_WAKEUP))
		UDC_REMOTEWAKEUP_DISABLE();
#endif
		return true;
	}
	return false;
     e96:	00 e0       	ldi	r16, 0x00	; 0
     e98:	b8 c0       	rjmp	.+368    	; 0x100a <udc_process_setup+0x45a>
static bool udc_req_std_dev_set_configuration(void)
{
	uint8_t iface_num;

	// Check request length
	if (udd_g_ctrlreq.req.wLength) {
     e9a:	80 91 77 25 	lds	r24, 0x2577
     e9e:	90 91 78 25 	lds	r25, 0x2578
     ea2:	89 2b       	or	r24, r25
     ea4:	09 f0       	breq	.+2      	; 0xea8 <udc_process_setup+0x2f8>
     ea6:	46 c0       	rjmp	.+140    	; 0xf34 <udc_process_setup+0x384>
		return false;
	}
	// Authorize configuration only if the address is valid
	if (!udd_getaddress()) {
     ea8:	9d d7       	rcall	.+3898   	; 0x1de4 <udd_getaddress>
     eaa:	88 23       	and	r24, r24
     eac:	09 f4       	brne	.+2      	; 0xeb0 <udc_process_setup+0x300>
     eae:	44 c0       	rjmp	.+136    	; 0xf38 <udc_process_setup+0x388>
		}
	} else
#endif
	{
		// FS descriptor
		if ((udd_g_ctrlreq.req.wValue & 0xFF) >
     eb0:	20 91 73 25 	lds	r18, 0x2573
     eb4:	30 91 74 25 	lds	r19, 0x2574
     eb8:	33 27       	eor	r19, r19
				udc_config.confdev_lsfs->bNumConfigurations) {
     eba:	e0 91 34 20 	lds	r30, 0x2034
     ebe:	f0 91 35 20 	lds	r31, 0x2035
		}
	} else
#endif
	{
		// FS descriptor
		if ((udd_g_ctrlreq.req.wValue & 0xFF) >
     ec2:	81 89       	ldd	r24, Z+17	; 0x11
     ec4:	90 e0       	ldi	r25, 0x00	; 0
     ec6:	82 17       	cp	r24, r18
     ec8:	93 07       	cpc	r25, r19
     eca:	c0 f1       	brcs	.+112    	; 0xf3c <udc_process_setup+0x38c>
			return false;
		}
	}

	// Reset current configuration
	udc_reset();
     ecc:	1b de       	rcall	.-970    	; 0xb04 <udc_reset>

	// Enable new configuration
	udc_num_configuration = udd_g_ctrlreq.req.wValue & 0xFF;
     ece:	80 91 73 25 	lds	r24, 0x2573
     ed2:	90 91 74 25 	lds	r25, 0x2574
     ed6:	80 93 32 24 	sts	0x2432, r24
	if (udc_num_configuration == 0) {
     eda:	88 23       	and	r24, r24
     edc:	89 f1       	breq	.+98     	; 0xf40 <udc_process_setup+0x390>
		udc_ptr_conf = &udc_config.conf_hs[udc_num_configuration - 1];
	} else
#endif
	{
		// FS descriptor
		udc_ptr_conf = &udc_config.conf_lsfs[udc_num_configuration - 1];
     ede:	99 27       	eor	r25, r25
     ee0:	81 50       	subi	r24, 0x01	; 1
     ee2:	90 4c       	sbci	r25, 0xC0	; 192
     ee4:	88 0f       	add	r24, r24
     ee6:	99 1f       	adc	r25, r25
     ee8:	88 0f       	add	r24, r24
     eea:	99 1f       	adc	r25, r25
     eec:	e0 91 36 20 	lds	r30, 0x2036
     ef0:	f0 91 37 20 	lds	r31, 0x2037
     ef4:	e8 0f       	add	r30, r24
     ef6:	f9 1f       	adc	r31, r25
     ef8:	e0 93 30 24 	sts	0x2430, r30
     efc:	f0 93 31 24 	sts	0x2431, r31
	}
	// Enable all interfaces of the selected configuration
	for (iface_num = 0; iface_num < udc_ptr_conf->desc->bNumInterfaces;
     f00:	01 90       	ld	r0, Z+
     f02:	f0 81       	ld	r31, Z
     f04:	e0 2d       	mov	r30, r0
     f06:	84 81       	ldd	r24, Z+4	; 0x04
     f08:	88 23       	and	r24, r24
     f0a:	e1 f0       	breq	.+56     	; 0xf44 <udc_process_setup+0x394>
     f0c:	c0 e0       	ldi	r28, 0x00	; 0
			iface_num++) {
		if (!udc_iface_enable(iface_num, 0)) {
     f0e:	60 e0       	ldi	r22, 0x00	; 0
     f10:	8c 2f       	mov	r24, r28
     f12:	c2 dd       	rcall	.-1148   	; 0xa98 <udc_iface_enable>
     f14:	08 2f       	mov	r16, r24
     f16:	88 23       	and	r24, r24
     f18:	09 f4       	brne	.+2      	; 0xf1c <udc_process_setup+0x36c>
     f1a:	77 c0       	rjmp	.+238    	; 0x100a <udc_process_setup+0x45a>
		// FS descriptor
		udc_ptr_conf = &udc_config.conf_lsfs[udc_num_configuration - 1];
	}
	// Enable all interfaces of the selected configuration
	for (iface_num = 0; iface_num < udc_ptr_conf->desc->bNumInterfaces;
			iface_num++) {
     f1c:	cf 5f       	subi	r28, 0xFF	; 255
	{
		// FS descriptor
		udc_ptr_conf = &udc_config.conf_lsfs[udc_num_configuration - 1];
	}
	// Enable all interfaces of the selected configuration
	for (iface_num = 0; iface_num < udc_ptr_conf->desc->bNumInterfaces;
     f1e:	e0 91 30 24 	lds	r30, 0x2430
     f22:	f0 91 31 24 	lds	r31, 0x2431
     f26:	01 90       	ld	r0, Z+
     f28:	f0 81       	ld	r31, Z
     f2a:	e0 2d       	mov	r30, r0
     f2c:	84 81       	ldd	r24, Z+4	; 0x04
     f2e:	c8 17       	cp	r28, r24
     f30:	70 f3       	brcs	.-36     	; 0xf0e <udc_process_setup+0x35e>
     f32:	6b c0       	rjmp	.+214    	; 0x100a <udc_process_setup+0x45a>
{
	uint8_t iface_num;

	// Check request length
	if (udd_g_ctrlreq.req.wLength) {
		return false;
     f34:	00 e0       	ldi	r16, 0x00	; 0
     f36:	69 c0       	rjmp	.+210    	; 0x100a <udc_process_setup+0x45a>
	}
	// Authorize configuration only if the address is valid
	if (!udd_getaddress()) {
		return false;
     f38:	00 e0       	ldi	r16, 0x00	; 0
     f3a:	67 c0       	rjmp	.+206    	; 0x100a <udc_process_setup+0x45a>
#endif
	{
		// FS descriptor
		if ((udd_g_ctrlreq.req.wValue & 0xFF) >
				udc_config.confdev_lsfs->bNumConfigurations) {
			return false;
     f3c:	00 e0       	ldi	r16, 0x00	; 0
     f3e:	65 c0       	rjmp	.+202    	; 0x100a <udc_process_setup+0x45a>
	udc_reset();

	// Enable new configuration
	udc_num_configuration = udd_g_ctrlreq.req.wValue & 0xFF;
	if (udc_num_configuration == 0) {
		return true; // Default empty configuration requested
     f40:	01 e0       	ldi	r16, 0x01	; 1
     f42:	63 c0       	rjmp	.+198    	; 0x100a <udc_process_setup+0x45a>
			iface_num++) {
		if (!udc_iface_enable(iface_num, 0)) {
			return false;
		}
	}
	return true;
     f44:	01 e0       	ldi	r16, 0x01	; 1
     f46:	61 c0       	rjmp	.+194    	; 0x100a <udc_process_setup+0x45a>
			default:
				break;
			}
		}

		if (USB_REQ_RECIP_INTERFACE == Udd_setup_recipient()) {
     f48:	21 30       	cpi	r18, 0x01	; 1
     f4a:	09 f5       	brne	.+66     	; 0xf8e <udc_process_setup+0x3de>
			// Standard Set Interface request
			switch (udd_g_ctrlreq.req.bRequest) {
     f4c:	80 91 72 25 	lds	r24, 0x2572
     f50:	8b 30       	cpi	r24, 0x0B	; 11
     f52:	e9 f4       	brne	.+58     	; 0xf8e <udc_process_setup+0x3de>
 */
static bool udc_req_std_iface_set_setting(void)
{
	uint8_t iface_num, setting_num;

	if (udd_g_ctrlreq.req.wLength) {
     f54:	80 91 77 25 	lds	r24, 0x2577
     f58:	90 91 78 25 	lds	r25, 0x2578
     f5c:	89 2b       	or	r24, r25
     f5e:	99 f4       	brne	.+38     	; 0xf86 <udc_process_setup+0x3d6>
		return false; // Error in request
	}
	if (!udc_num_configuration) {
     f60:	80 91 32 24 	lds	r24, 0x2432
     f64:	88 23       	and	r24, r24
     f66:	89 f0       	breq	.+34     	; 0xf8a <udc_process_setup+0x3da>
		return false; // The device is not is configured state yet
	}

	iface_num = udd_g_ctrlreq.req.wIndex & 0xFF;
     f68:	c0 91 75 25 	lds	r28, 0x2575
	setting_num = udd_g_ctrlreq.req.wValue & 0xFF;
     f6c:	d0 91 73 25 	lds	r29, 0x2573

	// Disable current setting
	if (!udc_iface_disable(iface_num)) {
     f70:	8c 2f       	mov	r24, r28
     f72:	50 dd       	rcall	.-1376   	; 0xa14 <udc_iface_disable>
     f74:	08 2f       	mov	r16, r24
     f76:	88 23       	and	r24, r24
     f78:	09 f4       	brne	.+2      	; 0xf7c <udc_process_setup+0x3cc>
     f7a:	47 c0       	rjmp	.+142    	; 0x100a <udc_process_setup+0x45a>
		return false;
	}

	// Enable new setting
	return udc_iface_enable(iface_num, setting_num);
     f7c:	6d 2f       	mov	r22, r29
     f7e:	8c 2f       	mov	r24, r28
     f80:	8b dd       	rcall	.-1258   	; 0xa98 <udc_iface_enable>
     f82:	08 2f       	mov	r16, r24
     f84:	42 c0       	rjmp	.+132    	; 0x100a <udc_process_setup+0x45a>
static bool udc_req_std_iface_set_setting(void)
{
	uint8_t iface_num, setting_num;

	if (udd_g_ctrlreq.req.wLength) {
		return false; // Error in request
     f86:	00 e0       	ldi	r16, 0x00	; 0
     f88:	40 c0       	rjmp	.+128    	; 0x100a <udc_process_setup+0x45a>
	}
	if (!udc_num_configuration) {
		return false; // The device is not is configured state yet
     f8a:	00 e0       	ldi	r16, 0x00	; 0
     f8c:	3e c0       	rjmp	.+124    	; 0x100a <udc_process_setup+0x45a>
			default:
				break;
			}
		}
#if (0!=USB_DEVICE_MAX_EP)
		if (USB_REQ_RECIP_ENDPOINT == Udd_setup_recipient()) {
     f8e:	22 30       	cpi	r18, 0x02	; 2
     f90:	09 f0       	breq	.+2      	; 0xf94 <udc_process_setup+0x3e4>
     f92:	3d c0       	rjmp	.+122    	; 0x100e <udc_process_setup+0x45e>
			// Standard Set Endpoint request
			switch (udd_g_ctrlreq.req.bRequest) {
     f94:	80 91 72 25 	lds	r24, 0x2572
     f98:	81 30       	cpi	r24, 0x01	; 1
     f9a:	19 f0       	breq	.+6      	; 0xfa2 <udc_process_setup+0x3f2>
     f9c:	83 30       	cpi	r24, 0x03	; 3
     f9e:	b1 f0       	breq	.+44     	; 0xfcc <udc_process_setup+0x41c>
     fa0:	33 c0       	rjmp	.+102    	; 0x1008 <udc_process_setup+0x458>
 *
 * \return true if success
 */
static bool udc_req_std_ep_clear_feature(void)
{
	if (udd_g_ctrlreq.req.wLength) {
     fa2:	80 91 77 25 	lds	r24, 0x2577
     fa6:	90 91 78 25 	lds	r25, 0x2578
     faa:	89 2b       	or	r24, r25
     fac:	59 f4       	brne	.+22     	; 0xfc4 <udc_process_setup+0x414>
		return false;
	}

	if (udd_g_ctrlreq.req.wValue == USB_EP_FEATURE_HALT) {
     fae:	80 91 73 25 	lds	r24, 0x2573
     fb2:	90 91 74 25 	lds	r25, 0x2574
     fb6:	89 2b       	or	r24, r25
     fb8:	39 f4       	brne	.+14     	; 0xfc8 <udc_process_setup+0x418>
		return udd_ep_clear_halt(udd_g_ctrlreq.req.wIndex & 0xFF);
     fba:	80 91 75 25 	lds	r24, 0x2575
     fbe:	a2 d7       	rcall	.+3908   	; 0x1f04 <udd_ep_clear_halt>
     fc0:	08 2f       	mov	r16, r24
     fc2:	23 c0       	rjmp	.+70     	; 0x100a <udc_process_setup+0x45a>
 * \return true if success
 */
static bool udc_req_std_ep_clear_feature(void)
{
	if (udd_g_ctrlreq.req.wLength) {
		return false;
     fc4:	00 e0       	ldi	r16, 0x00	; 0
     fc6:	21 c0       	rjmp	.+66     	; 0x100a <udc_process_setup+0x45a>
	}

	if (udd_g_ctrlreq.req.wValue == USB_EP_FEATURE_HALT) {
		return udd_ep_clear_halt(udd_g_ctrlreq.req.wIndex & 0xFF);
	}
	return false;
     fc8:	00 e0       	ldi	r16, 0x00	; 0
     fca:	1f c0       	rjmp	.+62     	; 0x100a <udc_process_setup+0x45a>
 * \return true if success
 */
#if (0!=USB_DEVICE_MAX_EP)
static bool udc_req_std_ep_set_feature(void)
{
	if (udd_g_ctrlreq.req.wLength) {
     fcc:	80 91 77 25 	lds	r24, 0x2577
     fd0:	90 91 78 25 	lds	r25, 0x2578
     fd4:	89 2b       	or	r24, r25
     fd6:	81 f4       	brne	.+32     	; 0xff8 <udc_process_setup+0x448>
		return false;
	}
	if (udd_g_ctrlreq.req.wValue == USB_EP_FEATURE_HALT) {
     fd8:	80 91 73 25 	lds	r24, 0x2573
     fdc:	90 91 74 25 	lds	r25, 0x2574
     fe0:	89 2b       	or	r24, r25
     fe2:	61 f4       	brne	.+24     	; 0xffc <udc_process_setup+0x44c>
		udd_ep_abort(udd_g_ctrlreq.req.wIndex & 0xFF);
     fe4:	c5 e7       	ldi	r28, 0x75	; 117
     fe6:	d5 e2       	ldi	r29, 0x25	; 37
     fe8:	88 81       	ld	r24, Y
     fea:	0e 94 34 10 	call	0x2068	; 0x2068 <udd_ep_abort>
		return udd_ep_set_halt(udd_g_ctrlreq.req.wIndex & 0xFF);
     fee:	88 81       	ld	r24, Y
     ff0:	0e 94 8a 10 	call	0x2114	; 0x2114 <udd_ep_set_halt>
     ff4:	08 2f       	mov	r16, r24
     ff6:	09 c0       	rjmp	.+18     	; 0x100a <udc_process_setup+0x45a>
 */
#if (0!=USB_DEVICE_MAX_EP)
static bool udc_req_std_ep_set_feature(void)
{
	if (udd_g_ctrlreq.req.wLength) {
		return false;
     ff8:	00 e0       	ldi	r16, 0x00	; 0
     ffa:	07 c0       	rjmp	.+14     	; 0x100a <udc_process_setup+0x45a>
	}
	if (udd_g_ctrlreq.req.wValue == USB_EP_FEATURE_HALT) {
		udd_ep_abort(udd_g_ctrlreq.req.wIndex & 0xFF);
		return udd_ep_set_halt(udd_g_ctrlreq.req.wIndex & 0xFF);
	}
	return false;
     ffc:	00 e0       	ldi	r16, 0x00	; 0
     ffe:	05 c0       	rjmp	.+10     	; 0x100a <udc_process_setup+0x45a>
				break;
			}
		}
#endif
	}
	return false;
    1000:	00 e0       	ldi	r16, 0x00	; 0
    1002:	03 c0       	rjmp	.+6      	; 0x100a <udc_process_setup+0x45a>
			case USB_REQ_SET_ADDRESS:
				return udc_req_std_dev_set_address();
			case USB_REQ_CLEAR_FEATURE:
				return udc_req_std_dev_clear_feature();
			case USB_REQ_SET_FEATURE:
				return udc_req_std_dev_set_feature();
    1004:	00 e0       	ldi	r16, 0x00	; 0
    1006:	01 c0       	rjmp	.+2      	; 0x100a <udc_process_setup+0x45a>
				break;
			}
		}
#endif
	}
	return false;
    1008:	00 e0       	ldi	r16, 0x00	; 0
		}
	}

	// If standard request then try to decode it in UDC
	if (Udd_setup_type() == USB_REQ_TYPE_STANDARD) {
		if (udc_reqstd()) {
    100a:	01 11       	cpse	r16, r1
    100c:	91 c0       	rjmp	.+290    	; 0x1130 <udc_process_setup+0x580>
			return true;
		}
	}

	// If interface request then try to decode it in UDI
	if (Udd_setup_recipient() == USB_REQ_RECIP_INTERFACE) {
    100e:	80 91 71 25 	lds	r24, 0x2571
    1012:	8f 71       	andi	r24, 0x1F	; 31
    1014:	81 30       	cpi	r24, 0x01	; 1
    1016:	c1 f5       	brne	.+112    	; 0x1088 <udc_process_setup+0x4d8>
static bool udc_req_iface(void)
{
	uint8_t iface_num;
	udi_api_t UDC_DESC_STORAGE *udi_api;

	if (0 == udc_num_configuration) {
    1018:	80 91 32 24 	lds	r24, 0x2432
    101c:	88 23       	and	r24, r24
    101e:	a1 f1       	breq	.+104    	; 0x1088 <udc_process_setup+0x4d8>
		return false; // The device is not is configured state yet
	}
	// Check interface number
	iface_num = udd_g_ctrlreq.req.wIndex & 0xFF;
    1020:	c0 91 75 25 	lds	r28, 0x2575
    1024:	d0 91 76 25 	lds	r29, 0x2576
	if (iface_num >= udc_ptr_conf->desc->bNumInterfaces) {
    1028:	00 91 30 24 	lds	r16, 0x2430
    102c:	10 91 31 24 	lds	r17, 0x2431
    1030:	d8 01       	movw	r26, r16
    1032:	ed 91       	ld	r30, X+
    1034:	fc 91       	ld	r31, X
    1036:	84 81       	ldd	r24, Z+4	; 0x04
    1038:	c8 17       	cp	r28, r24
    103a:	30 f5       	brcc	.+76     	; 0x1088 <udc_process_setup+0x4d8>
	}

	//* To update udc_ptr_iface with the selected interface in request
	// Select first alternate setting of interface to update udc_ptr_iface
	// before calling udi_api->getsetting()
	if (!udc_update_iface_desc(iface_num, 0)) {
    103c:	60 e0       	ldi	r22, 0x00	; 0
    103e:	8c 2f       	mov	r24, r28
    1040:	af dc       	rcall	.-1698   	; 0x9a0 <udc_update_iface_desc>
    1042:	88 23       	and	r24, r24
    1044:	09 f1       	breq	.+66     	; 0x1088 <udc_process_setup+0x4d8>
		return false;
	}
	// Select the interface with the current alternate setting
	udi_api = udc_ptr_conf->udi_apis[iface_num];
    1046:	ce 01       	movw	r24, r28
    1048:	99 27       	eor	r25, r25
    104a:	88 0f       	add	r24, r24
    104c:	99 1f       	adc	r25, r25
    104e:	d8 01       	movw	r26, r16
    1050:	12 96       	adiw	r26, 0x02	; 2
    1052:	ed 91       	ld	r30, X+
    1054:	fc 91       	ld	r31, X
    1056:	13 97       	sbiw	r26, 0x03	; 3
    1058:	e8 0f       	add	r30, r24
    105a:	f9 1f       	adc	r31, r25
    105c:	00 81       	ld	r16, Z
    105e:	11 81       	ldd	r17, Z+1	; 0x01
	if (!udc_update_iface_desc(iface_num, udi_api->getsetting())) {
    1060:	d8 01       	movw	r26, r16
    1062:	16 96       	adiw	r26, 0x06	; 6
    1064:	ed 91       	ld	r30, X+
    1066:	fc 91       	ld	r31, X
    1068:	17 97       	sbiw	r26, 0x07	; 7
    106a:	09 95       	icall
    106c:	68 2f       	mov	r22, r24
    106e:	8c 2f       	mov	r24, r28
    1070:	97 dc       	rcall	.-1746   	; 0x9a0 <udc_update_iface_desc>
    1072:	88 23       	and	r24, r24
    1074:	49 f0       	breq	.+18     	; 0x1088 <udc_process_setup+0x4d8>
		return false;
	}

	// Send the SETUP request to the UDI corresponding to the interface number
	return udi_api->setup();
    1076:	d8 01       	movw	r26, r16
    1078:	14 96       	adiw	r26, 0x04	; 4
    107a:	ed 91       	ld	r30, X+
    107c:	fc 91       	ld	r31, X
    107e:	15 97       	sbiw	r26, 0x05	; 5
    1080:	09 95       	icall
    1082:	08 2f       	mov	r16, r24
		}
	}

	// If interface request then try to decode it in UDI
	if (Udd_setup_recipient() == USB_REQ_RECIP_INTERFACE) {
		if (udc_req_iface()) {
    1084:	81 11       	cpse	r24, r1
    1086:	54 c0       	rjmp	.+168    	; 0x1130 <udc_process_setup+0x580>
			return true;
		}
	}

	// If endpoint request then try to decode it in UDI
	if (Udd_setup_recipient() == USB_REQ_RECIP_ENDPOINT) {
    1088:	80 91 71 25 	lds	r24, 0x2571
    108c:	8f 71       	andi	r24, 0x1F	; 31
    108e:	82 30       	cpi	r24, 0x02	; 2
    1090:	d9 f5       	brne	.+118    	; 0x1108 <udc_process_setup+0x558>
static bool udc_req_ep(void)
{
	uint8_t iface_num;
	udi_api_t UDC_DESC_STORAGE *udi_api;

	if (0 == udc_num_configuration) {
    1092:	80 91 32 24 	lds	r24, 0x2432
    1096:	88 23       	and	r24, r24
    1098:	89 f1       	breq	.+98     	; 0x10fc <udc_process_setup+0x54c>
		return false; // The device is not is configured state yet
	}
	// Send this request on all enabled interfaces
	iface_num = udd_g_ctrlreq.req.wIndex & 0xFF;
	for (iface_num = 0; iface_num < udc_ptr_conf->desc->bNumInterfaces;
    109a:	e0 91 30 24 	lds	r30, 0x2430
    109e:	f0 91 31 24 	lds	r31, 0x2431
    10a2:	a0 81       	ld	r26, Z
    10a4:	b1 81       	ldd	r27, Z+1	; 0x01
    10a6:	14 96       	adiw	r26, 0x04	; 4
    10a8:	8c 91       	ld	r24, X
    10aa:	88 23       	and	r24, r24
    10ac:	49 f1       	breq	.+82     	; 0x1100 <udc_process_setup+0x550>
    10ae:	10 e0       	ldi	r17, 0x00	; 0
			iface_num++) {
		// Select the interface with the current alternate setting
		udi_api = udc_ptr_conf->udi_apis[iface_num];
    10b0:	21 2f       	mov	r18, r17
    10b2:	30 e0       	ldi	r19, 0x00	; 0
    10b4:	22 0f       	add	r18, r18
    10b6:	33 1f       	adc	r19, r19
    10b8:	02 80       	ldd	r0, Z+2	; 0x02
    10ba:	f3 81       	ldd	r31, Z+3	; 0x03
    10bc:	e0 2d       	mov	r30, r0
    10be:	e2 0f       	add	r30, r18
    10c0:	f3 1f       	adc	r31, r19
    10c2:	c0 81       	ld	r28, Z
    10c4:	d1 81       	ldd	r29, Z+1	; 0x01
		if (!udc_update_iface_desc(iface_num, udi_api->getsetting())) {
    10c6:	ee 81       	ldd	r30, Y+6	; 0x06
    10c8:	ff 81       	ldd	r31, Y+7	; 0x07
    10ca:	09 95       	icall
    10cc:	68 2f       	mov	r22, r24
    10ce:	81 2f       	mov	r24, r17
    10d0:	67 dc       	rcall	.-1842   	; 0x9a0 <udc_update_iface_desc>
    10d2:	08 2f       	mov	r16, r24
    10d4:	88 23       	and	r24, r24
    10d6:	61 f1       	breq	.+88     	; 0x1130 <udc_process_setup+0x580>
			return false;
		}

		// Send the SETUP request to the UDI
		if (udi_api->setup()) {
    10d8:	ec 81       	ldd	r30, Y+4	; 0x04
    10da:	fd 81       	ldd	r31, Y+5	; 0x05
    10dc:	09 95       	icall
    10de:	08 2f       	mov	r16, r24
    10e0:	81 11       	cpse	r24, r1
    10e2:	26 c0       	rjmp	.+76     	; 0x1130 <udc_process_setup+0x580>
		return false; // The device is not is configured state yet
	}
	// Send this request on all enabled interfaces
	iface_num = udd_g_ctrlreq.req.wIndex & 0xFF;
	for (iface_num = 0; iface_num < udc_ptr_conf->desc->bNumInterfaces;
			iface_num++) {
    10e4:	1f 5f       	subi	r17, 0xFF	; 255
	if (0 == udc_num_configuration) {
		return false; // The device is not is configured state yet
	}
	// Send this request on all enabled interfaces
	iface_num = udd_g_ctrlreq.req.wIndex & 0xFF;
	for (iface_num = 0; iface_num < udc_ptr_conf->desc->bNumInterfaces;
    10e6:	e0 91 30 24 	lds	r30, 0x2430
    10ea:	f0 91 31 24 	lds	r31, 0x2431
    10ee:	a0 81       	ld	r26, Z
    10f0:	b1 81       	ldd	r27, Z+1	; 0x01
    10f2:	14 96       	adiw	r26, 0x04	; 4
    10f4:	8c 91       	ld	r24, X
    10f6:	18 17       	cp	r17, r24
    10f8:	d8 f2       	brcs	.-74     	; 0x10b0 <udc_process_setup+0x500>
    10fa:	1a c0       	rjmp	.+52     	; 0x1130 <udc_process_setup+0x580>
{
	uint8_t iface_num;
	udi_api_t UDC_DESC_STORAGE *udi_api;

	if (0 == udc_num_configuration) {
		return false; // The device is not is configured state yet
    10fc:	00 e0       	ldi	r16, 0x00	; 0
    10fe:	18 c0       	rjmp	.+48     	; 0x1130 <udc_process_setup+0x580>
		// Send the SETUP request to the UDI
		if (udi_api->setup()) {
			return true;
		}
	}
	return false;
    1100:	00 e0       	ldi	r16, 0x00	; 0
    1102:	16 c0       	rjmp	.+44     	; 0x1130 <udc_process_setup+0x580>
	udd_g_ctrlreq.callback = NULL;
	udd_g_ctrlreq.over_under_run = NULL;

	if (Udd_setup_is_in()) {
		if (udd_g_ctrlreq.req.wLength == 0) {
			return false; // Error from USB host
    1104:	00 e0       	ldi	r16, 0x00	; 0
    1106:	14 c0       	rjmp	.+40     	; 0x1130 <udc_process_setup+0x580>
	// Here SETUP request unknown by UDC and UDIs
#ifdef USB_DEVICE_SPECIFIC_REQUEST
	// Try to decode it in specific callback
	return USB_DEVICE_SPECIFIC_REQUEST(); // Ex: Vendor request,...
#else
	return false;
    1108:	00 e0       	ldi	r16, 0x00	; 0
    110a:	12 c0       	rjmp	.+36     	; 0x1130 <udc_process_setup+0x580>
			return false; // Error from USB host
		}
	}

	// If standard request then try to decode it in UDC
	if (Udd_setup_type() == USB_REQ_TYPE_STANDARD) {
    110c:	82 2f       	mov	r24, r18
    110e:	80 76       	andi	r24, 0x60	; 96
    1110:	09 f0       	breq	.+2      	; 0x1114 <udc_process_setup+0x564>
    1112:	7d cf       	rjmp	.-262    	; 0x100e <udc_process_setup+0x45e>
    1114:	86 ce       	rjmp	.-756    	; 0xe22 <udc_process_setup+0x272>
    1116:	32 2f       	mov	r19, r18
    1118:	30 76       	andi	r19, 0x60	; 96
    111a:	09 f0       	breq	.+2      	; 0x111e <udc_process_setup+0x56e>
    111c:	78 cf       	rjmp	.-272    	; 0x100e <udc_process_setup+0x45e>
    111e:	67 cd       	rjmp	.-1330   	; 0xbee <udc_process_setup+0x3e>
		str = udc_string_manufacturer_name;
		break;
#endif
#ifdef USB_DEVICE_PRODUCT_NAME
	case 2:
		str_length = USB_DEVICE_PRODUCT_NAME_SIZE;
    1120:	26 e0       	ldi	r18, 0x06	; 6
		str = udc_string_product_name;
    1122:	82 e2       	ldi	r24, 0x22	; 34
    1124:	90 e2       	ldi	r25, 0x20	; 32
    1126:	e1 cd       	rjmp	.-1086   	; 0xcea <udc_process_setup+0x13a>
		break;
#endif
#if defined USB_DEVICE_SERIAL_NAME || defined USB_DEVICE_GET_SERIAL_NAME_POINTER
	case 3:
		str_length = USB_DEVICE_SERIAL_NAME_SIZE;
    1128:	24 e0       	ldi	r18, 0x04	; 4
		str = udc_get_string_serial_name();
    112a:	80 e8       	ldi	r24, 0x80	; 128
    112c:	91 e2       	ldi	r25, 0x21	; 33
    112e:	dd cd       	rjmp	.-1094   	; 0xcea <udc_process_setup+0x13a>
	// Try to decode it in specific callback
	return USB_DEVICE_SPECIFIC_REQUEST(); // Ex: Vendor request,...
#else
	return false;
#endif
}
    1130:	80 2f       	mov	r24, r16
    1132:	df 91       	pop	r29
    1134:	cf 91       	pop	r28
    1136:	1f 91       	pop	r17
    1138:	0f 91       	pop	r16
    113a:	ff 90       	pop	r15
    113c:	ef 90       	pop	r14
    113e:	08 95       	ret

00001140 <spi_xmega_set_baud_div>:
 * \return Status of operation.
 *   \retval >=0  Success.
 *   \retval  <0  Error.
 */
int8_t spi_xmega_set_baud_div(SPI_t *spi, uint32_t baudrate, uint32_t clkper_hz)
{
    1140:	cf 92       	push	r12
    1142:	df 92       	push	r13
    1144:	ef 92       	push	r14
    1146:	ff 92       	push	r15
    1148:	0f 93       	push	r16
    114a:	1f 93       	push	r17
    114c:	cf 93       	push	r28
    114e:	df 93       	push	r29
    1150:	ec 01       	movw	r28, r24
    1152:	6a 01       	movw	r12, r20
    1154:	7b 01       	movw	r14, r22

	/*
	 * Get wanted divisor rounded up so we don't get speed higher than
	 * requested baudrate.
	 */
	divisor = (clkper_hz + baudrate - 1) / baudrate;
    1156:	db 01       	movw	r26, r22
    1158:	ca 01       	movw	r24, r20
    115a:	01 97       	sbiw	r24, 0x01	; 1
    115c:	a1 09       	sbc	r26, r1
    115e:	b1 09       	sbc	r27, r1
    1160:	bc 01       	movw	r22, r24
    1162:	cd 01       	movw	r24, r26
    1164:	60 0f       	add	r22, r16
    1166:	71 1f       	adc	r23, r17
    1168:	82 1f       	adc	r24, r18
    116a:	93 1f       	adc	r25, r19
    116c:	a7 01       	movw	r20, r14
    116e:	96 01       	movw	r18, r12
    1170:	0e 94 15 21 	call	0x422a	; 0x422a <__udivmodsi4>

	if (divisor > 128) {
    1174:	21 38       	cpi	r18, 0x81	; 129
    1176:	31 05       	cpc	r19, r1
    1178:	41 05       	cpc	r20, r1
    117a:	51 05       	cpc	r21, r1
    117c:	f8 f4       	brcc	.+62     	; 0x11bc <spi_xmega_set_baud_div+0x7c>

	/*
	 * For divisor values between the possible ones round up to the closest
	 * higher one to avoid higher baudrate than requested.
	 */
	if (divisor_8bit > 64) {
    117e:	21 34       	cpi	r18, 0x41	; 65
    1180:	60 f4       	brcc	.+24     	; 0x119a <spi_xmega_set_baud_div+0x5a>
		ctrl = SPI_PRESCALER_DIV128_gc;
	}
	else if (divisor_8bit > 32) {
    1182:	21 32       	cpi	r18, 0x21	; 33
    1184:	60 f4       	brcc	.+24     	; 0x119e <spi_xmega_set_baud_div+0x5e>
		ctrl = SPI_PRESCALER_DIV64_gc;
	}
	else if (divisor_8bit > 16) {
    1186:	21 31       	cpi	r18, 0x11	; 17
    1188:	60 f4       	brcc	.+24     	; 0x11a2 <spi_xmega_set_baud_div+0x62>
		ctrl = SPI_CLK2X_bm | SPI_PRESCALER_DIV64_gc;
	}
	else if (divisor_8bit > 8) {
    118a:	29 30       	cpi	r18, 0x09	; 9
    118c:	60 f4       	brcc	.+24     	; 0x11a6 <spi_xmega_set_baud_div+0x66>
		ctrl = SPI_PRESCALER_DIV16_gc;
	}
	else if (divisor_8bit > 4) {
    118e:	25 30       	cpi	r18, 0x05	; 5
    1190:	60 f4       	brcc	.+24     	; 0x11aa <spi_xmega_set_baud_div+0x6a>
		ctrl = SPI_CLK2X_bm | SPI_PRESCALER_DIV16_gc;
	}
	else if (divisor_8bit > 2) {
    1192:	23 30       	cpi	r18, 0x03	; 3
    1194:	60 f0       	brcs	.+24     	; 0x11ae <spi_xmega_set_baud_div+0x6e>
		ctrl = SPI_PRESCALER_DIV4_gc;
    1196:	90 e0       	ldi	r25, 0x00	; 0
    1198:	0b c0       	rjmp	.+22     	; 0x11b0 <spi_xmega_set_baud_div+0x70>
	/*
	 * For divisor values between the possible ones round up to the closest
	 * higher one to avoid higher baudrate than requested.
	 */
	if (divisor_8bit > 64) {
		ctrl = SPI_PRESCALER_DIV128_gc;
    119a:	93 e0       	ldi	r25, 0x03	; 3
    119c:	09 c0       	rjmp	.+18     	; 0x11b0 <spi_xmega_set_baud_div+0x70>
	}
	else if (divisor_8bit > 32) {
		ctrl = SPI_PRESCALER_DIV64_gc;
    119e:	92 e0       	ldi	r25, 0x02	; 2
    11a0:	07 c0       	rjmp	.+14     	; 0x11b0 <spi_xmega_set_baud_div+0x70>
	}
	else if (divisor_8bit > 16) {
		ctrl = SPI_CLK2X_bm | SPI_PRESCALER_DIV64_gc;
    11a2:	92 e8       	ldi	r25, 0x82	; 130
    11a4:	05 c0       	rjmp	.+10     	; 0x11b0 <spi_xmega_set_baud_div+0x70>
	}
	else if (divisor_8bit > 8) {
		ctrl = SPI_PRESCALER_DIV16_gc;
    11a6:	91 e0       	ldi	r25, 0x01	; 1
    11a8:	03 c0       	rjmp	.+6      	; 0x11b0 <spi_xmega_set_baud_div+0x70>
	}
	else if (divisor_8bit > 4) {
		ctrl = SPI_CLK2X_bm | SPI_PRESCALER_DIV16_gc;
    11aa:	91 e8       	ldi	r25, 0x81	; 129
    11ac:	01 c0       	rjmp	.+2      	; 0x11b0 <spi_xmega_set_baud_div+0x70>
	}
	else if (divisor_8bit > 2) {
		ctrl = SPI_PRESCALER_DIV4_gc;
	}
	else {
		ctrl = SPI_CLK2X_bm | SPI_PRESCALER_DIV4_gc;
    11ae:	90 e8       	ldi	r25, 0x80	; 128
	}

	// Update register and make sure to clear out any leftover bits
	spi->CTRL = (spi->CTRL & ~(SPI_CLK2X_bm | SPI_PRESCALER_gm)) | ctrl;
    11b0:	88 81       	ld	r24, Y
    11b2:	8c 77       	andi	r24, 0x7C	; 124
    11b4:	89 2b       	or	r24, r25
    11b6:	88 83       	st	Y, r24

	return 1;
    11b8:	81 e0       	ldi	r24, 0x01	; 1
    11ba:	01 c0       	rjmp	.+2      	; 0x11be <spi_xmega_set_baud_div+0x7e>
	if (divisor > 128) {
		/*
		 * Highest possible divisor is 128 so fail since we can't get
		 * low enough baudrate.
		 */
		return -1;
    11bc:	8f ef       	ldi	r24, 0xFF	; 255

	// Update register and make sure to clear out any leftover bits
	spi->CTRL = (spi->CTRL & ~(SPI_CLK2X_bm | SPI_PRESCALER_gm)) | ctrl;

	return 1;
}
    11be:	df 91       	pop	r29
    11c0:	cf 91       	pop	r28
    11c2:	1f 91       	pop	r17
    11c4:	0f 91       	pop	r16
    11c6:	ff 90       	pop	r15
    11c8:	ef 90       	pop	r14
    11ca:	df 90       	pop	r13
    11cc:	cf 90       	pop	r12
    11ce:	08 95       	ret

000011d0 <twim_interrupt_handler>:
 * \brief Common TWI master interrupt service routine.
 *
 *  Check current status and calls the appropriate handler.
 */
static void twim_interrupt_handler(void)
{
    11d0:	cf 93       	push	r28
    11d2:	df 93       	push	r29
	uint8_t const master_status = transfer.bus->MASTER.STATUS;
    11d4:	e0 91 38 24 	lds	r30, 0x2438
    11d8:	f0 91 39 24 	lds	r31, 0x2439
    11dc:	84 81       	ldd	r24, Z+4	; 0x04

	if (master_status & TWI_MASTER_ARBLOST_bm) {
    11de:	83 ff       	sbrs	r24, 3
    11e0:	08 c0       	rjmp	.+16     	; 0x11f2 <twim_interrupt_handler+0x22>

		transfer.bus->MASTER.STATUS = master_status | TWI_MASTER_ARBLOST_bm;
    11e2:	88 60       	ori	r24, 0x08	; 8
    11e4:	84 83       	std	Z+4, r24	; 0x04
		transfer.bus->MASTER.CTRLC  = TWI_MASTER_CMD_STOP_gc;
    11e6:	83 e0       	ldi	r24, 0x03	; 3
    11e8:	83 83       	std	Z+3, r24	; 0x03
		transfer.status = ERR_BUSY;
    11ea:	86 ef       	ldi	r24, 0xF6	; 246
    11ec:	80 93 42 24 	sts	0x2442, r24
    11f0:	89 c0       	rjmp	.+274    	; 0x1304 <twim_interrupt_handler+0x134>
    11f2:	98 2f       	mov	r25, r24
    11f4:	94 71       	andi	r25, 0x14	; 20

	} else if ((master_status & TWI_MASTER_BUSERR_bm) ||
    11f6:	31 f0       	breq	.+12     	; 0x1204 <twim_interrupt_handler+0x34>
		(master_status & TWI_MASTER_RXACK_bm)) {

		transfer.bus->MASTER.CTRLC = TWI_MASTER_CMD_STOP_gc;
    11f8:	83 e0       	ldi	r24, 0x03	; 3
    11fa:	83 83       	std	Z+3, r24	; 0x03
		transfer.status = ERR_IO_ERROR;
    11fc:	8f ef       	ldi	r24, 0xFF	; 255
    11fe:	80 93 42 24 	sts	0x2442, r24
    1202:	80 c0       	rjmp	.+256    	; 0x1304 <twim_interrupt_handler+0x134>

	} else if (master_status & TWI_MASTER_WIF_bm) {
    1204:	86 ff       	sbrs	r24, 6
    1206:	45 c0       	rjmp	.+138    	; 0x1292 <twim_interrupt_handler+0xc2>
 *  Handles TWI transactions (master write) and responses to (N)ACK.
 */
static inline void twim_write_handler(void)
{
	TWI_t * const         bus = transfer.bus;
	twi_package_t * const pkg = transfer.pkg;
    1208:	a0 91 3a 24 	lds	r26, 0x243A
    120c:	b0 91 3b 24 	lds	r27, 0x243B

	if (transfer.addr_count < pkg->addr_length) {
    1210:	80 91 3c 24 	lds	r24, 0x243C
    1214:	90 91 3d 24 	lds	r25, 0x243D
    1218:	14 96       	adiw	r26, 0x04	; 4
    121a:	2d 91       	ld	r18, X+
    121c:	3c 91       	ld	r19, X
    121e:	15 97       	sbiw	r26, 0x05	; 5
    1220:	82 17       	cp	r24, r18
    1222:	93 07       	cpc	r25, r19
    1224:	6c f4       	brge	.+26     	; 0x1240 <twim_interrupt_handler+0x70>

		const uint8_t * const data = pkg->addr;
		bus->MASTER.DATA = data[transfer.addr_count++];
    1226:	9c 01       	movw	r18, r24
    1228:	2f 5f       	subi	r18, 0xFF	; 255
    122a:	3f 4f       	sbci	r19, 0xFF	; 255
    122c:	20 93 3c 24 	sts	0x243C, r18
    1230:	30 93 3d 24 	sts	0x243D, r19
    1234:	a8 0f       	add	r26, r24
    1236:	b9 1f       	adc	r27, r25
    1238:	11 96       	adiw	r26, 0x01	; 1
    123a:	8c 91       	ld	r24, X
    123c:	87 83       	std	Z+7, r24	; 0x07
    123e:	62 c0       	rjmp	.+196    	; 0x1304 <twim_interrupt_handler+0x134>

	} else if (transfer.data_count < pkg->length) {
    1240:	80 91 3e 24 	lds	r24, 0x243E
    1244:	90 91 3f 24 	lds	r25, 0x243F
    1248:	18 96       	adiw	r26, 0x08	; 8
    124a:	2d 91       	ld	r18, X+
    124c:	3c 91       	ld	r19, X
    124e:	19 97       	sbiw	r26, 0x09	; 9
    1250:	82 17       	cp	r24, r18
    1252:	93 07       	cpc	r25, r19
    1254:	c8 f4       	brcc	.+50     	; 0x1288 <twim_interrupt_handler+0xb8>

		if (transfer.read) {
    1256:	20 91 40 24 	lds	r18, 0x2440
    125a:	22 23       	and	r18, r18
    125c:	21 f0       	breq	.+8      	; 0x1266 <twim_interrupt_handler+0x96>

			/* Send repeated START condition (Address|R/W=1). */

			bus->MASTER.ADDR |= 0x01;
    125e:	86 81       	ldd	r24, Z+6	; 0x06
    1260:	81 60       	ori	r24, 0x01	; 1
    1262:	86 83       	std	Z+6, r24	; 0x06
    1264:	4f c0       	rjmp	.+158    	; 0x1304 <twim_interrupt_handler+0x134>

		} else {
			const uint8_t * const data = pkg->buffer;
    1266:	16 96       	adiw	r26, 0x06	; 6
    1268:	2d 91       	ld	r18, X+
    126a:	3c 91       	ld	r19, X
    126c:	17 97       	sbiw	r26, 0x07	; 7
			bus->MASTER.DATA = data[transfer.data_count++];
    126e:	ac 01       	movw	r20, r24
    1270:	4f 5f       	subi	r20, 0xFF	; 255
    1272:	5f 4f       	sbci	r21, 0xFF	; 255
    1274:	40 93 3e 24 	sts	0x243E, r20
    1278:	50 93 3f 24 	sts	0x243F, r21
    127c:	d9 01       	movw	r26, r18
    127e:	a8 0f       	add	r26, r24
    1280:	b9 1f       	adc	r27, r25
    1282:	8c 91       	ld	r24, X
    1284:	87 83       	std	Z+7, r24	; 0x07
    1286:	3e c0       	rjmp	.+124    	; 0x1304 <twim_interrupt_handler+0x134>

	} else {

		/* Send STOP condition to complete the transaction. */

		bus->MASTER.CTRLC = TWI_MASTER_CMD_STOP_gc;
    1288:	83 e0       	ldi	r24, 0x03	; 3
    128a:	83 83       	std	Z+3, r24	; 0x03
		transfer.status = STATUS_OK;
    128c:	10 92 42 24 	sts	0x2442, r1
    1290:	39 c0       	rjmp	.+114    	; 0x1304 <twim_interrupt_handler+0x134>

	} else if (master_status & TWI_MASTER_WIF_bm) {

		twim_write_handler();

	} else if (master_status & TWI_MASTER_RIF_bm) {
    1292:	88 23       	and	r24, r24
    1294:	a4 f5       	brge	.+104    	; 0x12fe <twim_interrupt_handler+0x12e>
 *  reading bytes from the TWI slave.
 */
static inline void twim_read_handler(void)
{
	TWI_t * const         bus = transfer.bus;
	twi_package_t * const pkg = transfer.pkg;
    1296:	a0 91 3a 24 	lds	r26, 0x243A
    129a:	b0 91 3b 24 	lds	r27, 0x243B

	if (transfer.data_count < pkg->length) {
    129e:	80 91 3e 24 	lds	r24, 0x243E
    12a2:	90 91 3f 24 	lds	r25, 0x243F
    12a6:	18 96       	adiw	r26, 0x08	; 8
    12a8:	2d 91       	ld	r18, X+
    12aa:	3c 91       	ld	r19, X
    12ac:	19 97       	sbiw	r26, 0x09	; 9
    12ae:	82 17       	cp	r24, r18
    12b0:	93 07       	cpc	r25, r19
    12b2:	f8 f4       	brcc	.+62     	; 0x12f2 <twim_interrupt_handler+0x122>

		uint8_t * const data = pkg->buffer;
    12b4:	16 96       	adiw	r26, 0x06	; 6
    12b6:	4d 91       	ld	r20, X+
    12b8:	5c 91       	ld	r21, X
    12ba:	17 97       	sbiw	r26, 0x07	; 7
		data[transfer.data_count++] = bus->MASTER.DATA;
    12bc:	9c 01       	movw	r18, r24
    12be:	2f 5f       	subi	r18, 0xFF	; 255
    12c0:	3f 4f       	sbci	r19, 0xFF	; 255
    12c2:	20 93 3e 24 	sts	0x243E, r18
    12c6:	30 93 3f 24 	sts	0x243F, r19
    12ca:	67 81       	ldd	r22, Z+7	; 0x07
    12cc:	ea 01       	movw	r28, r20
    12ce:	c8 0f       	add	r28, r24
    12d0:	d9 1f       	adc	r29, r25
    12d2:	68 83       	st	Y, r22

		/* If there is more to read, issue ACK and start a byte read.
		 * Otherwise, issue NACK and STOP to complete the transaction.
		 */
		if (transfer.data_count < pkg->length) {
    12d4:	18 96       	adiw	r26, 0x08	; 8
    12d6:	8d 91       	ld	r24, X+
    12d8:	9c 91       	ld	r25, X
    12da:	19 97       	sbiw	r26, 0x09	; 9
    12dc:	28 17       	cp	r18, r24
    12de:	39 07       	cpc	r19, r25
    12e0:	18 f4       	brcc	.+6      	; 0x12e8 <twim_interrupt_handler+0x118>

			bus->MASTER.CTRLC = TWI_MASTER_CMD_RECVTRANS_gc;
    12e2:	82 e0       	ldi	r24, 0x02	; 2
    12e4:	83 83       	std	Z+3, r24	; 0x03
    12e6:	0e c0       	rjmp	.+28     	; 0x1304 <twim_interrupt_handler+0x134>

		} else {

			bus->MASTER.CTRLC = TWI_MASTER_ACKACT_bm | TWI_MASTER_CMD_STOP_gc;
    12e8:	87 e0       	ldi	r24, 0x07	; 7
    12ea:	83 83       	std	Z+3, r24	; 0x03
			transfer.status = STATUS_OK;
    12ec:	10 92 42 24 	sts	0x2442, r1
    12f0:	09 c0       	rjmp	.+18     	; 0x1304 <twim_interrupt_handler+0x134>

	} else {

		/* Issue STOP and buffer overflow condition. */

		bus->MASTER.CTRLC = TWI_MASTER_CMD_STOP_gc;
    12f2:	83 e0       	ldi	r24, 0x03	; 3
    12f4:	83 83       	std	Z+3, r24	; 0x03
		transfer.status = ERR_NO_MEMORY;
    12f6:	89 ef       	ldi	r24, 0xF9	; 249
    12f8:	80 93 42 24 	sts	0x2442, r24
    12fc:	03 c0       	rjmp	.+6      	; 0x1304 <twim_interrupt_handler+0x134>

		twim_read_handler();

	} else {

		transfer.status = ERR_PROTOCOL;
    12fe:	8b ef       	ldi	r24, 0xFB	; 251
    1300:	80 93 42 24 	sts	0x2442, r24
	}
}
    1304:	df 91       	pop	r29
    1306:	cf 91       	pop	r28
    1308:	08 95       	ret

0000130a <__vector_13>:
 * parameters specified in the global \c transfer structure.
 */
static void twim_interrupt_handler(void);

#ifdef TWIC
ISR(TWIC_TWIM_vect) { twim_interrupt_handler(); }
    130a:	1f 92       	push	r1
    130c:	0f 92       	push	r0
    130e:	0f b6       	in	r0, 0x3f	; 63
    1310:	0f 92       	push	r0
    1312:	11 24       	eor	r1, r1
    1314:	2f 93       	push	r18
    1316:	3f 93       	push	r19
    1318:	4f 93       	push	r20
    131a:	5f 93       	push	r21
    131c:	6f 93       	push	r22
    131e:	7f 93       	push	r23
    1320:	8f 93       	push	r24
    1322:	9f 93       	push	r25
    1324:	af 93       	push	r26
    1326:	bf 93       	push	r27
    1328:	ef 93       	push	r30
    132a:	ff 93       	push	r31
    132c:	51 df       	rcall	.-350    	; 0x11d0 <twim_interrupt_handler>
    132e:	ff 91       	pop	r31
    1330:	ef 91       	pop	r30
    1332:	bf 91       	pop	r27
    1334:	af 91       	pop	r26
    1336:	9f 91       	pop	r25
    1338:	8f 91       	pop	r24
    133a:	7f 91       	pop	r23
    133c:	6f 91       	pop	r22
    133e:	5f 91       	pop	r21
    1340:	4f 91       	pop	r20
    1342:	3f 91       	pop	r19
    1344:	2f 91       	pop	r18
    1346:	0f 90       	pop	r0
    1348:	0f be       	out	0x3f, r0	; 63
    134a:	0f 90       	pop	r0
    134c:	1f 90       	pop	r1
    134e:	18 95       	reti

00001350 <__vector_46>:
#endif
#ifdef TWID
ISR(TWID_TWIM_vect) { twim_interrupt_handler(); }
#endif
#ifdef TWIE
ISR(TWIE_TWIM_vect) { twim_interrupt_handler(); }
    1350:	1f 92       	push	r1
    1352:	0f 92       	push	r0
    1354:	0f b6       	in	r0, 0x3f	; 63
    1356:	0f 92       	push	r0
    1358:	11 24       	eor	r1, r1
    135a:	2f 93       	push	r18
    135c:	3f 93       	push	r19
    135e:	4f 93       	push	r20
    1360:	5f 93       	push	r21
    1362:	6f 93       	push	r22
    1364:	7f 93       	push	r23
    1366:	8f 93       	push	r24
    1368:	9f 93       	push	r25
    136a:	af 93       	push	r26
    136c:	bf 93       	push	r27
    136e:	ef 93       	push	r30
    1370:	ff 93       	push	r31
    1372:	2e df       	rcall	.-420    	; 0x11d0 <twim_interrupt_handler>
    1374:	ff 91       	pop	r31
    1376:	ef 91       	pop	r30
    1378:	bf 91       	pop	r27
    137a:	af 91       	pop	r26
    137c:	9f 91       	pop	r25
    137e:	8f 91       	pop	r24
    1380:	7f 91       	pop	r23
    1382:	6f 91       	pop	r22
    1384:	5f 91       	pop	r21
    1386:	4f 91       	pop	r20
    1388:	3f 91       	pop	r19
    138a:	2f 91       	pop	r18
    138c:	0f 90       	pop	r0
    138e:	0f be       	out	0x3f, r0	; 63
    1390:	0f 90       	pop	r0
    1392:	1f 90       	pop	r1
    1394:	18 95       	reti

00001396 <usart_set_baudrate>:
 * \retval true if the hardware supports the baud rate
 * \retval false if the hardware does not support the baud rate (i.e. it's
 *               either too high or too low.)
 */
bool usart_set_baudrate(USART_t *usart, uint32_t baud, uint32_t cpu_hz)
{
    1396:	4f 92       	push	r4
    1398:	5f 92       	push	r5
    139a:	6f 92       	push	r6
    139c:	7f 92       	push	r7
    139e:	8f 92       	push	r8
    13a0:	9f 92       	push	r9
    13a2:	af 92       	push	r10
    13a4:	bf 92       	push	r11
    13a6:	cf 92       	push	r12
    13a8:	df 92       	push	r13
    13aa:	ef 92       	push	r14
    13ac:	ff 92       	push	r15
    13ae:	0f 93       	push	r16
    13b0:	1f 93       	push	r17
    13b2:	cf 93       	push	r28
    13b4:	df 93       	push	r29
    13b6:	ec 01       	movw	r28, r24
    13b8:	4a 01       	movw	r8, r20
    13ba:	5b 01       	movw	r10, r22
    13bc:	28 01       	movw	r4, r16
    13be:	39 01       	movw	r6, r18

	/*
	 * Check if the hardware supports the given baud rate
	 */
	/* 8 = (2^0) * 8 * (2^0) = (2^BSCALE_MIN) * 8 * (BSEL_MIN) */
	max_rate = cpu_hz / 8;
    13c0:	d9 01       	movw	r26, r18
    13c2:	c8 01       	movw	r24, r16
    13c4:	68 94       	set
    13c6:	12 f8       	bld	r1, 2
    13c8:	b6 95       	lsr	r27
    13ca:	a7 95       	ror	r26
    13cc:	97 95       	ror	r25
    13ce:	87 95       	ror	r24
    13d0:	16 94       	lsr	r1
    13d2:	d1 f7       	brne	.-12     	; 0x13c8 <usart_set_baudrate+0x32>
	/* 4194304 = (2^7) * 8 * (2^12) = (2^BSCALE_MAX) * 8 * (BSEL_MAX+1) */
	min_rate = cpu_hz / 4194304;
    13d4:	b9 01       	movw	r22, r18
    13d6:	a8 01       	movw	r20, r16
    13d8:	03 2e       	mov	r0, r19
    13da:	36 e1       	ldi	r19, 0x16	; 22
    13dc:	76 95       	lsr	r23
    13de:	67 95       	ror	r22
    13e0:	57 95       	ror	r21
    13e2:	47 95       	ror	r20
    13e4:	3a 95       	dec	r19
    13e6:	d1 f7       	brne	.-12     	; 0x13dc <usart_set_baudrate+0x46>
    13e8:	30 2d       	mov	r19, r0

	if (!((usart)->CTRLB & USART_CLK2X_bm)) {
    13ea:	2c 81       	ldd	r18, Y+4	; 0x04
    13ec:	22 fd       	sbrc	r18, 2
    13ee:	08 c0       	rjmp	.+16     	; 0x1400 <usart_set_baudrate+0x6a>
		max_rate /= 2;
    13f0:	b6 95       	lsr	r27
    13f2:	a7 95       	ror	r26
    13f4:	97 95       	ror	r25
    13f6:	87 95       	ror	r24
		min_rate /= 2;
    13f8:	76 95       	lsr	r23
    13fa:	67 95       	ror	r22
    13fc:	57 95       	ror	r21
    13fe:	47 95       	ror	r20
	}

	if ((baud > max_rate) || (baud < min_rate)) {
    1400:	88 15       	cp	r24, r8
    1402:	99 05       	cpc	r25, r9
    1404:	aa 05       	cpc	r26, r10
    1406:	bb 05       	cpc	r27, r11
    1408:	08 f4       	brcc	.+2      	; 0x140c <usart_set_baudrate+0x76>
    140a:	a6 c0       	rjmp	.+332    	; 0x1558 <usart_set_baudrate+0x1c2>
    140c:	84 16       	cp	r8, r20
    140e:	95 06       	cpc	r9, r21
    1410:	a6 06       	cpc	r10, r22
    1412:	b7 06       	cpc	r11, r23
    1414:	08 f4       	brcc	.+2      	; 0x1418 <usart_set_baudrate+0x82>
    1416:	a2 c0       	rjmp	.+324    	; 0x155c <usart_set_baudrate+0x1c6>
		return false;
	}

	/* Check if double speed is enabled. */
	if (!((usart)->CTRLB & USART_CLK2X_bm)) {
    1418:	8c 81       	ldd	r24, Y+4	; 0x04
    141a:	82 fd       	sbrc	r24, 2
    141c:	04 c0       	rjmp	.+8      	; 0x1426 <usart_set_baudrate+0x90>
		baud *= 2;
    141e:	88 0c       	add	r8, r8
    1420:	99 1c       	adc	r9, r9
    1422:	aa 1c       	adc	r10, r10
    1424:	bb 1c       	adc	r11, r11
	}

	/* Find the lowest possible exponent. */
	limit = 0xfffU >> 4;
	ratio = cpu_hz / baud;
    1426:	c3 01       	movw	r24, r6
    1428:	b2 01       	movw	r22, r4
    142a:	a5 01       	movw	r20, r10
    142c:	94 01       	movw	r18, r8
    142e:	0e 94 15 21 	call	0x422a	; 0x422a <__udivmodsi4>

	for (exp = -7; exp < 7; exp++) {
		if (ratio < limit) {
    1432:	2f 3f       	cpi	r18, 0xFF	; 255
    1434:	31 05       	cpc	r19, r1
    1436:	41 05       	cpc	r20, r1
    1438:	51 05       	cpc	r21, r1
    143a:	08 f4       	brcc	.+2      	; 0x143e <usart_set_baudrate+0xa8>
    143c:	91 c0       	rjmp	.+290    	; 0x1560 <usart_set_baudrate+0x1ca>
	if (!((usart)->CTRLB & USART_CLK2X_bm)) {
		baud *= 2;
	}

	/* Find the lowest possible exponent. */
	limit = 0xfffU >> 4;
    143e:	c1 2c       	mov	r12, r1
    1440:	d1 2c       	mov	r13, r1
    1442:	76 01       	movw	r14, r12
    1444:	ca 94       	dec	r12
	ratio = cpu_hz / baud;

	for (exp = -7; exp < 7; exp++) {
    1446:	19 ef       	ldi	r17, 0xF9	; 249
    1448:	05 c0       	rjmp	.+10     	; 0x1454 <usart_set_baudrate+0xbe>
		if (ratio < limit) {
    144a:	2c 15       	cp	r18, r12
    144c:	3d 05       	cpc	r19, r13
    144e:	4e 05       	cpc	r20, r14
    1450:	5f 05       	cpc	r21, r15
    1452:	68 f0       	brcs	.+26     	; 0x146e <usart_set_baudrate+0xd8>
			break;
		}

		limit <<= 1;
    1454:	cc 0c       	add	r12, r12
    1456:	dd 1c       	adc	r13, r13
    1458:	ee 1c       	adc	r14, r14
    145a:	ff 1c       	adc	r15, r15

		if (exp < -3) {
    145c:	1d 3f       	cpi	r17, 0xFD	; 253
    145e:	14 f4       	brge	.+4      	; 0x1464 <usart_set_baudrate+0xce>
			limit |= 1;
    1460:	68 94       	set
    1462:	c0 f8       	bld	r12, 0

	/* Find the lowest possible exponent. */
	limit = 0xfffU >> 4;
	ratio = cpu_hz / baud;

	for (exp = -7; exp < 7; exp++) {
    1464:	1f 5f       	subi	r17, 0xFF	; 255
    1466:	17 30       	cpi	r17, 0x07	; 7
    1468:	81 f7       	brne	.-32     	; 0x144a <usart_set_baudrate+0xb4>
    146a:	21 2f       	mov	r18, r17
    146c:	50 c0       	rjmp	.+160    	; 0x150e <usart_set_baudrate+0x178>
    146e:	21 2f       	mov	r18, r17
	 * point.
	 *
	 * The formula for calculating BSEL is slightly different when exp is
	 * negative than it is when exp is positive.
	 */
	if (exp < 0) {
    1470:	11 23       	and	r17, r17
    1472:	0c f0       	brlt	.+2      	; 0x1476 <usart_set_baudrate+0xe0>
    1474:	4c c0       	rjmp	.+152    	; 0x150e <usart_set_baudrate+0x178>
		/* We are supposed to subtract 1, then apply BSCALE. We want to
		 * apply BSCALE first, so we need to turn everything inside the
		 * parenthesis into a single fractional expression.
		 */
		cpu_hz -= 8 * baud;
    1476:	d5 01       	movw	r26, r10
    1478:	c4 01       	movw	r24, r8
    147a:	88 0f       	add	r24, r24
    147c:	99 1f       	adc	r25, r25
    147e:	aa 1f       	adc	r26, r26
    1480:	bb 1f       	adc	r27, r27
    1482:	88 0f       	add	r24, r24
    1484:	99 1f       	adc	r25, r25
    1486:	aa 1f       	adc	r26, r26
    1488:	bb 1f       	adc	r27, r27
    148a:	88 0f       	add	r24, r24
    148c:	99 1f       	adc	r25, r25
    148e:	aa 1f       	adc	r26, r26
    1490:	bb 1f       	adc	r27, r27
    1492:	48 1a       	sub	r4, r24
    1494:	59 0a       	sbc	r5, r25
    1496:	6a 0a       	sbc	r6, r26
    1498:	7b 0a       	sbc	r7, r27
		/* If we end up with a left-shift after taking the final
		 * divide-by-8 into account, do the shift before the divide.
		 * Otherwise, left-shift the denominator instead (effectively
		 * resulting in an overall right shift.)
		 */
		if (exp <= -3) {
    149a:	1e 3f       	cpi	r17, 0xFE	; 254
    149c:	f4 f4       	brge	.+60     	; 0x14da <usart_set_baudrate+0x144>
			div = ((cpu_hz << (-exp - 3)) + baud / 2) / baud;
    149e:	6d ef       	ldi	r22, 0xFD	; 253
    14a0:	7f ef       	ldi	r23, 0xFF	; 255
    14a2:	61 1b       	sub	r22, r17
    14a4:	71 09       	sbc	r23, r1
    14a6:	17 fd       	sbrc	r17, 7
    14a8:	73 95       	inc	r23
    14aa:	04 c0       	rjmp	.+8      	; 0x14b4 <usart_set_baudrate+0x11e>
    14ac:	44 0c       	add	r4, r4
    14ae:	55 1c       	adc	r5, r5
    14b0:	66 1c       	adc	r6, r6
    14b2:	77 1c       	adc	r7, r7
    14b4:	6a 95       	dec	r22
    14b6:	d2 f7       	brpl	.-12     	; 0x14ac <usart_set_baudrate+0x116>
    14b8:	d5 01       	movw	r26, r10
    14ba:	c4 01       	movw	r24, r8
    14bc:	b6 95       	lsr	r27
    14be:	a7 95       	ror	r26
    14c0:	97 95       	ror	r25
    14c2:	87 95       	ror	r24
    14c4:	bc 01       	movw	r22, r24
    14c6:	cd 01       	movw	r24, r26
    14c8:	64 0d       	add	r22, r4
    14ca:	75 1d       	adc	r23, r5
    14cc:	86 1d       	adc	r24, r6
    14ce:	97 1d       	adc	r25, r7
    14d0:	a5 01       	movw	r20, r10
    14d2:	94 01       	movw	r18, r8
    14d4:	0e 94 15 21 	call	0x422a	; 0x422a <__udivmodsi4>
    14d8:	36 c0       	rjmp	.+108    	; 0x1546 <usart_set_baudrate+0x1b0>
		} else {
			baud <<= exp + 3;
    14da:	23 e0       	ldi	r18, 0x03	; 3
    14dc:	21 0f       	add	r18, r17
    14de:	d5 01       	movw	r26, r10
    14e0:	c4 01       	movw	r24, r8
    14e2:	04 c0       	rjmp	.+8      	; 0x14ec <usart_set_baudrate+0x156>
    14e4:	88 0f       	add	r24, r24
    14e6:	99 1f       	adc	r25, r25
    14e8:	aa 1f       	adc	r26, r26
    14ea:	bb 1f       	adc	r27, r27
    14ec:	2a 95       	dec	r18
    14ee:	d2 f7       	brpl	.-12     	; 0x14e4 <usart_set_baudrate+0x14e>
    14f0:	9c 01       	movw	r18, r24
    14f2:	ad 01       	movw	r20, r26
			div = (cpu_hz + baud / 2) / baud;
    14f4:	b6 95       	lsr	r27
    14f6:	a7 95       	ror	r26
    14f8:	97 95       	ror	r25
    14fa:	87 95       	ror	r24
    14fc:	bc 01       	movw	r22, r24
    14fe:	cd 01       	movw	r24, r26
    1500:	64 0d       	add	r22, r4
    1502:	75 1d       	adc	r23, r5
    1504:	86 1d       	adc	r24, r6
    1506:	97 1d       	adc	r25, r7
    1508:	0e 94 15 21 	call	0x422a	; 0x422a <__udivmodsi4>
    150c:	1c c0       	rjmp	.+56     	; 0x1546 <usart_set_baudrate+0x1b0>
		}
	} else {
		/* We will always do a right shift in this case, but we need to
		 * shift three extra positions because of the divide-by-8.
		 */
		baud <<= exp + 3;
    150e:	2d 5f       	subi	r18, 0xFD	; 253
    1510:	d5 01       	movw	r26, r10
    1512:	c4 01       	movw	r24, r8
    1514:	04 c0       	rjmp	.+8      	; 0x151e <usart_set_baudrate+0x188>
    1516:	88 0f       	add	r24, r24
    1518:	99 1f       	adc	r25, r25
    151a:	aa 1f       	adc	r26, r26
    151c:	bb 1f       	adc	r27, r27
    151e:	2a 95       	dec	r18
    1520:	d2 f7       	brpl	.-12     	; 0x1516 <usart_set_baudrate+0x180>
    1522:	9c 01       	movw	r18, r24
    1524:	ad 01       	movw	r20, r26
		div = (cpu_hz + baud / 2) / baud - 1;
    1526:	b6 95       	lsr	r27
    1528:	a7 95       	ror	r26
    152a:	97 95       	ror	r25
    152c:	87 95       	ror	r24
    152e:	bc 01       	movw	r22, r24
    1530:	cd 01       	movw	r24, r26
    1532:	64 0d       	add	r22, r4
    1534:	75 1d       	adc	r23, r5
    1536:	86 1d       	adc	r24, r6
    1538:	97 1d       	adc	r25, r7
    153a:	0e 94 15 21 	call	0x422a	; 0x422a <__udivmodsi4>
    153e:	21 50       	subi	r18, 0x01	; 1
    1540:	31 09       	sbc	r19, r1
    1542:	41 09       	sbc	r20, r1
    1544:	51 09       	sbc	r21, r1
	}

	(usart)->BAUDCTRLB = (uint8_t)(((div >> 8) & 0X0F) | (exp << 4));
    1546:	83 2f       	mov	r24, r19
    1548:	8f 70       	andi	r24, 0x0F	; 15
    154a:	12 95       	swap	r17
    154c:	10 7f       	andi	r17, 0xF0	; 240
    154e:	18 2b       	or	r17, r24
    1550:	1f 83       	std	Y+7, r17	; 0x07
	(usart)->BAUDCTRLA = (uint8_t)div;
    1552:	2e 83       	std	Y+6, r18	; 0x06

	return true;
    1554:	81 e0       	ldi	r24, 0x01	; 1
    1556:	18 c0       	rjmp	.+48     	; 0x1588 <usart_set_baudrate+0x1f2>
		max_rate /= 2;
		min_rate /= 2;
	}

	if ((baud > max_rate) || (baud < min_rate)) {
		return false;
    1558:	80 e0       	ldi	r24, 0x00	; 0
    155a:	16 c0       	rjmp	.+44     	; 0x1588 <usart_set_baudrate+0x1f2>
    155c:	80 e0       	ldi	r24, 0x00	; 0
    155e:	14 c0       	rjmp	.+40     	; 0x1588 <usart_set_baudrate+0x1f2>
	if (exp < 0) {
		/* We are supposed to subtract 1, then apply BSCALE. We want to
		 * apply BSCALE first, so we need to turn everything inside the
		 * parenthesis into a single fractional expression.
		 */
		cpu_hz -= 8 * baud;
    1560:	d5 01       	movw	r26, r10
    1562:	c4 01       	movw	r24, r8
    1564:	88 0f       	add	r24, r24
    1566:	99 1f       	adc	r25, r25
    1568:	aa 1f       	adc	r26, r26
    156a:	bb 1f       	adc	r27, r27
    156c:	88 0f       	add	r24, r24
    156e:	99 1f       	adc	r25, r25
    1570:	aa 1f       	adc	r26, r26
    1572:	bb 1f       	adc	r27, r27
    1574:	88 0f       	add	r24, r24
    1576:	99 1f       	adc	r25, r25
    1578:	aa 1f       	adc	r26, r26
    157a:	bb 1f       	adc	r27, r27
    157c:	48 1a       	sub	r4, r24
    157e:	59 0a       	sbc	r5, r25
    1580:	6a 0a       	sbc	r6, r26
    1582:	7b 0a       	sbc	r7, r27

	/* Find the lowest possible exponent. */
	limit = 0xfffU >> 4;
	ratio = cpu_hz / baud;

	for (exp = -7; exp < 7; exp++) {
    1584:	19 ef       	ldi	r17, 0xF9	; 249
    1586:	8b cf       	rjmp	.-234    	; 0x149e <usart_set_baudrate+0x108>

	(usart)->BAUDCTRLB = (uint8_t)(((div >> 8) & 0X0F) | (exp << 4));
	(usart)->BAUDCTRLA = (uint8_t)div;

	return true;
}
    1588:	df 91       	pop	r29
    158a:	cf 91       	pop	r28
    158c:	1f 91       	pop	r17
    158e:	0f 91       	pop	r16
    1590:	ff 90       	pop	r15
    1592:	ef 90       	pop	r14
    1594:	df 90       	pop	r13
    1596:	cf 90       	pop	r12
    1598:	bf 90       	pop	r11
    159a:	af 90       	pop	r10
    159c:	9f 90       	pop	r9
    159e:	8f 90       	pop	r8
    15a0:	7f 90       	pop	r7
    15a2:	6f 90       	pop	r6
    15a4:	5f 90       	pop	r5
    15a6:	4f 90       	pop	r4
    15a8:	08 95       	ret

000015aa <usart_init_rs232>:
 *
 * \retval true if the initialization was successfull
 * \retval false if the initialization failed (error in baud rate calculation)
 */
bool usart_init_rs232(USART_t *usart, const usart_rs232_options_t *opt)
{
    15aa:	0f 93       	push	r16
    15ac:	1f 93       	push	r17
    15ae:	cf 93       	push	r28
    15b0:	df 93       	push	r29
    15b2:	ec 01       	movw	r28, r24
    15b4:	8b 01       	movw	r16, r22
 *
 * \param module Pointer to the module's base address.
 */
static inline void sysclk_enable_peripheral_clock(const volatile void *module)
{
	if (module == NULL) {
    15b6:	00 97       	sbiw	r24, 0x00	; 0
    15b8:	09 f4       	brne	.+2      	; 0x15bc <usart_init_rs232+0x12>
    15ba:	be c0       	rjmp	.+380    	; 0x1738 <usart_init_rs232+0x18e>
		Assert(false);
	}
#ifdef AES
	else if (module == &AES) {
    15bc:	80 3c       	cpi	r24, 0xC0	; 192
    15be:	91 05       	cpc	r25, r1
    15c0:	21 f4       	brne	.+8      	; 0x15ca <usart_init_rs232+0x20>
		sysclk_enable_module(SYSCLK_PORT_GEN, SYSCLK_AES);
    15c2:	60 e1       	ldi	r22, 0x10	; 16
    15c4:	80 e0       	ldi	r24, 0x00	; 0
    15c6:	b4 d7       	rcall	.+3944   	; 0x2530 <sysclk_enable_module>
    15c8:	b7 c0       	rjmp	.+366    	; 0x1738 <usart_init_rs232+0x18e>
	else if (module == &EBI) {
		sysclk_enable_module(SYSCLK_PORT_GEN, SYSCLK_EBI);
	}
#endif
#ifdef RTC
	else if (module == &RTC) {
    15ca:	c1 15       	cp	r28, r1
    15cc:	84 e0       	ldi	r24, 0x04	; 4
    15ce:	d8 07       	cpc	r29, r24
    15d0:	21 f4       	brne	.+8      	; 0x15da <usart_init_rs232+0x30>
		sysclk_enable_module(SYSCLK_PORT_GEN, SYSCLK_RTC);
    15d2:	64 e0       	ldi	r22, 0x04	; 4
    15d4:	80 e0       	ldi	r24, 0x00	; 0
    15d6:	ac d7       	rcall	.+3928   	; 0x2530 <sysclk_enable_module>
    15d8:	af c0       	rjmp	.+350    	; 0x1738 <usart_init_rs232+0x18e>
	}
#endif
#ifdef EVSYS
	else if (module == &EVSYS) {
    15da:	c0 38       	cpi	r28, 0x80	; 128
    15dc:	e1 e0       	ldi	r30, 0x01	; 1
    15de:	de 07       	cpc	r29, r30
    15e0:	21 f4       	brne	.+8      	; 0x15ea <usart_init_rs232+0x40>
		sysclk_enable_module(SYSCLK_PORT_GEN, SYSCLK_EVSYS);
    15e2:	62 e0       	ldi	r22, 0x02	; 2
    15e4:	80 e0       	ldi	r24, 0x00	; 0
    15e6:	a4 d7       	rcall	.+3912   	; 0x2530 <sysclk_enable_module>
    15e8:	a7 c0       	rjmp	.+334    	; 0x1738 <usart_init_rs232+0x18e>
	}
#endif
#ifdef DMA
	else if (module == &DMA) {
    15ea:	c1 15       	cp	r28, r1
    15ec:	f1 e0       	ldi	r31, 0x01	; 1
    15ee:	df 07       	cpc	r29, r31
    15f0:	21 f4       	brne	.+8      	; 0x15fa <usart_init_rs232+0x50>
		sysclk_enable_module(SYSCLK_PORT_GEN, SYSCLK_DMA);
    15f2:	61 e0       	ldi	r22, 0x01	; 1
    15f4:	80 e0       	ldi	r24, 0x00	; 0
    15f6:	9c d7       	rcall	.+3896   	; 0x2530 <sysclk_enable_module>
    15f8:	9f c0       	rjmp	.+318    	; 0x1738 <usart_init_rs232+0x18e>
	else if (module == &EDMA) {
		sysclk_enable_module(SYSCLK_PORT_GEN, SYSCLK_EDMA);
	}
#endif
#ifdef ACA
	else if (module == &ACA) {
    15fa:	c0 38       	cpi	r28, 0x80	; 128
    15fc:	83 e0       	ldi	r24, 0x03	; 3
    15fe:	d8 07       	cpc	r29, r24
    1600:	21 f4       	brne	.+8      	; 0x160a <usart_init_rs232+0x60>
		sysclk_enable_module(SYSCLK_PORT_A, SYSCLK_AC);
    1602:	61 e0       	ldi	r22, 0x01	; 1
    1604:	81 e0       	ldi	r24, 0x01	; 1
    1606:	94 d7       	rcall	.+3880   	; 0x2530 <sysclk_enable_module>
    1608:	97 c0       	rjmp	.+302    	; 0x1738 <usart_init_rs232+0x18e>
	else if (module == &ACB) {
		sysclk_enable_module(SYSCLK_PORT_B, SYSCLK_AC);
	}
#endif
#ifdef ADCA
	else if (module == &ADCA) {
    160a:	c1 15       	cp	r28, r1
    160c:	e2 e0       	ldi	r30, 0x02	; 2
    160e:	de 07       	cpc	r29, r30
    1610:	21 f4       	brne	.+8      	; 0x161a <usart_init_rs232+0x70>
		sysclk_enable_module(SYSCLK_PORT_A, SYSCLK_ADC);
    1612:	62 e0       	ldi	r22, 0x02	; 2
    1614:	81 e0       	ldi	r24, 0x01	; 1
    1616:	8c d7       	rcall	.+3864   	; 0x2530 <sysclk_enable_module>
    1618:	8f c0       	rjmp	.+286    	; 0x1738 <usart_init_rs232+0x18e>
	}
#endif
// Workaround for bad XMEGA D header file
#if !XMEGA_D
#ifdef DACB
	else if (module == &DACB) {
    161a:	c0 32       	cpi	r28, 0x20	; 32
    161c:	f3 e0       	ldi	r31, 0x03	; 3
    161e:	df 07       	cpc	r29, r31
    1620:	21 f4       	brne	.+8      	; 0x162a <usart_init_rs232+0x80>
		sysclk_enable_module(SYSCLK_PORT_B, SYSCLK_DAC);
    1622:	64 e0       	ldi	r22, 0x04	; 4
    1624:	82 e0       	ldi	r24, 0x02	; 2
    1626:	84 d7       	rcall	.+3848   	; 0x2530 <sysclk_enable_module>
    1628:	87 c0       	rjmp	.+270    	; 0x1738 <usart_init_rs232+0x18e>
	}
#endif
#endif // Workaround end
#ifdef TCC0
	else if (module == &TCC0) {
    162a:	c1 15       	cp	r28, r1
    162c:	88 e0       	ldi	r24, 0x08	; 8
    162e:	d8 07       	cpc	r29, r24
    1630:	21 f4       	brne	.+8      	; 0x163a <usart_init_rs232+0x90>
		sysclk_enable_module(SYSCLK_PORT_C, SYSCLK_TC0);
    1632:	61 e0       	ldi	r22, 0x01	; 1
    1634:	83 e0       	ldi	r24, 0x03	; 3
    1636:	7c d7       	rcall	.+3832   	; 0x2530 <sysclk_enable_module>
    1638:	7f c0       	rjmp	.+254    	; 0x1738 <usart_init_rs232+0x18e>
	}
#endif
#ifdef TCD0
	else if (module == &TCD0) {
    163a:	c1 15       	cp	r28, r1
    163c:	e9 e0       	ldi	r30, 0x09	; 9
    163e:	de 07       	cpc	r29, r30
    1640:	21 f4       	brne	.+8      	; 0x164a <usart_init_rs232+0xa0>
		sysclk_enable_module(SYSCLK_PORT_D, SYSCLK_TC0);
    1642:	61 e0       	ldi	r22, 0x01	; 1
    1644:	84 e0       	ldi	r24, 0x04	; 4
    1646:	74 d7       	rcall	.+3816   	; 0x2530 <sysclk_enable_module>
    1648:	77 c0       	rjmp	.+238    	; 0x1738 <usart_init_rs232+0x18e>
	}
#endif
#ifdef TCE0
	else if (module == &TCE0) {
    164a:	c1 15       	cp	r28, r1
    164c:	fa e0       	ldi	r31, 0x0A	; 10
    164e:	df 07       	cpc	r29, r31
    1650:	21 f4       	brne	.+8      	; 0x165a <usart_init_rs232+0xb0>
		sysclk_enable_module(SYSCLK_PORT_E, SYSCLK_TC0);
    1652:	61 e0       	ldi	r22, 0x01	; 1
    1654:	85 e0       	ldi	r24, 0x05	; 5
    1656:	6c d7       	rcall	.+3800   	; 0x2530 <sysclk_enable_module>
    1658:	6f c0       	rjmp	.+222    	; 0x1738 <usart_init_rs232+0x18e>
	else if (module == &TCF0) {
		sysclk_enable_module(SYSCLK_PORT_F, SYSCLK_TC0);
	}
#endif
#ifdef TCC1
	else if (module == &TCC1) {
    165a:	c0 34       	cpi	r28, 0x40	; 64
    165c:	88 e0       	ldi	r24, 0x08	; 8
    165e:	d8 07       	cpc	r29, r24
    1660:	21 f4       	brne	.+8      	; 0x166a <usart_init_rs232+0xc0>
		sysclk_enable_module(SYSCLK_PORT_C, SYSCLK_TC1);
    1662:	62 e0       	ldi	r22, 0x02	; 2
    1664:	83 e0       	ldi	r24, 0x03	; 3
    1666:	64 d7       	rcall	.+3784   	; 0x2530 <sysclk_enable_module>
    1668:	67 c0       	rjmp	.+206    	; 0x1738 <usart_init_rs232+0x18e>
	}
#endif
#ifdef TCD1
	else if (module == &TCD1) {
    166a:	c0 34       	cpi	r28, 0x40	; 64
    166c:	e9 e0       	ldi	r30, 0x09	; 9
    166e:	de 07       	cpc	r29, r30
    1670:	21 f4       	brne	.+8      	; 0x167a <usart_init_rs232+0xd0>
		sysclk_enable_module(SYSCLK_PORT_D, SYSCLK_TC1);
    1672:	62 e0       	ldi	r22, 0x02	; 2
    1674:	84 e0       	ldi	r24, 0x04	; 4
    1676:	5c d7       	rcall	.+3768   	; 0x2530 <sysclk_enable_module>
    1678:	5f c0       	rjmp	.+190    	; 0x1738 <usart_init_rs232+0x18e>
	else if (module == &TCD5) {
		sysclk_enable_module(SYSCLK_PORT_D, SYSCLK_TC5);
	}
#endif
#ifdef HIRESC
	else if (module == &HIRESC) {
    167a:	c0 39       	cpi	r28, 0x90	; 144
    167c:	f8 e0       	ldi	r31, 0x08	; 8
    167e:	df 07       	cpc	r29, r31
    1680:	21 f4       	brne	.+8      	; 0x168a <usart_init_rs232+0xe0>
			sysclk_enable_module(SYSCLK_PORT_C, SYSCLK_HIRES);
    1682:	64 e0       	ldi	r22, 0x04	; 4
    1684:	83 e0       	ldi	r24, 0x03	; 3
    1686:	54 d7       	rcall	.+3752   	; 0x2530 <sysclk_enable_module>
    1688:	57 c0       	rjmp	.+174    	; 0x1738 <usart_init_rs232+0x18e>
	}
#endif
#ifdef HIRESD
	else if (module == &HIRESD) {
    168a:	c0 39       	cpi	r28, 0x90	; 144
    168c:	89 e0       	ldi	r24, 0x09	; 9
    168e:	d8 07       	cpc	r29, r24
    1690:	21 f4       	brne	.+8      	; 0x169a <usart_init_rs232+0xf0>
		sysclk_enable_module(SYSCLK_PORT_D, SYSCLK_HIRES);
    1692:	64 e0       	ldi	r22, 0x04	; 4
    1694:	84 e0       	ldi	r24, 0x04	; 4
    1696:	4c d7       	rcall	.+3736   	; 0x2530 <sysclk_enable_module>
    1698:	4f c0       	rjmp	.+158    	; 0x1738 <usart_init_rs232+0x18e>
	}
#endif
#ifdef HIRESE
	else if (module == &HIRESE) {
    169a:	c0 39       	cpi	r28, 0x90	; 144
    169c:	ea e0       	ldi	r30, 0x0A	; 10
    169e:	de 07       	cpc	r29, r30
    16a0:	21 f4       	brne	.+8      	; 0x16aa <usart_init_rs232+0x100>
		sysclk_enable_module(SYSCLK_PORT_E, SYSCLK_HIRES);
    16a2:	64 e0       	ldi	r22, 0x04	; 4
    16a4:	85 e0       	ldi	r24, 0x05	; 5
    16a6:	44 d7       	rcall	.+3720   	; 0x2530 <sysclk_enable_module>
    16a8:	47 c0       	rjmp	.+142    	; 0x1738 <usart_init_rs232+0x18e>
	else if (module == &HIRESF) {
		sysclk_enable_module(SYSCLK_PORT_F, SYSCLK_HIRES);
	}
#endif
#ifdef SPIC
	else if (module == &SPIC) {
    16aa:	c0 3c       	cpi	r28, 0xC0	; 192
    16ac:	f8 e0       	ldi	r31, 0x08	; 8
    16ae:	df 07       	cpc	r29, r31
    16b0:	21 f4       	brne	.+8      	; 0x16ba <usart_init_rs232+0x110>
		sysclk_enable_module(SYSCLK_PORT_C, SYSCLK_SPI);
    16b2:	68 e0       	ldi	r22, 0x08	; 8
    16b4:	83 e0       	ldi	r24, 0x03	; 3
    16b6:	3c d7       	rcall	.+3704   	; 0x2530 <sysclk_enable_module>
    16b8:	3f c0       	rjmp	.+126    	; 0x1738 <usart_init_rs232+0x18e>
	}
#endif
#ifdef SPID
	else if (module == &SPID) {
    16ba:	c0 3c       	cpi	r28, 0xC0	; 192
    16bc:	89 e0       	ldi	r24, 0x09	; 9
    16be:	d8 07       	cpc	r29, r24
    16c0:	21 f4       	brne	.+8      	; 0x16ca <usart_init_rs232+0x120>
		sysclk_enable_module(SYSCLK_PORT_D, SYSCLK_SPI);
    16c2:	68 e0       	ldi	r22, 0x08	; 8
    16c4:	84 e0       	ldi	r24, 0x04	; 4
    16c6:	34 d7       	rcall	.+3688   	; 0x2530 <sysclk_enable_module>
    16c8:	37 c0       	rjmp	.+110    	; 0x1738 <usart_init_rs232+0x18e>
	else if (module == &SPIF) {
		sysclk_enable_module(SYSCLK_PORT_F, SYSCLK_SPI);
	}
#endif
#ifdef USARTC0
	else if (module == &USARTC0) {
    16ca:	c0 3a       	cpi	r28, 0xA0	; 160
    16cc:	e8 e0       	ldi	r30, 0x08	; 8
    16ce:	de 07       	cpc	r29, r30
    16d0:	21 f4       	brne	.+8      	; 0x16da <usart_init_rs232+0x130>
		sysclk_enable_module(SYSCLK_PORT_C, SYSCLK_USART0);
    16d2:	60 e1       	ldi	r22, 0x10	; 16
    16d4:	83 e0       	ldi	r24, 0x03	; 3
    16d6:	2c d7       	rcall	.+3672   	; 0x2530 <sysclk_enable_module>
    16d8:	2f c0       	rjmp	.+94     	; 0x1738 <usart_init_rs232+0x18e>
	}
#endif
#ifdef USARTD0
	else if (module == &USARTD0) {
    16da:	c0 3a       	cpi	r28, 0xA0	; 160
    16dc:	f9 e0       	ldi	r31, 0x09	; 9
    16de:	df 07       	cpc	r29, r31
    16e0:	21 f4       	brne	.+8      	; 0x16ea <usart_init_rs232+0x140>
		sysclk_enable_module(SYSCLK_PORT_D, SYSCLK_USART0);
    16e2:	60 e1       	ldi	r22, 0x10	; 16
    16e4:	84 e0       	ldi	r24, 0x04	; 4
    16e6:	24 d7       	rcall	.+3656   	; 0x2530 <sysclk_enable_module>
    16e8:	27 c0       	rjmp	.+78     	; 0x1738 <usart_init_rs232+0x18e>
	}
#endif
#ifdef USARTE0
	else if (module == &USARTE0) {
    16ea:	c0 3a       	cpi	r28, 0xA0	; 160
    16ec:	8a e0       	ldi	r24, 0x0A	; 10
    16ee:	d8 07       	cpc	r29, r24
    16f0:	21 f4       	brne	.+8      	; 0x16fa <usart_init_rs232+0x150>
		sysclk_enable_module(SYSCLK_PORT_E, SYSCLK_USART0);
    16f2:	60 e1       	ldi	r22, 0x10	; 16
    16f4:	85 e0       	ldi	r24, 0x05	; 5
    16f6:	1c d7       	rcall	.+3640   	; 0x2530 <sysclk_enable_module>
    16f8:	1f c0       	rjmp	.+62     	; 0x1738 <usart_init_rs232+0x18e>
	else if (module == &USARTF0) {
		sysclk_enable_module(SYSCLK_PORT_F, SYSCLK_USART0);
	}
#endif
#ifdef USARTC1
	else if (module == &USARTC1) {
    16fa:	c0 3b       	cpi	r28, 0xB0	; 176
    16fc:	e8 e0       	ldi	r30, 0x08	; 8
    16fe:	de 07       	cpc	r29, r30
    1700:	21 f4       	brne	.+8      	; 0x170a <usart_init_rs232+0x160>
		sysclk_enable_module(SYSCLK_PORT_C, SYSCLK_USART1);
    1702:	60 e2       	ldi	r22, 0x20	; 32
    1704:	83 e0       	ldi	r24, 0x03	; 3
    1706:	14 d7       	rcall	.+3624   	; 0x2530 <sysclk_enable_module>
    1708:	17 c0       	rjmp	.+46     	; 0x1738 <usart_init_rs232+0x18e>
	}
#endif
#ifdef USARTD1
	else if (module == &USARTD1) {
    170a:	c0 3b       	cpi	r28, 0xB0	; 176
    170c:	f9 e0       	ldi	r31, 0x09	; 9
    170e:	df 07       	cpc	r29, r31
    1710:	21 f4       	brne	.+8      	; 0x171a <usart_init_rs232+0x170>
		sysclk_enable_module(SYSCLK_PORT_D, SYSCLK_USART1);
    1712:	60 e2       	ldi	r22, 0x20	; 32
    1714:	84 e0       	ldi	r24, 0x04	; 4
    1716:	0c d7       	rcall	.+3608   	; 0x2530 <sysclk_enable_module>
    1718:	0f c0       	rjmp	.+30     	; 0x1738 <usart_init_rs232+0x18e>
	else if (module == &USARTF1) {
		sysclk_enable_module(SYSCLK_PORT_F, SYSCLK_USART1);
	}
#endif
#ifdef TWIC
	else if (module == &TWIC) {
    171a:	c0 38       	cpi	r28, 0x80	; 128
    171c:	84 e0       	ldi	r24, 0x04	; 4
    171e:	d8 07       	cpc	r29, r24
    1720:	21 f4       	brne	.+8      	; 0x172a <usart_init_rs232+0x180>
		sysclk_enable_module(SYSCLK_PORT_C, SYSCLK_TWI);
    1722:	60 e4       	ldi	r22, 0x40	; 64
    1724:	83 e0       	ldi	r24, 0x03	; 3
    1726:	04 d7       	rcall	.+3592   	; 0x2530 <sysclk_enable_module>
    1728:	07 c0       	rjmp	.+14     	; 0x1738 <usart_init_rs232+0x18e>
	else if (module == &TWID) {
		sysclk_enable_module(SYSCLK_PORT_D, SYSCLK_TWI);
	}
#endif
#ifdef TWIE
	else if (module == &TWIE) {
    172a:	c0 3a       	cpi	r28, 0xA0	; 160
    172c:	e4 e0       	ldi	r30, 0x04	; 4
    172e:	de 07       	cpc	r29, r30
    1730:	19 f4       	brne	.+6      	; 0x1738 <usart_init_rs232+0x18e>
		sysclk_enable_module(SYSCLK_PORT_E, SYSCLK_TWI);
    1732:	60 e4       	ldi	r22, 0x40	; 64
    1734:	85 e0       	ldi	r24, 0x05	; 5
    1736:	fc d6       	rcall	.+3576   	; 0x2530 <sysclk_enable_module>
 * - 0x2        : IrDA mode.
 * - 0x3        : Master SPI mode.
 */
static inline void usart_set_mode(USART_t *usart, USART_CMODE_t usartmode)
{
	(usart)->CTRLC = ((usart)->CTRLC & (~USART_CMODE_gm)) | usartmode;
    1738:	8d 81       	ldd	r24, Y+5	; 0x05
    173a:	8f 73       	andi	r24, 0x3F	; 63
    173c:	8d 83       	std	Y+5, r24	; 0x05
 *  \param twoStopBits Enable two stop bit mode. Use bool type.
 */
static inline void usart_format_set(USART_t *usart, USART_CHSIZE_t charSize,
		USART_PMODE_t parityMode, bool twoStopBits)
{
	(usart)->CTRLC = (uint8_t)charSize | parityMode
    173e:	f8 01       	movw	r30, r16
    1740:	94 81       	ldd	r25, Z+4	; 0x04
    1742:	85 81       	ldd	r24, Z+5	; 0x05
    1744:	89 2b       	or	r24, r25
    1746:	96 81       	ldd	r25, Z+6	; 0x06
    1748:	99 23       	and	r25, r25
    174a:	11 f0       	breq	.+4      	; 0x1750 <usart_init_rs232+0x1a6>
    174c:	98 e0       	ldi	r25, 0x08	; 8
    174e:	01 c0       	rjmp	.+2      	; 0x1752 <usart_init_rs232+0x1a8>
    1750:	90 e0       	ldi	r25, 0x00	; 0
    1752:	89 2b       	or	r24, r25
    1754:	8d 83       	std	Y+5, r24	; 0x05
	bool result;
	sysclk_enable_peripheral_clock(usart);
	usart_set_mode(usart, USART_CMODE_ASYNCHRONOUS_gc);
	usart_format_set(usart, opt->charlength, opt->paritytype,
			opt->stopbits);
	result = usart_set_baudrate(usart, opt->baudrate, sysclk_get_per_hz());
    1756:	f8 01       	movw	r30, r16
    1758:	40 81       	ld	r20, Z
    175a:	51 81       	ldd	r21, Z+1	; 0x01
    175c:	62 81       	ldd	r22, Z+2	; 0x02
    175e:	73 81       	ldd	r23, Z+3	; 0x03
    1760:	00 e0       	ldi	r16, 0x00	; 0
    1762:	1c e6       	ldi	r17, 0x6C	; 108
    1764:	2c ed       	ldi	r18, 0xDC	; 220
    1766:	32 e0       	ldi	r19, 0x02	; 2
    1768:	ce 01       	movw	r24, r28
    176a:	15 de       	rcall	.-982    	; 0x1396 <usart_set_baudrate>
 *
 * \param usart Pointer to the USART module.
 */
static inline void usart_tx_enable(USART_t *usart)
{
	(usart)->CTRLB |= USART_TXEN_bm;
    176c:	9c 81       	ldd	r25, Y+4	; 0x04
    176e:	98 60       	ori	r25, 0x08	; 8
    1770:	9c 83       	std	Y+4, r25	; 0x04
 *
 * \param usart Pointer to the USART module
 */
static inline void usart_rx_enable(USART_t *usart)
{
	(usart)->CTRLB |= USART_RXEN_bm;
    1772:	9c 81       	ldd	r25, Y+4	; 0x04
    1774:	90 61       	ori	r25, 0x10	; 16
    1776:	9c 83       	std	Y+4, r25	; 0x04
	usart_tx_enable(usart);
	usart_rx_enable(usart);
	
	return result;
}
    1778:	df 91       	pop	r29
    177a:	cf 91       	pop	r28
    177c:	1f 91       	pop	r17
    177e:	0f 91       	pop	r16
    1780:	08 95       	ret

00001782 <udd_sleep_mode>:
	} else {
		// endpoint not halted then call directly callback
		callback();
	}
	return true;
}
    1782:	81 11       	cpse	r24, r1
    1784:	18 c0       	rjmp	.+48     	; 0x17b6 <udd_sleep_mode+0x34>
    1786:	90 91 70 25 	lds	r25, 0x2570
    178a:	99 23       	and	r25, r25
    178c:	89 f0       	breq	.+34     	; 0x17b0 <udd_sleep_mode+0x2e>
    178e:	9f b7       	in	r25, 0x3f	; 63
    1790:	f8 94       	cli
    1792:	e2 e8       	ldi	r30, 0x82	; 130
    1794:	f5 e2       	ldi	r31, 0x25	; 37
    1796:	20 81       	ld	r18, Z
    1798:	21 50       	subi	r18, 0x01	; 1
    179a:	20 83       	st	Z, r18
    179c:	9f bf       	out	0x3f, r25	; 63
    179e:	08 c0       	rjmp	.+16     	; 0x17b0 <udd_sleep_mode+0x2e>
    17a0:	9f b7       	in	r25, 0x3f	; 63
    17a2:	f8 94       	cli
    17a4:	e2 e8       	ldi	r30, 0x82	; 130
    17a6:	f5 e2       	ldi	r31, 0x25	; 37
    17a8:	20 81       	ld	r18, Z
    17aa:	2f 5f       	subi	r18, 0xFF	; 255
    17ac:	20 83       	st	Z, r18
    17ae:	9f bf       	out	0x3f, r25	; 63
    17b0:	80 93 70 25 	sts	0x2570, r24
    17b4:	08 95       	ret
    17b6:	90 91 70 25 	lds	r25, 0x2570
    17ba:	99 23       	and	r25, r25
    17bc:	89 f3       	breq	.-30     	; 0x17a0 <udd_sleep_mode+0x1e>
    17be:	f8 cf       	rjmp	.-16     	; 0x17b0 <udd_sleep_mode+0x2e>

000017c0 <udd_ctrl_init>:
    17c0:	0f 93       	push	r16
    17c2:	e8 ec       	ldi	r30, 0xC8	; 200
    17c4:	f4 e0       	ldi	r31, 0x04	; 4
    17c6:	80 81       	ld	r24, Z
    17c8:	8f 7d       	andi	r24, 0xDF	; 223
    17ca:	80 83       	st	Z, r24
    17cc:	80 81       	ld	r24, Z
    17ce:	8f 7d       	andi	r24, 0xDF	; 223
    17d0:	80 83       	st	Z, r24
    17d2:	e4 e4       	ldi	r30, 0x44	; 68
    17d4:	f5 e2       	ldi	r31, 0x25	; 37
    17d6:	02 e0       	ldi	r16, 0x02	; 2
    17d8:	05 93       	las	Z, r16
    17da:	10 92 46 25 	sts	0x2546, r1
    17de:	10 92 47 25 	sts	0x2547, r1
    17e2:	00 e2       	ldi	r16, 0x20	; 32
    17e4:	06 93       	lac	Z, r16
    17e6:	00 e4       	ldi	r16, 0x40	; 64
    17e8:	06 93       	lac	Z, r16
    17ea:	ec e3       	ldi	r30, 0x3C	; 60
    17ec:	f5 e2       	ldi	r31, 0x25	; 37
    17ee:	00 e2       	ldi	r16, 0x20	; 32
    17f0:	06 93       	lac	Z, r16
    17f2:	00 e4       	ldi	r16, 0x40	; 64
    17f4:	06 93       	lac	Z, r16
    17f6:	10 92 7d 25 	sts	0x257D, r1
    17fa:	10 92 7e 25 	sts	0x257E, r1
    17fe:	10 92 7f 25 	sts	0x257F, r1
    1802:	10 92 80 25 	sts	0x2580, r1
    1806:	10 92 7b 25 	sts	0x257B, r1
    180a:	10 92 7c 25 	sts	0x257C, r1
    180e:	10 92 2c 25 	sts	0x252C, r1
    1812:	0f 91       	pop	r16
    1814:	08 95       	ret

00001816 <udd_ctrl_stall_data>:
    1816:	0f 93       	push	r16
    1818:	85 e0       	ldi	r24, 0x05	; 5
    181a:	80 93 2c 25 	sts	0x252C, r24
    181e:	e5 e4       	ldi	r30, 0x45	; 69
    1820:	f5 e2       	ldi	r31, 0x25	; 37
    1822:	04 e0       	ldi	r16, 0x04	; 4
    1824:	05 93       	las	Z, r16
    1826:	ed e3       	ldi	r30, 0x3D	; 61
    1828:	f5 e2       	ldi	r31, 0x25	; 37
    182a:	04 e0       	ldi	r16, 0x04	; 4
    182c:	05 93       	las	Z, r16
    182e:	0f 91       	pop	r16
    1830:	08 95       	ret

00001832 <udd_ctrl_send_zlp_in>:
    1832:	0f 93       	push	r16
    1834:	83 e0       	ldi	r24, 0x03	; 3
    1836:	80 93 2c 25 	sts	0x252C, r24
    183a:	10 92 46 25 	sts	0x2546, r1
    183e:	10 92 47 25 	sts	0x2547, r1
    1842:	e4 e4       	ldi	r30, 0x44	; 68
    1844:	f5 e2       	ldi	r31, 0x25	; 37
    1846:	02 e0       	ldi	r16, 0x02	; 2
    1848:	06 93       	lac	Z, r16
    184a:	0f 91       	pop	r16
    184c:	08 95       	ret

0000184e <udd_ctrl_endofrequest>:
    184e:	e0 91 7d 25 	lds	r30, 0x257D
    1852:	f0 91 7e 25 	lds	r31, 0x257E
    1856:	30 97       	sbiw	r30, 0x00	; 0
    1858:	09 f0       	breq	.+2      	; 0x185c <udd_ctrl_endofrequest+0xe>
    185a:	09 95       	icall
    185c:	08 95       	ret

0000185e <udd_ctrl_in_sent>:
    185e:	0f 93       	push	r16
    1860:	cf 93       	push	r28
    1862:	df 93       	push	r29
    1864:	80 91 2c 25 	lds	r24, 0x252C
    1868:	83 30       	cpi	r24, 0x03	; 3
    186a:	19 f4       	brne	.+6      	; 0x1872 <udd_ctrl_in_sent+0x14>
    186c:	f0 df       	rcall	.-32     	; 0x184e <udd_ctrl_endofrequest>
    186e:	a8 df       	rcall	.-176    	; 0x17c0 <udd_ctrl_init>
    1870:	60 c0       	rjmp	.+192    	; 0x1932 <udd_ctrl_in_sent+0xd4>
    1872:	80 91 28 25 	lds	r24, 0x2528
    1876:	90 91 29 25 	lds	r25, 0x2529
    187a:	c0 91 7b 25 	lds	r28, 0x257B
    187e:	d0 91 7c 25 	lds	r29, 0x257C
    1882:	c8 1b       	sub	r28, r24
    1884:	d9 0b       	sbc	r29, r25
    1886:	71 f5       	brne	.+92     	; 0x18e4 <udd_ctrl_in_sent+0x86>
    1888:	20 91 2a 25 	lds	r18, 0x252A
    188c:	30 91 2b 25 	lds	r19, 0x252B
    1890:	82 0f       	add	r24, r18
    1892:	93 1f       	adc	r25, r19
    1894:	80 93 2a 25 	sts	0x252A, r24
    1898:	90 93 2b 25 	sts	0x252B, r25
    189c:	20 91 77 25 	lds	r18, 0x2577
    18a0:	30 91 78 25 	lds	r19, 0x2578
    18a4:	82 17       	cp	r24, r18
    18a6:	93 07       	cpc	r25, r19
    18a8:	21 f0       	breq	.+8      	; 0x18b2 <udd_ctrl_in_sent+0x54>
    18aa:	80 91 43 24 	lds	r24, 0x2443
    18ae:	88 23       	and	r24, r24
    18b0:	41 f0       	breq	.+16     	; 0x18c2 <udd_ctrl_in_sent+0x64>
    18b2:	84 e0       	ldi	r24, 0x04	; 4
    18b4:	80 93 2c 25 	sts	0x252C, r24
    18b8:	ec e3       	ldi	r30, 0x3C	; 60
    18ba:	f5 e2       	ldi	r31, 0x25	; 37
    18bc:	02 e0       	ldi	r16, 0x02	; 2
    18be:	06 93       	lac	Z, r16
    18c0:	38 c0       	rjmp	.+112    	; 0x1932 <udd_ctrl_in_sent+0xd4>
    18c2:	e0 91 7f 25 	lds	r30, 0x257F
    18c6:	f0 91 80 25 	lds	r31, 0x2580
    18ca:	30 97       	sbiw	r30, 0x00	; 0
    18cc:	99 f0       	breq	.+38     	; 0x18f4 <udd_ctrl_in_sent+0x96>
    18ce:	09 95       	icall
    18d0:	88 23       	and	r24, r24
    18d2:	81 f0       	breq	.+32     	; 0x18f4 <udd_ctrl_in_sent+0x96>
    18d4:	10 92 28 25 	sts	0x2528, r1
    18d8:	10 92 29 25 	sts	0x2529, r1
    18dc:	c0 91 7b 25 	lds	r28, 0x257B
    18e0:	d0 91 7c 25 	lds	r29, 0x257C
    18e4:	c0 34       	cpi	r28, 0x40	; 64
    18e6:	d1 05       	cpc	r29, r1
    18e8:	28 f0       	brcs	.+10     	; 0x18f4 <udd_ctrl_in_sent+0x96>
    18ea:	10 92 43 24 	sts	0x2443, r1
    18ee:	c0 e4       	ldi	r28, 0x40	; 64
    18f0:	d0 e0       	ldi	r29, 0x00	; 0
    18f2:	03 c0       	rjmp	.+6      	; 0x18fa <udd_ctrl_in_sent+0x9c>
    18f4:	81 e0       	ldi	r24, 0x01	; 1
    18f6:	80 93 43 24 	sts	0x2443, r24
    18fa:	c0 93 46 25 	sts	0x2546, r28
    18fe:	d0 93 47 25 	sts	0x2547, r29
    1902:	80 91 28 25 	lds	r24, 0x2528
    1906:	90 91 29 25 	lds	r25, 0x2529
    190a:	20 91 79 25 	lds	r18, 0x2579
    190e:	30 91 7a 25 	lds	r19, 0x257A
    1912:	28 0f       	add	r18, r24
    1914:	39 1f       	adc	r19, r25
    1916:	20 93 48 25 	sts	0x2548, r18
    191a:	30 93 49 25 	sts	0x2549, r19
    191e:	c8 0f       	add	r28, r24
    1920:	d9 1f       	adc	r29, r25
    1922:	c0 93 28 25 	sts	0x2528, r28
    1926:	d0 93 29 25 	sts	0x2529, r29
    192a:	e4 e4       	ldi	r30, 0x44	; 68
    192c:	f5 e2       	ldi	r31, 0x25	; 37
    192e:	02 e0       	ldi	r16, 0x02	; 2
    1930:	06 93       	lac	Z, r16
    1932:	df 91       	pop	r29
    1934:	cf 91       	pop	r28
    1936:	0f 91       	pop	r16
    1938:	08 95       	ret

0000193a <udd_ep_get_size>:
    193a:	fc 01       	movw	r30, r24
    193c:	81 81       	ldd	r24, Z+1	; 0x01
    193e:	87 70       	andi	r24, 0x07	; 7
    1940:	90 e0       	ldi	r25, 0x00	; 0
    1942:	fc 01       	movw	r30, r24
    1944:	31 97       	sbiw	r30, 0x01	; 1
    1946:	e7 30       	cpi	r30, 0x07	; 7
    1948:	f1 05       	cpc	r31, r1
    194a:	20 f4       	brcc	.+8      	; 0x1954 <udd_ep_get_size+0x1a>
    194c:	e2 50       	subi	r30, 0x02	; 2
    194e:	ff 4f       	sbci	r31, 0xFF	; 255
    1950:	0c 94 37 21 	jmp	0x426e	; 0x426e <__tablejump2__>
    1954:	88 e0       	ldi	r24, 0x08	; 8
    1956:	90 e0       	ldi	r25, 0x00	; 0
    1958:	08 95       	ret
    195a:	80 e2       	ldi	r24, 0x20	; 32
    195c:	90 e0       	ldi	r25, 0x00	; 0
    195e:	08 95       	ret
    1960:	80 e4       	ldi	r24, 0x40	; 64
    1962:	90 e0       	ldi	r25, 0x00	; 0
    1964:	08 95       	ret
    1966:	80 e8       	ldi	r24, 0x80	; 128
    1968:	90 e0       	ldi	r25, 0x00	; 0
    196a:	08 95       	ret
    196c:	80 e0       	ldi	r24, 0x00	; 0
    196e:	91 e0       	ldi	r25, 0x01	; 1
    1970:	08 95       	ret
    1972:	80 e0       	ldi	r24, 0x00	; 0
    1974:	92 e0       	ldi	r25, 0x02	; 2
    1976:	08 95       	ret
    1978:	8f ef       	ldi	r24, 0xFF	; 255
    197a:	93 e0       	ldi	r25, 0x03	; 3
    197c:	08 95       	ret
    197e:	80 e1       	ldi	r24, 0x10	; 16
    1980:	90 e0       	ldi	r25, 0x00	; 0
    1982:	08 95       	ret

00001984 <udd_ep_get_job>:
    1984:	28 2f       	mov	r18, r24
    1986:	2f 70       	andi	r18, 0x0F	; 15
    1988:	30 e0       	ldi	r19, 0x00	; 0
    198a:	22 0f       	add	r18, r18
    198c:	33 1f       	adc	r19, r19
    198e:	99 27       	eor	r25, r25
    1990:	87 fd       	sbrc	r24, 7
    1992:	90 95       	com	r25
    1994:	88 27       	eor	r24, r24
    1996:	99 0f       	add	r25, r25
    1998:	88 1f       	adc	r24, r24
    199a:	99 27       	eor	r25, r25
    199c:	82 0f       	add	r24, r18
    199e:	93 1f       	adc	r25, r19
    19a0:	02 97       	sbiw	r24, 0x02	; 2
    19a2:	9c 01       	movw	r18, r24
    19a4:	22 0f       	add	r18, r18
    19a6:	33 1f       	adc	r19, r19
    19a8:	22 0f       	add	r18, r18
    19aa:	33 1f       	adc	r19, r19
    19ac:	22 0f       	add	r18, r18
    19ae:	33 1f       	adc	r19, r19
    19b0:	82 0f       	add	r24, r18
    19b2:	93 1f       	adc	r25, r19
    19b4:	8c 53       	subi	r24, 0x3C	; 60
    19b6:	9b 4d       	sbci	r25, 0xDB	; 219
    19b8:	08 95       	ret

000019ba <udd_ctrl_interrupt_tc_setup>:
    19ba:	0f 93       	push	r16
    19bc:	cf 93       	push	r28
    19be:	80 91 cc 04 	lds	r24, 0x04CC
    19c2:	80 ff       	sbrs	r24, 0
    19c4:	62 c0       	rjmp	.+196    	; 0x1a8a <udd_ctrl_interrupt_tc_setup+0xd0>
    19c6:	81 e0       	ldi	r24, 0x01	; 1
    19c8:	80 93 cc 04 	sts	0x04CC, r24
    19cc:	ec e3       	ldi	r30, 0x3C	; 60
    19ce:	f5 e2       	ldi	r31, 0x25	; 37
    19d0:	00 e8       	ldi	r16, 0x80	; 128
    19d2:	06 93       	lac	Z, r16
    19d4:	e4 e4       	ldi	r30, 0x44	; 68
    19d6:	f5 e2       	ldi	r31, 0x25	; 37
    19d8:	00 e8       	ldi	r16, 0x80	; 128
    19da:	06 93       	lac	Z, r16
    19dc:	80 93 ca 04 	sts	0x04CA, r24
    19e0:	ec e3       	ldi	r30, 0x3C	; 60
    19e2:	f5 e2       	ldi	r31, 0x25	; 37
    19e4:	00 e1       	ldi	r16, 0x10	; 16
    19e6:	06 93       	lac	Z, r16
    19e8:	80 91 2c 25 	lds	r24, 0x252C
    19ec:	88 23       	and	r24, r24
    19ee:	29 f0       	breq	.+10     	; 0x19fa <udd_ctrl_interrupt_tc_setup+0x40>
    19f0:	83 50       	subi	r24, 0x03	; 3
    19f2:	82 30       	cpi	r24, 0x02	; 2
    19f4:	08 f4       	brcc	.+2      	; 0x19f8 <udd_ctrl_interrupt_tc_setup+0x3e>
    19f6:	2b df       	rcall	.-426    	; 0x184e <udd_ctrl_endofrequest>
    19f8:	e3 de       	rcall	.-570    	; 0x17c0 <udd_ctrl_init>
    19fa:	80 91 3e 25 	lds	r24, 0x253E
    19fe:	90 91 3f 25 	lds	r25, 0x253F
    1a02:	08 97       	sbiw	r24, 0x08	; 8
    1a04:	09 f0       	breq	.+2      	; 0x1a08 <udd_ctrl_interrupt_tc_setup+0x4e>
    1a06:	43 c0       	rjmp	.+134    	; 0x1a8e <udd_ctrl_interrupt_tc_setup+0xd4>
    1a08:	88 e0       	ldi	r24, 0x08	; 8
    1a0a:	e8 ee       	ldi	r30, 0xE8	; 232
    1a0c:	f4 e2       	ldi	r31, 0x24	; 36
    1a0e:	a1 e7       	ldi	r26, 0x71	; 113
    1a10:	b5 e2       	ldi	r27, 0x25	; 37
    1a12:	01 90       	ld	r0, Z+
    1a14:	0d 92       	st	X+, r0
    1a16:	8a 95       	dec	r24
    1a18:	e1 f7       	brne	.-8      	; 0x1a12 <udd_ctrl_interrupt_tc_setup+0x58>
    1a1a:	e8 ec       	ldi	r30, 0xC8	; 200
    1a1c:	f4 e0       	ldi	r31, 0x04	; 4
    1a1e:	80 81       	ld	r24, Z
    1a20:	80 62       	ori	r24, 0x20	; 32
    1a22:	80 83       	st	Z, r24
    1a24:	80 81       	ld	r24, Z
    1a26:	80 62       	ori	r24, 0x20	; 32
    1a28:	80 83       	st	Z, r24
    1a2a:	c2 d8       	rcall	.-3708   	; 0xbb0 <udc_process_setup>
    1a2c:	c8 2f       	mov	r28, r24
    1a2e:	81 11       	cpse	r24, r1
    1a30:	03 c0       	rjmp	.+6      	; 0x1a38 <udd_ctrl_interrupt_tc_setup+0x7e>
    1a32:	f1 de       	rcall	.-542    	; 0x1816 <udd_ctrl_stall_data>
    1a34:	c1 e0       	ldi	r28, 0x01	; 1
    1a36:	2c c0       	rjmp	.+88     	; 0x1a90 <udd_ctrl_interrupt_tc_setup+0xd6>
    1a38:	80 91 71 25 	lds	r24, 0x2571
    1a3c:	88 23       	and	r24, r24
    1a3e:	6c f4       	brge	.+26     	; 0x1a5a <udd_ctrl_interrupt_tc_setup+0xa0>
    1a40:	10 92 2a 25 	sts	0x252A, r1
    1a44:	10 92 2b 25 	sts	0x252B, r1
    1a48:	10 92 28 25 	sts	0x2528, r1
    1a4c:	10 92 29 25 	sts	0x2529, r1
    1a50:	82 e0       	ldi	r24, 0x02	; 2
    1a52:	80 93 2c 25 	sts	0x252C, r24
    1a56:	03 df       	rcall	.-506    	; 0x185e <udd_ctrl_in_sent>
    1a58:	1b c0       	rjmp	.+54     	; 0x1a90 <udd_ctrl_interrupt_tc_setup+0xd6>
    1a5a:	20 91 77 25 	lds	r18, 0x2577
    1a5e:	30 91 78 25 	lds	r19, 0x2578
    1a62:	23 2b       	or	r18, r19
    1a64:	11 f4       	brne	.+4      	; 0x1a6a <udd_ctrl_interrupt_tc_setup+0xb0>
    1a66:	e5 de       	rcall	.-566    	; 0x1832 <udd_ctrl_send_zlp_in>
    1a68:	13 c0       	rjmp	.+38     	; 0x1a90 <udd_ctrl_interrupt_tc_setup+0xd6>
    1a6a:	10 92 2a 25 	sts	0x252A, r1
    1a6e:	10 92 2b 25 	sts	0x252B, r1
    1a72:	10 92 28 25 	sts	0x2528, r1
    1a76:	10 92 29 25 	sts	0x2529, r1
    1a7a:	81 e0       	ldi	r24, 0x01	; 1
    1a7c:	80 93 2c 25 	sts	0x252C, r24
    1a80:	ec e3       	ldi	r30, 0x3C	; 60
    1a82:	f5 e2       	ldi	r31, 0x25	; 37
    1a84:	02 e0       	ldi	r16, 0x02	; 2
    1a86:	06 93       	lac	Z, r16
    1a88:	03 c0       	rjmp	.+6      	; 0x1a90 <udd_ctrl_interrupt_tc_setup+0xd6>
    1a8a:	c0 e0       	ldi	r28, 0x00	; 0
    1a8c:	01 c0       	rjmp	.+2      	; 0x1a90 <udd_ctrl_interrupt_tc_setup+0xd6>
    1a8e:	c1 e0       	ldi	r28, 0x01	; 1
    1a90:	8c 2f       	mov	r24, r28
    1a92:	cf 91       	pop	r28
    1a94:	0f 91       	pop	r16
    1a96:	08 95       	ret

00001a98 <udd_ep_trans_complet>:
    1a98:	bf 92       	push	r11
    1a9a:	cf 92       	push	r12
    1a9c:	df 92       	push	r13
    1a9e:	ef 92       	push	r14
    1aa0:	ff 92       	push	r15
    1aa2:	0f 93       	push	r16
    1aa4:	1f 93       	push	r17
    1aa6:	cf 93       	push	r28
    1aa8:	df 93       	push	r29
    1aaa:	b8 2e       	mov	r11, r24
    1aac:	6b df       	rcall	.-298    	; 0x1984 <udd_ep_get_job>
    1aae:	ec 01       	movw	r28, r24
    1ab0:	1b 2d       	mov	r17, r11
    1ab2:	11 1f       	adc	r17, r17
    1ab4:	11 27       	eor	r17, r17
    1ab6:	11 1f       	adc	r17, r17
    1ab8:	8b 2d       	mov	r24, r11
    1aba:	8f 70       	andi	r24, 0x0F	; 15
    1abc:	e8 2e       	mov	r14, r24
    1abe:	f1 2c       	mov	r15, r1
    1ac0:	ee 0c       	add	r14, r14
    1ac2:	ff 1c       	adc	r15, r15
    1ac4:	e1 0e       	add	r14, r17
    1ac6:	f1 1c       	adc	r15, r1
    1ac8:	c7 01       	movw	r24, r14
    1aca:	88 0f       	add	r24, r24
    1acc:	99 1f       	adc	r25, r25
    1ace:	88 0f       	add	r24, r24
    1ad0:	99 1f       	adc	r25, r25
    1ad2:	88 0f       	add	r24, r24
    1ad4:	99 1f       	adc	r25, r25
    1ad6:	9c 01       	movw	r18, r24
    1ad8:	24 5c       	subi	r18, 0xC4	; 196
    1ada:	3a 4d       	sbci	r19, 0xDA	; 218
    1adc:	79 01       	movw	r14, r18
    1ade:	c9 01       	movw	r24, r18
    1ae0:	2c df       	rcall	.-424    	; 0x193a <udd_ep_get_size>
    1ae2:	6c 01       	movw	r12, r24
    1ae4:	11 23       	and	r17, r17
    1ae6:	09 f4       	brne	.+2      	; 0x1aea <udd_ep_trans_complet+0x52>
    1ae8:	5b c0       	rjmp	.+182    	; 0x1ba0 <udd_ep_trans_complet+0x108>
    1aea:	d7 01       	movw	r26, r14
    1aec:	16 96       	adiw	r26, 0x06	; 6
    1aee:	2d 91       	ld	r18, X+
    1af0:	3c 91       	ld	r19, X
    1af2:	17 97       	sbiw	r26, 0x07	; 7
    1af4:	8d 81       	ldd	r24, Y+5	; 0x05
    1af6:	9e 81       	ldd	r25, Y+6	; 0x06
    1af8:	28 0f       	add	r18, r24
    1afa:	39 1f       	adc	r19, r25
    1afc:	2d 83       	std	Y+5, r18	; 0x05
    1afe:	3e 83       	std	Y+6, r19	; 0x06
    1b00:	8b 81       	ldd	r24, Y+3	; 0x03
    1b02:	9c 81       	ldd	r25, Y+4	; 0x04
    1b04:	28 17       	cp	r18, r24
    1b06:	39 07       	cpc	r19, r25
    1b08:	c9 f1       	breq	.+114    	; 0x1b7c <udd_ep_trans_complet+0xe4>
    1b0a:	fc 01       	movw	r30, r24
    1b0c:	e2 1b       	sub	r30, r18
    1b0e:	f3 0b       	sbc	r31, r19
    1b10:	9f 01       	movw	r18, r30
    1b12:	21 15       	cp	r18, r1
    1b14:	f4 e0       	ldi	r31, 0x04	; 4
    1b16:	3f 07       	cpc	r19, r31
    1b18:	40 f0       	brcs	.+16     	; 0x1b2a <udd_ep_trans_complet+0x92>
    1b1a:	2f ef       	ldi	r18, 0xFF	; 255
    1b1c:	33 e0       	ldi	r19, 0x03	; 3
    1b1e:	c9 01       	movw	r24, r18
    1b20:	b6 01       	movw	r22, r12
    1b22:	0e 94 01 21 	call	0x4202	; 0x4202 <__udivmodhi4>
    1b26:	28 1b       	sub	r18, r24
    1b28:	39 0b       	sbc	r19, r25
    1b2a:	88 81       	ld	r24, Y
    1b2c:	81 ff       	sbrs	r24, 1
    1b2e:	0a c0       	rjmp	.+20     	; 0x1b44 <udd_ep_trans_complet+0xac>
    1b30:	c9 01       	movw	r24, r18
    1b32:	b6 01       	movw	r22, r12
    1b34:	0e 94 01 21 	call	0x4202	; 0x4202 <__udivmodhi4>
    1b38:	41 e0       	ldi	r20, 0x01	; 1
    1b3a:	89 2b       	or	r24, r25
    1b3c:	09 f0       	breq	.+2      	; 0x1b40 <udd_ep_trans_complet+0xa8>
    1b3e:	40 e0       	ldi	r20, 0x00	; 0
    1b40:	94 2f       	mov	r25, r20
    1b42:	01 c0       	rjmp	.+2      	; 0x1b46 <udd_ep_trans_complet+0xae>
    1b44:	90 e0       	ldi	r25, 0x00	; 0
    1b46:	88 81       	ld	r24, Y
    1b48:	90 fb       	bst	r25, 0
    1b4a:	81 f9       	bld	r24, 1
    1b4c:	88 83       	st	Y, r24
    1b4e:	d7 01       	movw	r26, r14
    1b50:	16 96       	adiw	r26, 0x06	; 6
    1b52:	1d 92       	st	X+, r1
    1b54:	1c 92       	st	X, r1
    1b56:	17 97       	sbiw	r26, 0x07	; 7
    1b58:	12 96       	adiw	r26, 0x02	; 2
    1b5a:	2d 93       	st	X+, r18
    1b5c:	3c 93       	st	X, r19
    1b5e:	13 97       	sbiw	r26, 0x03	; 3
    1b60:	29 81       	ldd	r18, Y+1	; 0x01
    1b62:	3a 81       	ldd	r19, Y+2	; 0x02
    1b64:	8d 81       	ldd	r24, Y+5	; 0x05
    1b66:	9e 81       	ldd	r25, Y+6	; 0x06
    1b68:	82 0f       	add	r24, r18
    1b6a:	93 1f       	adc	r25, r19
    1b6c:	14 96       	adiw	r26, 0x04	; 4
    1b6e:	8d 93       	st	X+, r24
    1b70:	9c 93       	st	X, r25
    1b72:	15 97       	sbiw	r26, 0x05	; 5
    1b74:	f7 01       	movw	r30, r14
    1b76:	02 e0       	ldi	r16, 0x02	; 2
    1b78:	06 93       	lac	Z, r16
    1b7a:	98 c0       	rjmp	.+304    	; 0x1cac <udd_ep_trans_complet+0x214>
    1b7c:	88 81       	ld	r24, Y
    1b7e:	81 ff       	sbrs	r24, 1
    1b80:	87 c0       	rjmp	.+270    	; 0x1c90 <udd_ep_trans_complet+0x1f8>
    1b82:	8d 7f       	andi	r24, 0xFD	; 253
    1b84:	88 83       	st	Y, r24
    1b86:	d7 01       	movw	r26, r14
    1b88:	16 96       	adiw	r26, 0x06	; 6
    1b8a:	1d 92       	st	X+, r1
    1b8c:	1c 92       	st	X, r1
    1b8e:	17 97       	sbiw	r26, 0x07	; 7
    1b90:	12 96       	adiw	r26, 0x02	; 2
    1b92:	1d 92       	st	X+, r1
    1b94:	1c 92       	st	X, r1
    1b96:	13 97       	sbiw	r26, 0x03	; 3
    1b98:	f7 01       	movw	r30, r14
    1b9a:	02 e0       	ldi	r16, 0x02	; 2
    1b9c:	06 93       	lac	Z, r16
    1b9e:	86 c0       	rjmp	.+268    	; 0x1cac <udd_ep_trans_complet+0x214>
    1ba0:	d7 01       	movw	r26, r14
    1ba2:	12 96       	adiw	r26, 0x02	; 2
    1ba4:	0d 91       	ld	r16, X+
    1ba6:	1c 91       	ld	r17, X
    1ba8:	13 97       	sbiw	r26, 0x03	; 3
    1baa:	88 81       	ld	r24, Y
    1bac:	82 ff       	sbrs	r24, 2
    1bae:	15 c0       	rjmp	.+42     	; 0x1bda <udd_ep_trans_complet+0x142>
    1bb0:	e9 81       	ldd	r30, Y+1	; 0x01
    1bb2:	fa 81       	ldd	r31, Y+2	; 0x02
    1bb4:	2d 81       	ldd	r18, Y+5	; 0x05
    1bb6:	3e 81       	ldd	r19, Y+6	; 0x06
    1bb8:	8b 81       	ldd	r24, Y+3	; 0x03
    1bba:	9c 81       	ldd	r25, Y+4	; 0x04
    1bbc:	b6 01       	movw	r22, r12
    1bbe:	0e 94 01 21 	call	0x4202	; 0x4202 <__udivmodhi4>
    1bc2:	b0 e4       	ldi	r27, 0x40	; 64
    1bc4:	bb 9e       	mul	r11, r27
    1bc6:	b0 01       	movw	r22, r0
    1bc8:	11 24       	eor	r1, r1
    1bca:	6c 5f       	subi	r22, 0xFC	; 252
    1bcc:	7b 4d       	sbci	r23, 0xDB	; 219
    1bce:	ac 01       	movw	r20, r24
    1bd0:	cf 01       	movw	r24, r30
    1bd2:	82 0f       	add	r24, r18
    1bd4:	93 1f       	adc	r25, r19
    1bd6:	0e 94 3d 21 	call	0x427a	; 0x427a <memcpy>
    1bda:	2d 81       	ldd	r18, Y+5	; 0x05
    1bdc:	3e 81       	ldd	r19, Y+6	; 0x06
    1bde:	20 0f       	add	r18, r16
    1be0:	31 1f       	adc	r19, r17
    1be2:	2d 83       	std	Y+5, r18	; 0x05
    1be4:	3e 83       	std	Y+6, r19	; 0x06
    1be6:	eb 81       	ldd	r30, Y+3	; 0x03
    1be8:	fc 81       	ldd	r31, Y+4	; 0x04
    1bea:	e2 17       	cp	r30, r18
    1bec:	f3 07       	cpc	r31, r19
    1bee:	10 f4       	brcc	.+4      	; 0x1bf4 <udd_ep_trans_complet+0x15c>
    1bf0:	ed 83       	std	Y+5, r30	; 0x05
    1bf2:	fe 83       	std	Y+6, r31	; 0x06
    1bf4:	d7 01       	movw	r26, r14
    1bf6:	16 96       	adiw	r26, 0x06	; 6
    1bf8:	8d 91       	ld	r24, X+
    1bfa:	9c 91       	ld	r25, X
    1bfc:	17 97       	sbiw	r26, 0x07	; 7
    1bfe:	80 17       	cp	r24, r16
    1c00:	91 07       	cpc	r25, r17
    1c02:	09 f0       	breq	.+2      	; 0x1c06 <udd_ep_trans_complet+0x16e>
    1c04:	45 c0       	rjmp	.+138    	; 0x1c90 <udd_ep_trans_complet+0x1f8>
    1c06:	8d 81       	ldd	r24, Y+5	; 0x05
    1c08:	9e 81       	ldd	r25, Y+6	; 0x06
    1c0a:	e8 17       	cp	r30, r24
    1c0c:	f9 07       	cpc	r31, r25
    1c0e:	09 f4       	brne	.+2      	; 0x1c12 <udd_ep_trans_complet+0x17a>
    1c10:	3f c0       	rjmp	.+126    	; 0x1c90 <udd_ep_trans_complet+0x1f8>
    1c12:	e8 1b       	sub	r30, r24
    1c14:	f9 0b       	sbc	r31, r25
    1c16:	e1 15       	cp	r30, r1
    1c18:	b4 e0       	ldi	r27, 0x04	; 4
    1c1a:	fb 07       	cpc	r31, r27
    1c1c:	48 f0       	brcs	.+18     	; 0x1c30 <udd_ep_trans_complet+0x198>
    1c1e:	ef ef       	ldi	r30, 0xFF	; 255
    1c20:	f3 e0       	ldi	r31, 0x03	; 3
    1c22:	cf 01       	movw	r24, r30
    1c24:	b6 01       	movw	r22, r12
    1c26:	0e 94 01 21 	call	0x4202	; 0x4202 <__udivmodhi4>
    1c2a:	e8 1b       	sub	r30, r24
    1c2c:	f9 0b       	sbc	r31, r25
    1c2e:	06 c0       	rjmp	.+12     	; 0x1c3c <udd_ep_trans_complet+0x1a4>
    1c30:	cf 01       	movw	r24, r30
    1c32:	b6 01       	movw	r22, r12
    1c34:	0e 94 01 21 	call	0x4202	; 0x4202 <__udivmodhi4>
    1c38:	e8 1b       	sub	r30, r24
    1c3a:	f9 0b       	sbc	r31, r25
    1c3c:	d7 01       	movw	r26, r14
    1c3e:	12 96       	adiw	r26, 0x02	; 2
    1c40:	1d 92       	st	X+, r1
    1c42:	1c 92       	st	X, r1
    1c44:	13 97       	sbiw	r26, 0x03	; 3
    1c46:	ec 15       	cp	r30, r12
    1c48:	fd 05       	cpc	r31, r13
    1c4a:	78 f4       	brcc	.+30     	; 0x1c6a <udd_ep_trans_complet+0x1d2>
    1c4c:	88 81       	ld	r24, Y
    1c4e:	84 60       	ori	r24, 0x04	; 4
    1c50:	88 83       	st	Y, r24
    1c52:	b0 e4       	ldi	r27, 0x40	; 64
    1c54:	bb 9e       	mul	r11, r27
    1c56:	c0 01       	movw	r24, r0
    1c58:	11 24       	eor	r1, r1
    1c5a:	8c 5f       	subi	r24, 0xFC	; 252
    1c5c:	9b 4d       	sbci	r25, 0xDB	; 219
    1c5e:	f7 01       	movw	r30, r14
    1c60:	84 83       	std	Z+4, r24	; 0x04
    1c62:	95 83       	std	Z+5, r25	; 0x05
    1c64:	c6 82       	std	Z+6, r12	; 0x06
    1c66:	d7 82       	std	Z+7, r13	; 0x07
    1c68:	0f c0       	rjmp	.+30     	; 0x1c88 <udd_ep_trans_complet+0x1f0>
    1c6a:	29 81       	ldd	r18, Y+1	; 0x01
    1c6c:	3a 81       	ldd	r19, Y+2	; 0x02
    1c6e:	8d 81       	ldd	r24, Y+5	; 0x05
    1c70:	9e 81       	ldd	r25, Y+6	; 0x06
    1c72:	82 0f       	add	r24, r18
    1c74:	93 1f       	adc	r25, r19
    1c76:	d7 01       	movw	r26, r14
    1c78:	14 96       	adiw	r26, 0x04	; 4
    1c7a:	8d 93       	st	X+, r24
    1c7c:	9c 93       	st	X, r25
    1c7e:	15 97       	sbiw	r26, 0x05	; 5
    1c80:	16 96       	adiw	r26, 0x06	; 6
    1c82:	ed 93       	st	X+, r30
    1c84:	fc 93       	st	X, r31
    1c86:	17 97       	sbiw	r26, 0x07	; 7
    1c88:	f7 01       	movw	r30, r14
    1c8a:	02 e0       	ldi	r16, 0x02	; 2
    1c8c:	06 93       	lac	Z, r16
    1c8e:	0e c0       	rjmp	.+28     	; 0x1cac <udd_ep_trans_complet+0x214>
    1c90:	88 81       	ld	r24, Y
    1c92:	80 ff       	sbrs	r24, 0
    1c94:	0b c0       	rjmp	.+22     	; 0x1cac <udd_ep_trans_complet+0x214>
    1c96:	8e 7f       	andi	r24, 0xFE	; 254
    1c98:	88 83       	st	Y, r24
    1c9a:	ef 81       	ldd	r30, Y+7	; 0x07
    1c9c:	f8 85       	ldd	r31, Y+8	; 0x08
    1c9e:	30 97       	sbiw	r30, 0x00	; 0
    1ca0:	29 f0       	breq	.+10     	; 0x1cac <udd_ep_trans_complet+0x214>
    1ca2:	6d 81       	ldd	r22, Y+5	; 0x05
    1ca4:	7e 81       	ldd	r23, Y+6	; 0x06
    1ca6:	4b 2d       	mov	r20, r11
    1ca8:	80 e0       	ldi	r24, 0x00	; 0
    1caa:	09 95       	icall
    1cac:	df 91       	pop	r29
    1cae:	cf 91       	pop	r28
    1cb0:	1f 91       	pop	r17
    1cb2:	0f 91       	pop	r16
    1cb4:	ff 90       	pop	r15
    1cb6:	ef 90       	pop	r14
    1cb8:	df 90       	pop	r13
    1cba:	cf 90       	pop	r12
    1cbc:	bf 90       	pop	r11
    1cbe:	08 95       	ret

00001cc0 <udd_attach>:
    1cc0:	cf 93       	push	r28
    1cc2:	cf b7       	in	r28, 0x3f	; 63
    1cc4:	f8 94       	cli
    1cc6:	81 e0       	ldi	r24, 0x01	; 1
    1cc8:	5c dd       	rcall	.-1352   	; 0x1782 <udd_sleep_mode>
    1cca:	ea ec       	ldi	r30, 0xCA	; 202
    1ccc:	f4 e0       	ldi	r31, 0x04	; 4
    1cce:	80 e4       	ldi	r24, 0x40	; 64
    1cd0:	80 83       	st	Z, r24
    1cd2:	80 e2       	ldi	r24, 0x20	; 32
    1cd4:	80 83       	st	Z, r24
    1cd6:	e1 ec       	ldi	r30, 0xC1	; 193
    1cd8:	f4 e0       	ldi	r31, 0x04	; 4
    1cda:	80 81       	ld	r24, Z
    1cdc:	81 60       	ori	r24, 0x01	; 1
    1cde:	80 83       	st	Z, r24
    1ce0:	a9 ec       	ldi	r26, 0xC9	; 201
    1ce2:	b4 e0       	ldi	r27, 0x04	; 4
    1ce4:	8c 91       	ld	r24, X
    1ce6:	82 60       	ori	r24, 0x02	; 2
    1ce8:	8c 93       	st	X, r24
    1cea:	e8 ec       	ldi	r30, 0xC8	; 200
    1cec:	f4 e0       	ldi	r31, 0x04	; 4
    1cee:	80 81       	ld	r24, Z
    1cf0:	80 64       	ori	r24, 0x40	; 64
    1cf2:	80 83       	st	Z, r24
    1cf4:	8c 91       	ld	r24, X
    1cf6:	81 60       	ori	r24, 0x01	; 1
    1cf8:	8c 93       	st	X, r24
    1cfa:	80 81       	ld	r24, Z
    1cfc:	80 68       	ori	r24, 0x80	; 128
    1cfe:	80 83       	st	Z, r24
    1d00:	cf bf       	out	0x3f, r28	; 63
    1d02:	cf 91       	pop	r28
    1d04:	08 95       	ret

00001d06 <udd_enable>:
    1d06:	cf 93       	push	r28
    1d08:	80 e3       	ldi	r24, 0x30	; 48
    1d0a:	1e d4       	rcall	.+2108   	; 0x2548 <sysclk_enable_usb>
    1d0c:	e0 ec       	ldi	r30, 0xC0	; 192
    1d0e:	f4 e0       	ldi	r31, 0x04	; 4
    1d10:	80 81       	ld	r24, Z
    1d12:	80 64       	ori	r24, 0x40	; 64
    1d14:	80 83       	st	Z, r24
    1d16:	cf b7       	in	r28, 0x3f	; 63
    1d18:	f8 94       	cli
    1d1a:	10 92 3d 25 	sts	0x253D, r1
    1d1e:	10 92 45 25 	sts	0x2545, r1
    1d22:	10 92 4d 25 	sts	0x254D, r1
    1d26:	10 92 55 25 	sts	0x2555, r1
    1d2a:	10 92 5d 25 	sts	0x255D, r1
    1d2e:	10 92 65 25 	sts	0x2565, r1
    1d32:	e4 ec       	ldi	r30, 0xC4	; 196
    1d34:	f4 e2       	ldi	r31, 0x24	; 36
    1d36:	80 81       	ld	r24, Z
    1d38:	8e 7f       	andi	r24, 0xFE	; 254
    1d3a:	80 83       	st	Z, r24
    1d3c:	ed ec       	ldi	r30, 0xCD	; 205
    1d3e:	f4 e2       	ldi	r31, 0x24	; 36
    1d40:	80 81       	ld	r24, Z
    1d42:	8e 7f       	andi	r24, 0xFE	; 254
    1d44:	80 83       	st	Z, r24
    1d46:	e6 ed       	ldi	r30, 0xD6	; 214
    1d48:	f4 e2       	ldi	r31, 0x24	; 36
    1d4a:	80 81       	ld	r24, Z
    1d4c:	8e 7f       	andi	r24, 0xFE	; 254
    1d4e:	80 83       	st	Z, r24
    1d50:	ef ed       	ldi	r30, 0xDF	; 223
    1d52:	f4 e2       	ldi	r31, 0x24	; 36
    1d54:	80 81       	ld	r24, Z
    1d56:	8e 7f       	andi	r24, 0xFE	; 254
    1d58:	80 83       	st	Z, r24
    1d5a:	6a e1       	ldi	r22, 0x1A	; 26
    1d5c:	70 e0       	ldi	r23, 0x00	; 0
    1d5e:	82 e0       	ldi	r24, 0x02	; 2
    1d60:	0e d4       	rcall	.+2076   	; 0x257e <nvm_read_byte>
    1d62:	8f 3f       	cpi	r24, 0xFF	; 255
    1d64:	19 f0       	breq	.+6      	; 0x1d6c <udd_enable+0x66>
    1d66:	80 93 fa 04 	sts	0x04FA, r24
    1d6a:	03 c0       	rjmp	.+6      	; 0x1d72 <udd_enable+0x6c>
    1d6c:	8f e1       	ldi	r24, 0x1F	; 31
    1d6e:	80 93 fa 04 	sts	0x04FA, r24
    1d72:	6b e1       	ldi	r22, 0x1B	; 27
    1d74:	70 e0       	ldi	r23, 0x00	; 0
    1d76:	82 e0       	ldi	r24, 0x02	; 2
    1d78:	02 d4       	rcall	.+2052   	; 0x257e <nvm_read_byte>
    1d7a:	8f 3f       	cpi	r24, 0xFF	; 255
    1d7c:	19 f0       	breq	.+6      	; 0x1d84 <udd_enable+0x7e>
    1d7e:	80 93 fb 04 	sts	0x04FB, r24
    1d82:	03 c0       	rjmp	.+6      	; 0x1d8a <udd_enable+0x84>
    1d84:	8f e1       	ldi	r24, 0x1F	; 31
    1d86:	80 93 fb 04 	sts	0x04FB, r24
    1d8a:	e0 ec       	ldi	r30, 0xC0	; 192
    1d8c:	f4 e0       	ldi	r31, 0x04	; 4
    1d8e:	80 81       	ld	r24, Z
    1d90:	82 60       	ori	r24, 0x02	; 2
    1d92:	80 83       	st	Z, r24
    1d94:	80 81       	ld	r24, Z
    1d96:	80 68       	ori	r24, 0x80	; 128
    1d98:	80 83       	st	Z, r24
    1d9a:	80 81       	ld	r24, Z
    1d9c:	80 61       	ori	r24, 0x10	; 16
    1d9e:	80 83       	st	Z, r24
    1da0:	8c e3       	ldi	r24, 0x3C	; 60
    1da2:	95 e2       	ldi	r25, 0x25	; 37
    1da4:	86 83       	std	Z+6, r24	; 0x06
    1da6:	97 83       	std	Z+7, r25	; 0x07
    1da8:	80 81       	ld	r24, Z
    1daa:	80 62       	ori	r24, 0x20	; 32
    1dac:	80 83       	st	Z, r24
    1dae:	8f ef       	ldi	r24, 0xFF	; 255
    1db0:	80 93 c5 04 	sts	0x04C5, r24
    1db4:	e8 ec       	ldi	r30, 0xC8	; 200
    1db6:	f4 e0       	ldi	r31, 0x04	; 4
    1db8:	80 81       	ld	r24, Z
    1dba:	81 60       	ori	r24, 0x01	; 1
    1dbc:	80 83       	st	Z, r24
    1dbe:	10 92 70 25 	sts	0x2570, r1
    1dc2:	8f b7       	in	r24, 0x3f	; 63
    1dc4:	f8 94       	cli
    1dc6:	e6 e8       	ldi	r30, 0x86	; 134
    1dc8:	f5 e2       	ldi	r31, 0x25	; 37
    1dca:	90 81       	ld	r25, Z
    1dcc:	9f 5f       	subi	r25, 0xFF	; 255
    1dce:	90 83       	st	Z, r25
    1dd0:	8f bf       	out	0x3f, r24	; 63
    1dd2:	76 df       	rcall	.-276    	; 0x1cc0 <udd_attach>
    1dd4:	cf bf       	out	0x3f, r28	; 63
    1dd6:	cf 91       	pop	r28
    1dd8:	08 95       	ret

00001dda <udd_is_high_speed>:
    1dda:	80 e0       	ldi	r24, 0x00	; 0
    1ddc:	08 95       	ret

00001dde <udd_set_address>:
    1dde:	80 93 c3 04 	sts	0x04C3, r24
    1de2:	08 95       	ret

00001de4 <udd_getaddress>:
    1de4:	80 91 c3 04 	lds	r24, 0x04C3
    1de8:	08 95       	ret

00001dea <udd_get_frame_number>:
    1dea:	80 91 6c 25 	lds	r24, 0x256C
    1dee:	90 91 6d 25 	lds	r25, 0x256D
    1df2:	08 95       	ret

00001df4 <udd_get_micro_frame_number>:
    1df4:	80 e0       	ldi	r24, 0x00	; 0
    1df6:	90 e0       	ldi	r25, 0x00	; 0
    1df8:	08 95       	ret

00001dfa <udd_set_setup_payload>:
    1dfa:	80 93 79 25 	sts	0x2579, r24
    1dfe:	90 93 7a 25 	sts	0x257A, r25
    1e02:	60 93 7b 25 	sts	0x257B, r22
    1e06:	70 93 7c 25 	sts	0x257C, r23
    1e0a:	08 95       	ret

00001e0c <udd_ep_alloc>:
    1e0c:	e8 2f       	mov	r30, r24
    1e0e:	ef 70       	andi	r30, 0x0F	; 15
    1e10:	f0 e0       	ldi	r31, 0x00	; 0
    1e12:	ee 0f       	add	r30, r30
    1e14:	ff 1f       	adc	r31, r31
    1e16:	99 27       	eor	r25, r25
    1e18:	87 fd       	sbrc	r24, 7
    1e1a:	90 95       	com	r25
    1e1c:	88 27       	eor	r24, r24
    1e1e:	99 0f       	add	r25, r25
    1e20:	88 1f       	adc	r24, r24
    1e22:	99 27       	eor	r25, r25
    1e24:	e8 0f       	add	r30, r24
    1e26:	f9 1f       	adc	r31, r25
    1e28:	ee 0f       	add	r30, r30
    1e2a:	ff 1f       	adc	r31, r31
    1e2c:	ee 0f       	add	r30, r30
    1e2e:	ff 1f       	adc	r31, r31
    1e30:	ee 0f       	add	r30, r30
    1e32:	ff 1f       	adc	r31, r31
    1e34:	e4 5c       	subi	r30, 0xC4	; 196
    1e36:	fa 4d       	sbci	r31, 0xDA	; 218
    1e38:	81 81       	ldd	r24, Z+1	; 0x01
    1e3a:	80 7c       	andi	r24, 0xC0	; 192
    1e3c:	09 f0       	breq	.+2      	; 0x1e40 <udd_ep_alloc+0x34>
    1e3e:	43 c0       	rjmp	.+134    	; 0x1ec6 <udd_ep_alloc+0xba>
    1e40:	63 70       	andi	r22, 0x03	; 3
    1e42:	61 30       	cpi	r22, 0x01	; 1
    1e44:	29 f0       	breq	.+10     	; 0x1e50 <udd_ep_alloc+0x44>
    1e46:	10 f4       	brcc	.+4      	; 0x1e4c <udd_ep_alloc+0x40>
    1e48:	80 e4       	ldi	r24, 0x40	; 64
    1e4a:	03 c0       	rjmp	.+6      	; 0x1e52 <udd_ep_alloc+0x46>
    1e4c:	80 e8       	ldi	r24, 0x80	; 128
    1e4e:	01 c0       	rjmp	.+2      	; 0x1e52 <udd_ep_alloc+0x46>
    1e50:	80 ec       	ldi	r24, 0xC0	; 192
    1e52:	40 38       	cpi	r20, 0x80	; 128
    1e54:	51 05       	cpc	r21, r1
    1e56:	e1 f0       	breq	.+56     	; 0x1e90 <udd_ep_alloc+0x84>
    1e58:	50 f4       	brcc	.+20     	; 0x1e6e <udd_ep_alloc+0x62>
    1e5a:	40 32       	cpi	r20, 0x20	; 32
    1e5c:	51 05       	cpc	r21, r1
    1e5e:	a1 f0       	breq	.+40     	; 0x1e88 <udd_ep_alloc+0x7c>
    1e60:	40 34       	cpi	r20, 0x40	; 64
    1e62:	51 05       	cpc	r21, r1
    1e64:	99 f0       	breq	.+38     	; 0x1e8c <udd_ep_alloc+0x80>
    1e66:	40 31       	cpi	r20, 0x10	; 16
    1e68:	51 05       	cpc	r21, r1
    1e6a:	61 f4       	brne	.+24     	; 0x1e84 <udd_ep_alloc+0x78>
    1e6c:	19 c0       	rjmp	.+50     	; 0x1ea0 <udd_ep_alloc+0x94>
    1e6e:	41 15       	cp	r20, r1
    1e70:	92 e0       	ldi	r25, 0x02	; 2
    1e72:	59 07       	cpc	r21, r25
    1e74:	89 f0       	breq	.+34     	; 0x1e98 <udd_ep_alloc+0x8c>
    1e76:	4f 3f       	cpi	r20, 0xFF	; 255
    1e78:	93 e0       	ldi	r25, 0x03	; 3
    1e7a:	59 07       	cpc	r21, r25
    1e7c:	79 f0       	breq	.+30     	; 0x1e9c <udd_ep_alloc+0x90>
    1e7e:	41 15       	cp	r20, r1
    1e80:	51 40       	sbci	r21, 0x01	; 1
    1e82:	41 f0       	breq	.+16     	; 0x1e94 <udd_ep_alloc+0x88>
    1e84:	20 e0       	ldi	r18, 0x00	; 0
    1e86:	0d c0       	rjmp	.+26     	; 0x1ea2 <udd_ep_alloc+0x96>
    1e88:	22 e0       	ldi	r18, 0x02	; 2
    1e8a:	0b c0       	rjmp	.+22     	; 0x1ea2 <udd_ep_alloc+0x96>
    1e8c:	23 e0       	ldi	r18, 0x03	; 3
    1e8e:	09 c0       	rjmp	.+18     	; 0x1ea2 <udd_ep_alloc+0x96>
    1e90:	24 e0       	ldi	r18, 0x04	; 4
    1e92:	07 c0       	rjmp	.+14     	; 0x1ea2 <udd_ep_alloc+0x96>
    1e94:	25 e0       	ldi	r18, 0x05	; 5
    1e96:	05 c0       	rjmp	.+10     	; 0x1ea2 <udd_ep_alloc+0x96>
    1e98:	26 e0       	ldi	r18, 0x06	; 6
    1e9a:	03 c0       	rjmp	.+6      	; 0x1ea2 <udd_ep_alloc+0x96>
    1e9c:	27 e0       	ldi	r18, 0x07	; 7
    1e9e:	01 c0       	rjmp	.+2      	; 0x1ea2 <udd_ep_alloc+0x96>
    1ea0:	21 e0       	ldi	r18, 0x01	; 1
    1ea2:	11 82       	std	Z+1, r1	; 0x01
    1ea4:	96 e0       	ldi	r25, 0x06	; 6
    1ea6:	90 83       	st	Z, r25
    1ea8:	82 2b       	or	r24, r18
    1eaa:	81 83       	std	Z+1, r24	; 0x01
    1eac:	81 81       	ldd	r24, Z+1	; 0x01
    1eae:	80 7c       	andi	r24, 0xC0	; 192
    1eb0:	80 3c       	cpi	r24, 0xC0	; 192
    1eb2:	21 f4       	brne	.+8      	; 0x1ebc <udd_ep_alloc+0xb0>
    1eb4:	81 81       	ldd	r24, Z+1	; 0x01
    1eb6:	87 70       	andi	r24, 0x07	; 7
    1eb8:	87 30       	cpi	r24, 0x07	; 7
    1eba:	39 f0       	breq	.+14     	; 0x1eca <udd_ep_alloc+0xbe>
    1ebc:	81 81       	ldd	r24, Z+1	; 0x01
    1ebe:	80 62       	ori	r24, 0x20	; 32
    1ec0:	81 83       	std	Z+1, r24	; 0x01
    1ec2:	81 e0       	ldi	r24, 0x01	; 1
    1ec4:	08 95       	ret
    1ec6:	80 e0       	ldi	r24, 0x00	; 0
    1ec8:	08 95       	ret
    1eca:	81 e0       	ldi	r24, 0x01	; 1
    1ecc:	08 95       	ret

00001ece <udd_ep_is_halted>:
    1ece:	e8 2f       	mov	r30, r24
    1ed0:	ef 70       	andi	r30, 0x0F	; 15
    1ed2:	f0 e0       	ldi	r31, 0x00	; 0
    1ed4:	ee 0f       	add	r30, r30
    1ed6:	ff 1f       	adc	r31, r31
    1ed8:	99 27       	eor	r25, r25
    1eda:	87 fd       	sbrc	r24, 7
    1edc:	90 95       	com	r25
    1ede:	88 27       	eor	r24, r24
    1ee0:	99 0f       	add	r25, r25
    1ee2:	88 1f       	adc	r24, r24
    1ee4:	99 27       	eor	r25, r25
    1ee6:	e8 0f       	add	r30, r24
    1ee8:	f9 1f       	adc	r31, r25
    1eea:	ee 0f       	add	r30, r30
    1eec:	ff 1f       	adc	r31, r31
    1eee:	ee 0f       	add	r30, r30
    1ef0:	ff 1f       	adc	r31, r31
    1ef2:	ee 0f       	add	r30, r30
    1ef4:	ff 1f       	adc	r31, r31
    1ef6:	e4 5c       	subi	r30, 0xC4	; 196
    1ef8:	fa 4d       	sbci	r31, 0xDA	; 218
    1efa:	81 81       	ldd	r24, Z+1	; 0x01
    1efc:	82 fb       	bst	r24, 2
    1efe:	88 27       	eor	r24, r24
    1f00:	80 f9       	bld	r24, 0
    1f02:	08 95       	ret

00001f04 <udd_ep_clear_halt>:
    1f04:	e8 2f       	mov	r30, r24
    1f06:	ef 70       	andi	r30, 0x0F	; 15
    1f08:	f0 e0       	ldi	r31, 0x00	; 0
    1f0a:	ee 0f       	add	r30, r30
    1f0c:	ff 1f       	adc	r31, r31
    1f0e:	28 2f       	mov	r18, r24
    1f10:	33 27       	eor	r19, r19
    1f12:	27 fd       	sbrc	r18, 7
    1f14:	30 95       	com	r19
    1f16:	22 27       	eor	r18, r18
    1f18:	33 0f       	add	r19, r19
    1f1a:	22 1f       	adc	r18, r18
    1f1c:	33 27       	eor	r19, r19
    1f1e:	e2 0f       	add	r30, r18
    1f20:	f3 1f       	adc	r31, r19
    1f22:	ee 0f       	add	r30, r30
    1f24:	ff 1f       	adc	r31, r31
    1f26:	ee 0f       	add	r30, r30
    1f28:	ff 1f       	adc	r31, r31
    1f2a:	ee 0f       	add	r30, r30
    1f2c:	ff 1f       	adc	r31, r31
    1f2e:	e4 5c       	subi	r30, 0xC4	; 196
    1f30:	fa 4d       	sbci	r31, 0xDA	; 218
    1f32:	91 81       	ldd	r25, Z+1	; 0x01
    1f34:	92 ff       	sbrs	r25, 2
    1f36:	0e c0       	rjmp	.+28     	; 0x1f54 <udd_ep_clear_halt+0x50>
    1f38:	91 81       	ldd	r25, Z+1	; 0x01
    1f3a:	9b 7f       	andi	r25, 0xFB	; 251
    1f3c:	91 83       	std	Z+1, r25	; 0x01
    1f3e:	22 dd       	rcall	.-1468   	; 0x1984 <udd_ep_get_job>
    1f40:	fc 01       	movw	r30, r24
    1f42:	80 81       	ld	r24, Z
    1f44:	80 ff       	sbrs	r24, 0
    1f46:	06 c0       	rjmp	.+12     	; 0x1f54 <udd_ep_clear_halt+0x50>
    1f48:	8e 7f       	andi	r24, 0xFE	; 254
    1f4a:	80 83       	st	Z, r24
    1f4c:	07 80       	ldd	r0, Z+7	; 0x07
    1f4e:	f0 85       	ldd	r31, Z+8	; 0x08
    1f50:	e0 2d       	mov	r30, r0
    1f52:	09 95       	icall
    1f54:	81 e0       	ldi	r24, 0x01	; 1
    1f56:	08 95       	ret

00001f58 <udd_ep_run>:
    1f58:	7f 92       	push	r7
    1f5a:	8f 92       	push	r8
    1f5c:	9f 92       	push	r9
    1f5e:	af 92       	push	r10
    1f60:	bf 92       	push	r11
    1f62:	cf 92       	push	r12
    1f64:	df 92       	push	r13
    1f66:	ef 92       	push	r14
    1f68:	ff 92       	push	r15
    1f6a:	0f 93       	push	r16
    1f6c:	1f 93       	push	r17
    1f6e:	cf 93       	push	r28
    1f70:	df 93       	push	r29
    1f72:	98 2e       	mov	r9, r24
    1f74:	86 2e       	mov	r8, r22
    1f76:	5a 01       	movw	r10, r20
    1f78:	69 01       	movw	r12, r18
    1f7a:	04 dd       	rcall	.-1528   	; 0x1984 <udd_ep_get_job>
    1f7c:	7c 01       	movw	r14, r24
    1f7e:	79 2c       	mov	r7, r9
    1f80:	77 1c       	adc	r7, r7
    1f82:	77 24       	eor	r7, r7
    1f84:	77 1c       	adc	r7, r7
    1f86:	c9 2d       	mov	r28, r9
    1f88:	cf 70       	andi	r28, 0x0F	; 15
    1f8a:	d0 e0       	ldi	r29, 0x00	; 0
    1f8c:	cc 0f       	add	r28, r28
    1f8e:	dd 1f       	adc	r29, r29
    1f90:	c7 0d       	add	r28, r7
    1f92:	d1 1d       	adc	r29, r1
    1f94:	cc 0f       	add	r28, r28
    1f96:	dd 1f       	adc	r29, r29
    1f98:	cc 0f       	add	r28, r28
    1f9a:	dd 1f       	adc	r29, r29
    1f9c:	cc 0f       	add	r28, r28
    1f9e:	dd 1f       	adc	r29, r29
    1fa0:	c4 5c       	subi	r28, 0xC4	; 196
    1fa2:	da 4d       	sbci	r29, 0xDA	; 218
    1fa4:	89 81       	ldd	r24, Y+1	; 0x01
    1fa6:	80 7c       	andi	r24, 0xC0	; 192
    1fa8:	09 f4       	brne	.+2      	; 0x1fac <udd_ep_run+0x54>
    1faa:	4c c0       	rjmp	.+152    	; 0x2044 <udd_ep_run+0xec>
    1fac:	89 81       	ldd	r24, Y+1	; 0x01
    1fae:	80 7c       	andi	r24, 0xC0	; 192
    1fb0:	80 3c       	cpi	r24, 0xC0	; 192
    1fb2:	19 f0       	breq	.+6      	; 0x1fba <udd_ep_run+0x62>
    1fb4:	89 81       	ldd	r24, Y+1	; 0x01
    1fb6:	82 fd       	sbrc	r24, 2
    1fb8:	47 c0       	rjmp	.+142    	; 0x2048 <udd_ep_run+0xf0>
    1fba:	8f b7       	in	r24, 0x3f	; 63
    1fbc:	f8 94       	cli
    1fbe:	f7 01       	movw	r30, r14
    1fc0:	90 81       	ld	r25, Z
    1fc2:	90 ff       	sbrs	r25, 0
    1fc4:	03 c0       	rjmp	.+6      	; 0x1fcc <udd_ep_run+0x74>
    1fc6:	8f bf       	out	0x3f, r24	; 63
    1fc8:	71 2c       	mov	r7, r1
    1fca:	3f c0       	rjmp	.+126    	; 0x204a <udd_ep_run+0xf2>
    1fcc:	f7 01       	movw	r30, r14
    1fce:	90 81       	ld	r25, Z
    1fd0:	91 60       	ori	r25, 0x01	; 1
    1fd2:	90 83       	st	Z, r25
    1fd4:	8f bf       	out	0x3f, r24	; 63
    1fd6:	f7 01       	movw	r30, r14
    1fd8:	a1 82       	std	Z+1, r10	; 0x01
    1fda:	b2 82       	std	Z+2, r11	; 0x02
    1fdc:	c3 82       	std	Z+3, r12	; 0x03
    1fde:	d4 82       	std	Z+4, r13	; 0x04
    1fe0:	15 82       	std	Z+5, r1	; 0x05
    1fe2:	16 82       	std	Z+6, r1	; 0x06
    1fe4:	07 83       	std	Z+7, r16	; 0x07
    1fe6:	10 87       	std	Z+8, r17	; 0x08
    1fe8:	81 10       	cpse	r8, r1
    1fea:	06 c0       	rjmp	.+12     	; 0x1ff8 <udd_ep_run+0xa0>
    1fec:	91 e0       	ldi	r25, 0x01	; 1
    1fee:	c1 14       	cp	r12, r1
    1ff0:	d1 04       	cpc	r13, r1
    1ff2:	19 f0       	breq	.+6      	; 0x1ffa <udd_ep_run+0xa2>
    1ff4:	90 e0       	ldi	r25, 0x00	; 0
    1ff6:	01 c0       	rjmp	.+2      	; 0x1ffa <udd_ep_run+0xa2>
    1ff8:	91 e0       	ldi	r25, 0x01	; 1
    1ffa:	f7 01       	movw	r30, r14
    1ffc:	80 81       	ld	r24, Z
    1ffe:	90 fb       	bst	r25, 0
    2000:	81 f9       	bld	r24, 1
    2002:	8b 7f       	andi	r24, 0xFB	; 251
    2004:	80 83       	st	Z, r24
    2006:	77 20       	and	r7, r7
    2008:	19 f0       	breq	.+6      	; 0x2010 <udd_ep_run+0xb8>
    200a:	1e 82       	std	Y+6, r1	; 0x06
    200c:	1f 82       	std	Y+7, r1	; 0x07
    200e:	15 c0       	rjmp	.+42     	; 0x203a <udd_ep_run+0xe2>
    2010:	89 81       	ldd	r24, Y+1	; 0x01
    2012:	80 7c       	andi	r24, 0xC0	; 192
    2014:	80 3c       	cpi	r24, 0xC0	; 192
    2016:	69 f4       	brne	.+26     	; 0x2032 <udd_ep_run+0xda>
    2018:	ce 01       	movw	r24, r28
    201a:	8f dc       	rcall	.-1762   	; 0x193a <udd_ep_get_size>
    201c:	bc 01       	movw	r22, r24
    201e:	c6 01       	movw	r24, r12
    2020:	0e 94 01 21 	call	0x4202	; 0x4202 <__udivmodhi4>
    2024:	89 2b       	or	r24, r25
    2026:	29 f0       	breq	.+10     	; 0x2032 <udd_ep_run+0xda>
    2028:	f7 01       	movw	r30, r14
    202a:	80 81       	ld	r24, Z
    202c:	8e 7f       	andi	r24, 0xFE	; 254
    202e:	80 83       	st	Z, r24
    2030:	0c c0       	rjmp	.+24     	; 0x204a <udd_ep_run+0xf2>
    2032:	1a 82       	std	Y+2, r1	; 0x02
    2034:	1b 82       	std	Y+3, r1	; 0x03
    2036:	1e 82       	std	Y+6, r1	; 0x06
    2038:	1f 82       	std	Y+7, r1	; 0x07
    203a:	89 2d       	mov	r24, r9
    203c:	2d dd       	rcall	.-1446   	; 0x1a98 <udd_ep_trans_complet>
    203e:	77 24       	eor	r7, r7
    2040:	73 94       	inc	r7
    2042:	03 c0       	rjmp	.+6      	; 0x204a <udd_ep_run+0xf2>
    2044:	71 2c       	mov	r7, r1
    2046:	01 c0       	rjmp	.+2      	; 0x204a <udd_ep_run+0xf2>
    2048:	71 2c       	mov	r7, r1
    204a:	87 2d       	mov	r24, r7
    204c:	df 91       	pop	r29
    204e:	cf 91       	pop	r28
    2050:	1f 91       	pop	r17
    2052:	0f 91       	pop	r16
    2054:	ff 90       	pop	r15
    2056:	ef 90       	pop	r14
    2058:	df 90       	pop	r13
    205a:	cf 90       	pop	r12
    205c:	bf 90       	pop	r11
    205e:	af 90       	pop	r10
    2060:	9f 90       	pop	r9
    2062:	8f 90       	pop	r8
    2064:	7f 90       	pop	r7
    2066:	08 95       	ret

00002068 <udd_ep_abort>:
    2068:	ff 92       	push	r15
    206a:	0f 93       	push	r16
    206c:	1f 93       	push	r17
    206e:	cf 93       	push	r28
    2070:	df 93       	push	r29
    2072:	18 2f       	mov	r17, r24
    2074:	f8 2e       	mov	r15, r24
    2076:	ff 1c       	adc	r15, r15
    2078:	ff 24       	eor	r15, r15
    207a:	ff 1c       	adc	r15, r15
    207c:	c8 2f       	mov	r28, r24
    207e:	cf 70       	andi	r28, 0x0F	; 15
    2080:	d0 e0       	ldi	r29, 0x00	; 0
    2082:	cc 0f       	add	r28, r28
    2084:	dd 1f       	adc	r29, r29
    2086:	cf 0d       	add	r28, r15
    2088:	d1 1d       	adc	r29, r1
    208a:	cc 0f       	add	r28, r28
    208c:	dd 1f       	adc	r29, r29
    208e:	cc 0f       	add	r28, r28
    2090:	dd 1f       	adc	r29, r29
    2092:	cc 0f       	add	r28, r28
    2094:	dd 1f       	adc	r29, r29
    2096:	c4 5c       	subi	r28, 0xC4	; 196
    2098:	da 4d       	sbci	r29, 0xDA	; 218
    209a:	74 dc       	rcall	.-1816   	; 0x1984 <udd_ep_get_job>
    209c:	dc 01       	movw	r26, r24
    209e:	fe 01       	movw	r30, r28
    20a0:	02 e0       	ldi	r16, 0x02	; 2
    20a2:	05 93       	las	Z, r16
    20a4:	8c 91       	ld	r24, X
    20a6:	80 ff       	sbrs	r24, 0
    20a8:	12 c0       	rjmp	.+36     	; 0x20ce <udd_ep_abort+0x66>
    20aa:	8e 7f       	andi	r24, 0xFE	; 254
    20ac:	8c 93       	st	X, r24
    20ae:	17 96       	adiw	r26, 0x07	; 7
    20b0:	ed 91       	ld	r30, X+
    20b2:	fc 91       	ld	r31, X
    20b4:	18 97       	sbiw	r26, 0x08	; 8
    20b6:	30 97       	sbiw	r30, 0x00	; 0
    20b8:	51 f0       	breq	.+20     	; 0x20ce <udd_ep_abort+0x66>
    20ba:	ff 20       	and	r15, r15
    20bc:	19 f0       	breq	.+6      	; 0x20c4 <udd_ep_abort+0x5c>
    20be:	6e 81       	ldd	r22, Y+6	; 0x06
    20c0:	7f 81       	ldd	r23, Y+7	; 0x07
    20c2:	02 c0       	rjmp	.+4      	; 0x20c8 <udd_ep_abort+0x60>
    20c4:	6a 81       	ldd	r22, Y+2	; 0x02
    20c6:	7b 81       	ldd	r23, Y+3	; 0x03
    20c8:	41 2f       	mov	r20, r17
    20ca:	81 e0       	ldi	r24, 0x01	; 1
    20cc:	09 95       	icall
    20ce:	df 91       	pop	r29
    20d0:	cf 91       	pop	r28
    20d2:	1f 91       	pop	r17
    20d4:	0f 91       	pop	r16
    20d6:	ff 90       	pop	r15
    20d8:	08 95       	ret

000020da <udd_ep_free>:
    20da:	cf 93       	push	r28
    20dc:	c8 2f       	mov	r28, r24
    20de:	c4 df       	rcall	.-120    	; 0x2068 <udd_ep_abort>
    20e0:	ec 2f       	mov	r30, r28
    20e2:	ef 70       	andi	r30, 0x0F	; 15
    20e4:	f0 e0       	ldi	r31, 0x00	; 0
    20e6:	ee 0f       	add	r30, r30
    20e8:	ff 1f       	adc	r31, r31
    20ea:	8c 2f       	mov	r24, r28
    20ec:	99 27       	eor	r25, r25
    20ee:	87 fd       	sbrc	r24, 7
    20f0:	90 95       	com	r25
    20f2:	88 27       	eor	r24, r24
    20f4:	99 0f       	add	r25, r25
    20f6:	88 1f       	adc	r24, r24
    20f8:	99 27       	eor	r25, r25
    20fa:	e8 0f       	add	r30, r24
    20fc:	f9 1f       	adc	r31, r25
    20fe:	ee 0f       	add	r30, r30
    2100:	ff 1f       	adc	r31, r31
    2102:	ee 0f       	add	r30, r30
    2104:	ff 1f       	adc	r31, r31
    2106:	ee 0f       	add	r30, r30
    2108:	ff 1f       	adc	r31, r31
    210a:	e4 5c       	subi	r30, 0xC4	; 196
    210c:	fa 4d       	sbci	r31, 0xDA	; 218
    210e:	11 82       	std	Z+1, r1	; 0x01
    2110:	cf 91       	pop	r28
    2112:	08 95       	ret

00002114 <udd_ep_set_halt>:
    2114:	0f 93       	push	r16
    2116:	e8 2f       	mov	r30, r24
    2118:	ef 70       	andi	r30, 0x0F	; 15
    211a:	f0 e0       	ldi	r31, 0x00	; 0
    211c:	ee 0f       	add	r30, r30
    211e:	ff 1f       	adc	r31, r31
    2120:	28 2f       	mov	r18, r24
    2122:	33 27       	eor	r19, r19
    2124:	27 fd       	sbrc	r18, 7
    2126:	30 95       	com	r19
    2128:	22 27       	eor	r18, r18
    212a:	33 0f       	add	r19, r19
    212c:	22 1f       	adc	r18, r18
    212e:	33 27       	eor	r19, r19
    2130:	e2 0f       	add	r30, r18
    2132:	f3 1f       	adc	r31, r19
    2134:	ee 0f       	add	r30, r30
    2136:	ff 1f       	adc	r31, r31
    2138:	ee 0f       	add	r30, r30
    213a:	ff 1f       	adc	r31, r31
    213c:	ee 0f       	add	r30, r30
    213e:	ff 1f       	adc	r31, r31
    2140:	e4 5c       	subi	r30, 0xC4	; 196
    2142:	fa 4d       	sbci	r31, 0xDA	; 218
    2144:	91 81       	ldd	r25, Z+1	; 0x01
    2146:	94 60       	ori	r25, 0x04	; 4
    2148:	91 83       	std	Z+1, r25	; 0x01
    214a:	01 e0       	ldi	r16, 0x01	; 1
    214c:	06 93       	lac	Z, r16
    214e:	8c df       	rcall	.-232    	; 0x2068 <udd_ep_abort>
    2150:	81 e0       	ldi	r24, 0x01	; 1
    2152:	0f 91       	pop	r16
    2154:	08 95       	ret

00002156 <__vector_125>:
 * USB bus event interrupt includes :
 * - USB line events SOF, reset, suspend, resume, wakeup
 * - endpoint control errors underflow, overflow, stall
 */
ISR(USB_BUSEVENT_vect)
{
    2156:	1f 92       	push	r1
    2158:	0f 92       	push	r0
    215a:	0f b6       	in	r0, 0x3f	; 63
    215c:	0f 92       	push	r0
    215e:	11 24       	eor	r1, r1
    2160:	0f 93       	push	r16
    2162:	2f 93       	push	r18
    2164:	3f 93       	push	r19
    2166:	4f 93       	push	r20
    2168:	5f 93       	push	r21
    216a:	6f 93       	push	r22
    216c:	7f 93       	push	r23
    216e:	8f 93       	push	r24
    2170:	9f 93       	push	r25
    2172:	af 93       	push	r26
    2174:	bf 93       	push	r27
    2176:	ef 93       	push	r30
    2178:	ff 93       	push	r31
	if (udd_is_start_of_frame_event()) {
    217a:	80 91 cb 04 	lds	r24, 0x04CB
    217e:	88 23       	and	r24, r24
    2180:	34 f4       	brge	.+12     	; 0x218e <__vector_125+0x38>
		udd_ack_start_of_frame_event();
    2182:	80 e8       	ldi	r24, 0x80	; 128
    2184:	80 93 ca 04 	sts	0x04CA, r24
		udc_sof_notify();
    2188:	0e 94 a9 05 	call	0xb52	; 0xb52 <udc_sof_notify>
#ifdef UDC_SOF_EVENT
		UDC_SOF_EVENT();
#endif
		goto udd_interrupt_bus_event_end;
    218c:	88 c0       	rjmp	.+272    	; 0x229e <__vector_125+0x148>
}

static bool udd_ctrl_interrupt_error(void)
{
	// Underflow only managed for control endpoint
	if (udd_is_underflow_event()) {
    218e:	80 91 cb 04 	lds	r24, 0x04CB
    2192:	82 ff       	sbrs	r24, 2
    2194:	20 c0       	rjmp	.+64     	; 0x21d6 <__vector_125+0x80>
		udd_ack_underflow_event();
    2196:	84 e0       	ldi	r24, 0x04	; 4
    2198:	80 93 ca 04 	sts	0x04CA, r24
		if (udd_control_in_underflow()) {
    219c:	80 91 44 25 	lds	r24, 0x2544
    21a0:	86 ff       	sbrs	r24, 6
    21a2:	7d c0       	rjmp	.+250    	; 0x229e <__vector_125+0x148>
	udd_control_out_clear_NACK0();
}

static void udd_ctrl_underflow(void)
{
	if (udd_is_tc_event() || udd_ctrl_interrupt_tc_setup()) {
    21a4:	80 91 cc 04 	lds	r24, 0x04CC
    21a8:	81 fd       	sbrc	r24, 1
    21aa:	79 c0       	rjmp	.+242    	; 0x229e <__vector_125+0x148>
    21ac:	06 dc       	rcall	.-2036   	; 0x19ba <udd_ctrl_interrupt_tc_setup>
    21ae:	81 11       	cpse	r24, r1
    21b0:	76 c0       	rjmp	.+236    	; 0x229e <__vector_125+0x148>
		return; // underflow ignored if a transfer complete has been no processed
	}
	if (UDD_EPCTRL_DATA_OUT == udd_ep_control_state) {
    21b2:	80 91 2c 25 	lds	r24, 0x252C
    21b6:	81 30       	cpi	r24, 0x01	; 1
    21b8:	11 f4       	brne	.+4      	; 0x21be <__vector_125+0x68>
		// Host want to stop OUT transaction
		// then stop to wait OUT data phase and wait IN ZLP handshake
		udd_ctrl_send_zlp_in();
    21ba:	3b db       	rcall	.-2442   	; 0x1832 <udd_ctrl_send_zlp_in>
    21bc:	70 c0       	rjmp	.+224    	; 0x229e <__vector_125+0x148>
	} else if (UDD_EPCTRL_HANDSHAKE_WAIT_OUT_ZLP == udd_ep_control_state) {
    21be:	84 30       	cpi	r24, 0x04	; 4
    21c0:	09 f0       	breq	.+2      	; 0x21c4 <__vector_125+0x6e>
    21c2:	6d c0       	rjmp	.+218    	; 0x229e <__vector_125+0x148>
		// A OUT handshake is waiting by device,
		// but host want extra IN data then stall extra IN data and following status stage
		udd_control_in_enable_stall();
    21c4:	e5 e4       	ldi	r30, 0x45	; 69
    21c6:	f5 e2       	ldi	r31, 0x25	; 37
    21c8:	04 e0       	ldi	r16, 0x04	; 4
    21ca:	05 93       	las	Z, r16
		udd_control_out_enable_stall();
    21cc:	ed e3       	ldi	r30, 0x3D	; 61
    21ce:	f5 e2       	ldi	r31, 0x25	; 37
    21d0:	04 e0       	ldi	r16, 0x04	; 4
    21d2:	05 93       	las	Z, r16
    21d4:	64 c0       	rjmp	.+200    	; 0x229e <__vector_125+0x148>
			udd_ctrl_underflow();
		}
		return true;
	}
	// Overflow only managed for control endpoint
	if (udd_is_overflow_event()) {
    21d6:	80 91 cb 04 	lds	r24, 0x04CB
    21da:	81 ff       	sbrs	r24, 1
    21dc:	5b c0       	rjmp	.+182    	; 0x2294 <__vector_125+0x13e>
		udd_ack_overflow_event();
    21de:	82 e0       	ldi	r24, 0x02	; 2
    21e0:	80 93 ca 04 	sts	0x04CA, r24
		if (udd_control_out_overflow()) {
    21e4:	80 91 3c 25 	lds	r24, 0x253C
    21e8:	86 ff       	sbrs	r24, 6
    21ea:	59 c0       	rjmp	.+178    	; 0x229e <__vector_125+0x148>
	}
}

static void udd_ctrl_overflow(void)
{
	if (udd_is_tc_event() || udd_ctrl_interrupt_tc_setup()) {
    21ec:	80 91 cc 04 	lds	r24, 0x04CC
    21f0:	81 fd       	sbrc	r24, 1
    21f2:	55 c0       	rjmp	.+170    	; 0x229e <__vector_125+0x148>
    21f4:	e2 db       	rcall	.-2108   	; 0x19ba <udd_ctrl_interrupt_tc_setup>
    21f6:	81 11       	cpse	r24, r1
    21f8:	52 c0       	rjmp	.+164    	; 0x229e <__vector_125+0x148>
		return; // overflow ignored if a transfer complete has been no processed
	}
	if (UDD_EPCTRL_DATA_IN == udd_ep_control_state) {
    21fa:	80 91 2c 25 	lds	r24, 0x252C
    21fe:	82 30       	cpi	r24, 0x02	; 2
    2200:	41 f4       	brne	.+16     	; 0x2212 <__vector_125+0xbc>
	udd_control_in_clear_NACK0();
}

static void udd_ctrl_send_zlp_out(void)
{
	udd_ep_control_state = UDD_EPCTRL_HANDSHAKE_WAIT_OUT_ZLP;
    2202:	84 e0       	ldi	r24, 0x04	; 4
    2204:	80 93 2c 25 	sts	0x252C, r24
	// Valid reception of OUT packet on control endpoint
	udd_control_out_clear_NACK0();
    2208:	ec e3       	ldi	r30, 0x3C	; 60
    220a:	f5 e2       	ldi	r31, 0x25	; 37
    220c:	02 e0       	ldi	r16, 0x02	; 2
    220e:	06 93       	lac	Z, r16
    2210:	46 c0       	rjmp	.+140    	; 0x229e <__vector_125+0x148>
	}
	if (UDD_EPCTRL_DATA_IN == udd_ep_control_state) {
		// Host want to stop IN transaction
		// then stop to wait IN data phase and wait OUT ZLP handshake
		udd_ctrl_send_zlp_out();
	} else if (UDD_EPCTRL_HANDSHAKE_WAIT_IN_ZLP == udd_ep_control_state) {
    2212:	83 30       	cpi	r24, 0x03	; 3
    2214:	09 f0       	breq	.+2      	; 0x2218 <__vector_125+0xc2>
    2216:	43 c0       	rjmp	.+134    	; 0x229e <__vector_125+0x148>
		// A IN handshake is waiting by device,
		// but host want extra OUT data then stall extra OUT data and following status stage
		udd_control_in_enable_stall();
    2218:	e5 e4       	ldi	r30, 0x45	; 69
    221a:	f5 e2       	ldi	r31, 0x25	; 37
    221c:	04 e0       	ldi	r16, 0x04	; 4
    221e:	05 93       	las	Z, r16
		udd_control_out_enable_stall();
    2220:	ed e3       	ldi	r30, 0x3D	; 61
    2222:	f5 e2       	ldi	r31, 0x25	; 37
    2224:	04 e0       	ldi	r16, 0x04	; 4
    2226:	05 93       	las	Z, r16
    2228:	3a c0       	rjmp	.+116    	; 0x229e <__vector_125+0x148>

	if (udd_ctrl_interrupt_error()) {
		goto udd_interrupt_bus_event_end;
	}
	if (udd_is_reset_event()) {
		udd_ack_reset_event();
    222a:	80 e1       	ldi	r24, 0x10	; 16
    222c:	80 93 ca 04 	sts	0x04CA, r24
#if (0!=USB_DEVICE_MAX_EP)
		// Abort all endpoint jobs on going
		uint8_t i;
		for (i = 1; i < USB_DEVICE_MAX_EP; i++) {
			udd_ep_abort(i);
    2230:	81 e0       	ldi	r24, 0x01	; 1
    2232:	1a df       	rcall	.-460    	; 0x2068 <udd_ep_abort>
			udd_ep_abort(i | USB_EP_DIR_IN);
    2234:	81 e8       	ldi	r24, 0x81	; 129
    2236:	18 df       	rcall	.-464    	; 0x2068 <udd_ep_abort>
		}
#endif
		udc_reset();
    2238:	0e 94 82 05 	call	0xb04	; 0xb04 <udc_reset>

		// Reset USB address to 0
		udd_set_device_address(0);
    223c:	10 92 c3 04 	sts	0x04C3, r1
#endif
	}

	// Enable endpoint
	ep_ctrl = udd_ep_get_ctrl(ep);
	udd_endpoint_disable(ep_ctrl);
    2240:	ed e3       	ldi	r30, 0x3D	; 61
    2242:	f5 e2       	ldi	r31, 0x25	; 37
    2244:	10 82       	st	Z, r1
	udd_endpoint_clear_status(ep_ctrl);
    2246:	96 e0       	ldi	r25, 0x06	; 6
    2248:	90 93 3c 25 	sts	0x253C, r25
	udd_endpoint_set_control(ep_ctrl, (uint8_t) type | (uint8_t) size);
    224c:	83 e4       	ldi	r24, 0x43	; 67
    224e:	80 83       	st	Z, r24
#endif
	}

	// Enable endpoint
	ep_ctrl = udd_ep_get_ctrl(ep);
	udd_endpoint_disable(ep_ctrl);
    2250:	e5 e4       	ldi	r30, 0x45	; 69
    2252:	f5 e2       	ldi	r31, 0x25	; 37
    2254:	10 82       	st	Z, r1
	udd_endpoint_clear_status(ep_ctrl);
    2256:	90 93 44 25 	sts	0x2544, r25
	udd_endpoint_set_control(ep_ctrl, (uint8_t) type | (uint8_t) size);
    225a:	80 83       	st	Z, r24
		udd_set_device_address(0);
		// Alloc and configure control endpoint
		udd_ep_init(0, USB_EP_TYPE_CONTROL, USB_DEVICE_EP_CTRL_SIZE);
		udd_ep_init(0 | USB_EP_DIR_IN, USB_EP_TYPE_CONTROL,
				USB_DEVICE_EP_CTRL_SIZE);
		udd_control_out_set_buf(&udd_ctrl_buffer);
    225c:	88 ee       	ldi	r24, 0xE8	; 232
    225e:	94 e2       	ldi	r25, 0x24	; 36
    2260:	80 93 40 25 	sts	0x2540, r24
    2264:	90 93 41 25 	sts	0x2541, r25
		// Reset endpoint control management
		udd_ctrl_init();
    2268:	ab da       	rcall	.-2730   	; 0x17c0 <udd_ctrl_init>
		goto udd_interrupt_bus_event_end;
    226a:	19 c0       	rjmp	.+50     	; 0x229e <__vector_125+0x148>
	}

	if (udd_is_suspend_event()) {
    226c:	80 91 cb 04 	lds	r24, 0x04CB
    2270:	86 ff       	sbrs	r24, 6
    2272:	06 c0       	rjmp	.+12     	; 0x2280 <__vector_125+0x12a>
		udd_ack_suspend_event();
    2274:	80 e4       	ldi	r24, 0x40	; 64
    2276:	80 93 ca 04 	sts	0x04CA, r24
		udd_sleep_mode(false); // Enter in SUSPEND mode
    227a:	80 e0       	ldi	r24, 0x00	; 0
    227c:	82 da       	rcall	.-2812   	; 0x1782 <udd_sleep_mode>
#ifdef UDC_SUSPEND_EVENT
		UDC_SUSPEND_EVENT();
#endif
		goto udd_interrupt_bus_event_end;
    227e:	0f c0       	rjmp	.+30     	; 0x229e <__vector_125+0x148>
	}

	if (udd_is_resume_event()) {
    2280:	80 91 cb 04 	lds	r24, 0x04CB
    2284:	85 ff       	sbrs	r24, 5
    2286:	0b c0       	rjmp	.+22     	; 0x229e <__vector_125+0x148>
		udd_ack_resume_event();
    2288:	80 e2       	ldi	r24, 0x20	; 32
    228a:	80 93 ca 04 	sts	0x04CA, r24
		udd_sleep_mode(true); // Enter in power reduction mode
    228e:	81 e0       	ldi	r24, 0x01	; 1
    2290:	78 da       	rcall	.-2832   	; 0x1782 <udd_sleep_mode>
#ifdef UDC_RESUME_EVENT
		UDC_RESUME_EVENT();
#endif
		goto udd_interrupt_bus_event_end;
    2292:	05 c0       	rjmp	.+10     	; 0x229e <__vector_125+0x148>
	}

	if (udd_ctrl_interrupt_error()) {
		goto udd_interrupt_bus_event_end;
	}
	if (udd_is_reset_event()) {
    2294:	80 91 cb 04 	lds	r24, 0x04CB
    2298:	84 ff       	sbrs	r24, 4
    229a:	e8 cf       	rjmp	.-48     	; 0x226c <__vector_125+0x116>
    229c:	c6 cf       	rjmp	.-116    	; 0x222a <__vector_125+0xd4>
		goto udd_interrupt_bus_event_end;
	}

udd_interrupt_bus_event_end:
	return;
}
    229e:	ff 91       	pop	r31
    22a0:	ef 91       	pop	r30
    22a2:	bf 91       	pop	r27
    22a4:	af 91       	pop	r26
    22a6:	9f 91       	pop	r25
    22a8:	8f 91       	pop	r24
    22aa:	7f 91       	pop	r23
    22ac:	6f 91       	pop	r22
    22ae:	5f 91       	pop	r21
    22b0:	4f 91       	pop	r20
    22b2:	3f 91       	pop	r19
    22b4:	2f 91       	pop	r18
    22b6:	0f 91       	pop	r16
    22b8:	0f 90       	pop	r0
    22ba:	0f be       	out	0x3f, r0	; 63
    22bc:	0f 90       	pop	r0
    22be:	1f 90       	pop	r1
    22c0:	18 95       	reti

000022c2 <__vector_126>:
 * \brief Function called by USB transfer complete interrupt
 *
 * USB transfer complete interrupt includes events about endpoint transfer on all endpoints.
 */
ISR(USB_TRNCOMPL_vect)
{
    22c2:	1f 92       	push	r1
    22c4:	0f 92       	push	r0
    22c6:	0f b6       	in	r0, 0x3f	; 63
    22c8:	0f 92       	push	r0
    22ca:	11 24       	eor	r1, r1
    22cc:	0f 93       	push	r16
    22ce:	1f 93       	push	r17
    22d0:	2f 93       	push	r18
    22d2:	3f 93       	push	r19
    22d4:	4f 93       	push	r20
    22d6:	5f 93       	push	r21
    22d8:	6f 93       	push	r22
    22da:	7f 93       	push	r23
    22dc:	8f 93       	push	r24
    22de:	9f 93       	push	r25
    22e0:	af 93       	push	r26
    22e2:	bf 93       	push	r27
    22e4:	cf 93       	push	r28
    22e6:	df 93       	push	r29
    22e8:	ef 93       	push	r30
    22ea:	ff 93       	push	r31
	int8_t rp;
	UDD_EP_t *ep_ctrl;
	udd_ep_id_t ep;
#endif

	if (!udd_is_tc_event()) {
    22ec:	80 91 cc 04 	lds	r24, 0x04CC
    22f0:	81 fd       	sbrc	r24, 1
    22f2:	03 c0       	rjmp	.+6      	; 0x22fa <__vector_126+0x38>
		// If no other transfer complete
		// then check reception of SETUP packet on control endpoint
		if (udd_ctrl_interrupt_tc_setup()) {
    22f4:	62 db       	rcall	.-2364   	; 0x19ba <udd_ctrl_interrupt_tc_setup>
    22f6:	81 11       	cpse	r24, r1
    22f8:	b9 c0       	rjmp	.+370    	; 0x246c <__vector_126+0x1aa>
			goto udd_interrupt_tc_end;
		}
		Assert(false);
	}
	// Check IN/OUT transfer complete on all endpoints
	udd_ack_tc_event();
    22fa:	82 e0       	ldi	r24, 0x02	; 2
    22fc:	80 93 cc 04 	sts	0x04CC, r24

#if (0!=USB_DEVICE_MAX_EP)
	//** Decode TC FIFO
	// Compute ep addr
	rp = udd_get_fifo_rp();
    2300:	80 91 c5 04 	lds	r24, 0x04C5
	i_fifo = 2 * (1 + ~rp);
    2304:	81 95       	neg	r24
    2306:	88 0f       	add	r24, r24
	ad = ((uint16_t) udd_sram.ep_ctrl) - i_fifo;
    2308:	ec e3       	ldi	r30, 0x3C	; 60
    230a:	f5 e2       	ldi	r31, 0x25	; 37
    230c:	e8 1b       	sub	r30, r24
    230e:	f1 09       	sbc	r31, r1
	p_ad = (uint16_t *) ad;
	// Compute ep
	ep_index = (((uint16_t) * p_ad - ((uint16_t) udd_sram.ep_ctrl)) >> 3);
    2310:	20 81       	ld	r18, Z
    2312:	31 81       	ldd	r19, Z+1	; 0x01
    2314:	2c 53       	subi	r18, 0x3C	; 60
    2316:	35 42       	sbci	r19, 0x25	; 37
    2318:	36 95       	lsr	r19
    231a:	27 95       	ror	r18
    231c:	36 95       	lsr	r19
    231e:	27 95       	ror	r18
    2320:	36 95       	lsr	r19
    2322:	27 95       	ror	r18
	ep = (ep_index / 2) + ((ep_index & 1) ? USB_EP_DIR_IN : 0);
    2324:	82 2f       	mov	r24, r18
    2326:	86 95       	lsr	r24
    2328:	20 ff       	sbrs	r18, 0
    232a:	02 c0       	rjmp	.+4      	; 0x2330 <__vector_126+0x6e>
    232c:	90 e8       	ldi	r25, 0x80	; 128
    232e:	01 c0       	rjmp	.+2      	; 0x2332 <__vector_126+0x70>
    2330:	90 e0       	ldi	r25, 0x00	; 0
    2332:	89 0f       	add	r24, r25
	udd_endpoint_set_control(ep_ctrl, (uint8_t) type | (uint8_t) size);
}

static UDD_EP_t *udd_ep_get_ctrl(udd_ep_id_t ep)
{
	return &udd_sram.ep_ctrl[(2 * (ep & USB_EP_ADDR_MASK) +
    2334:	e8 2f       	mov	r30, r24
    2336:	ef 70       	andi	r30, 0x0F	; 15
    2338:	f0 e0       	ldi	r31, 0x00	; 0
    233a:	ee 0f       	add	r30, r30
    233c:	ff 1f       	adc	r31, r31
			((ep & USB_EP_DIR_IN) ? 1 : 0))];
    233e:	28 2f       	mov	r18, r24
    2340:	33 27       	eor	r19, r19
    2342:	27 fd       	sbrc	r18, 7
    2344:	30 95       	com	r19
    2346:	22 27       	eor	r18, r18
    2348:	33 0f       	add	r19, r19
    234a:	22 1f       	adc	r18, r18
    234c:	33 27       	eor	r19, r19
	udd_endpoint_set_control(ep_ctrl, (uint8_t) type | (uint8_t) size);
}

static UDD_EP_t *udd_ep_get_ctrl(udd_ep_id_t ep)
{
	return &udd_sram.ep_ctrl[(2 * (ep & USB_EP_ADDR_MASK) +
    234e:	e2 0f       	add	r30, r18
    2350:	f3 1f       	adc	r31, r19
	ep_index = (((uint16_t) * p_ad - ((uint16_t) udd_sram.ep_ctrl)) >> 3);
	ep = (ep_index / 2) + ((ep_index & 1) ? USB_EP_DIR_IN : 0);
	Assert(USB_DEVICE_MAX_EP >= (ep & USB_EP_ADDR_MASK));

	// Ack IT TC of endpoint
	ep_ctrl = udd_ep_get_ctrl(ep);
    2352:	ee 0f       	add	r30, r30
    2354:	ff 1f       	adc	r31, r31
    2356:	ee 0f       	add	r30, r30
    2358:	ff 1f       	adc	r31, r31
    235a:	ee 0f       	add	r30, r30
    235c:	ff 1f       	adc	r31, r31
    235e:	e4 5c       	subi	r30, 0xC4	; 196
    2360:	fa 4d       	sbci	r31, 0xDA	; 218
	if (!udd_endpoint_transfer_complete(ep_ctrl)) {
    2362:	90 81       	ld	r25, Z
    2364:	95 ff       	sbrs	r25, 5
    2366:	82 c0       	rjmp	.+260    	; 0x246c <__vector_126+0x1aa>
		return; // Error, TC is generated by Multipacket transfer
	}
	udd_endpoint_ack_transfer_complete(ep_ctrl);
    2368:	00 e2       	ldi	r16, 0x20	; 32
    236a:	06 93       	lac	Z, r16

	// Check status on control endpoint
	if (ep == 0) {
    236c:	81 11       	cpse	r24, r1
    236e:	79 c0       	rjmp	.+242    	; 0x2462 <__vector_126+0x1a0>

static void udd_ctrl_out_received(void)
{
	uint16_t nb_data;

	if (UDD_EPCTRL_HANDSHAKE_WAIT_OUT_ZLP == udd_ep_control_state) {
    2370:	80 91 2c 25 	lds	r24, 0x252C
    2374:	84 30       	cpi	r24, 0x04	; 4
    2376:	19 f4       	brne	.+6      	; 0x237e <__vector_126+0xbc>
		// Valid end of setup request
		udd_ctrl_endofrequest();
    2378:	6a da       	rcall	.-2860   	; 0x184e <udd_ctrl_endofrequest>
		// Reinitializes control endpoint management
		udd_ctrl_init();
    237a:	22 da       	rcall	.-3004   	; 0x17c0 <udd_ctrl_init>
    237c:	77 c0       	rjmp	.+238    	; 0x246c <__vector_126+0x1aa>
		return;
	}
	Assert(udd_ep_control_state == UDD_EPCTRL_DATA_OUT);

	// Read data received during OUT phase
	nb_data = udd_control_out_get_bytecnt();
    237e:	c0 91 3e 25 	lds	r28, 0x253E
    2382:	d0 91 3f 25 	lds	r29, 0x253F

	if (udd_g_ctrlreq.payload_size < (udd_ctrl_payload_nb_trans + nb_data)) {
    2386:	80 91 7b 25 	lds	r24, 0x257B
    238a:	90 91 7c 25 	lds	r25, 0x257C
    238e:	00 91 28 25 	lds	r16, 0x2528
    2392:	10 91 29 25 	lds	r17, 0x2529
    2396:	98 01       	movw	r18, r16
    2398:	2c 0f       	add	r18, r28
    239a:	3d 1f       	adc	r19, r29
    239c:	82 17       	cp	r24, r18
    239e:	93 07       	cpc	r25, r19
    23a0:	18 f4       	brcc	.+6      	; 0x23a8 <__vector_126+0xe6>
		// Payload buffer too small, ignore data remaining
		nb_data = udd_g_ctrlreq.payload_size - udd_ctrl_payload_nb_trans;
    23a2:	ec 01       	movw	r28, r24
    23a4:	c0 1b       	sub	r28, r16
    23a6:	d1 0b       	sbc	r29, r17
	}

	memcpy((uint8_t *) (udd_g_ctrlreq.payload + udd_ctrl_payload_nb_trans),
    23a8:	80 91 79 25 	lds	r24, 0x2579
    23ac:	90 91 7a 25 	lds	r25, 0x257A
    23b0:	ae 01       	movw	r20, r28
    23b2:	68 ee       	ldi	r22, 0xE8	; 232
    23b4:	74 e2       	ldi	r23, 0x24	; 36
    23b6:	80 0f       	add	r24, r16
    23b8:	91 1f       	adc	r25, r17
    23ba:	0e 94 3d 21 	call	0x427a	; 0x427a <memcpy>
			udd_ctrl_buffer, nb_data);
	udd_ctrl_payload_nb_trans += nb_data;
    23be:	0c 0f       	add	r16, r28
    23c0:	1d 1f       	adc	r17, r29
    23c2:	00 93 28 25 	sts	0x2528, r16
    23c6:	10 93 29 25 	sts	0x2529, r17

	if ((USB_DEVICE_EP_CTRL_SIZE != nb_data) || (udd_g_ctrlreq.req.wLength
    23ca:	c0 34       	cpi	r28, 0x40	; 64
    23cc:	d1 05       	cpc	r29, r1
    23ce:	69 f4       	brne	.+26     	; 0x23ea <__vector_126+0x128>
			<= (udd_ctrl_prev_payload_nb_trans
			+ udd_ctrl_payload_nb_trans))) {
    23d0:	80 91 2a 25 	lds	r24, 0x252A
    23d4:	90 91 2b 25 	lds	r25, 0x252B
    23d8:	80 0f       	add	r24, r16
    23da:	91 1f       	adc	r25, r17

	memcpy((uint8_t *) (udd_g_ctrlreq.payload + udd_ctrl_payload_nb_trans),
			udd_ctrl_buffer, nb_data);
	udd_ctrl_payload_nb_trans += nb_data;

	if ((USB_DEVICE_EP_CTRL_SIZE != nb_data) || (udd_g_ctrlreq.req.wLength
    23dc:	20 91 77 25 	lds	r18, 0x2577
    23e0:	30 91 78 25 	lds	r19, 0x2578
    23e4:	82 17       	cp	r24, r18
    23e6:	93 07       	cpc	r25, r19
    23e8:	88 f0       	brcs	.+34     	; 0x240c <__vector_126+0x14a>
		// End of reception because it is a short packet
		// or all data are transfered

		// Before send ZLP, call intermediate callback
		// in case of data receive generate a stall
		udd_g_ctrlreq.payload_size = udd_ctrl_payload_nb_trans;
    23ea:	00 93 7b 25 	sts	0x257B, r16
    23ee:	10 93 7c 25 	sts	0x257C, r17
		if (NULL != udd_g_ctrlreq.over_under_run) {
    23f2:	e0 91 7f 25 	lds	r30, 0x257F
    23f6:	f0 91 80 25 	lds	r31, 0x2580
    23fa:	30 97       	sbiw	r30, 0x00	; 0
    23fc:	29 f0       	breq	.+10     	; 0x2408 <__vector_126+0x146>
			if (!udd_g_ctrlreq.over_under_run()) {
    23fe:	09 95       	icall
    2400:	81 11       	cpse	r24, r1
    2402:	02 c0       	rjmp	.+4      	; 0x2408 <__vector_126+0x146>
				// Stall ZLP
				udd_ctrl_stall_data();
    2404:	08 da       	rcall	.-3056   	; 0x1816 <udd_ctrl_stall_data>
    2406:	32 c0       	rjmp	.+100    	; 0x246c <__vector_126+0x1aa>
				return;
			}
		}
		// Send IN ZLP to ACK setup request
		udd_ctrl_send_zlp_in();
    2408:	14 da       	rcall	.-3032   	; 0x1832 <udd_ctrl_send_zlp_in>
    240a:	30 c0       	rjmp	.+96     	; 0x246c <__vector_126+0x1aa>
		return;
	}

	if (udd_g_ctrlreq.payload_size == udd_ctrl_payload_nb_trans) {
    240c:	80 91 7b 25 	lds	r24, 0x257B
    2410:	90 91 7c 25 	lds	r25, 0x257C
    2414:	08 17       	cp	r16, r24
    2416:	19 07       	cpc	r17, r25
    2418:	f9 f4       	brne	.+62     	; 0x2458 <__vector_126+0x196>
		// Overrun then request a new payload buffer
		if (!udd_g_ctrlreq.over_under_run) {
    241a:	e0 91 7f 25 	lds	r30, 0x257F
    241e:	f0 91 80 25 	lds	r31, 0x2580
    2422:	30 97       	sbiw	r30, 0x00	; 0
    2424:	11 f4       	brne	.+4      	; 0x242a <__vector_126+0x168>
			// No callback available to request a new payload buffer
			udd_ctrl_stall_data();
    2426:	f7 d9       	rcall	.-3090   	; 0x1816 <udd_ctrl_stall_data>
    2428:	21 c0       	rjmp	.+66     	; 0x246c <__vector_126+0x1aa>
			return;
		}
		if (!udd_g_ctrlreq.over_under_run()) {
    242a:	09 95       	icall
    242c:	81 11       	cpse	r24, r1
    242e:	02 c0       	rjmp	.+4      	; 0x2434 <__vector_126+0x172>
			// No new payload buffer delivered
			udd_ctrl_stall_data();
    2430:	f2 d9       	rcall	.-3100   	; 0x1816 <udd_ctrl_stall_data>
    2432:	1c c0       	rjmp	.+56     	; 0x246c <__vector_126+0x1aa>
			return;
		}
		// New payload buffer available
		// Update number of total data received
		udd_ctrl_prev_payload_nb_trans += udd_ctrl_payload_nb_trans;
    2434:	20 91 2a 25 	lds	r18, 0x252A
    2438:	30 91 2b 25 	lds	r19, 0x252B
    243c:	80 91 28 25 	lds	r24, 0x2528
    2440:	90 91 29 25 	lds	r25, 0x2529
    2444:	82 0f       	add	r24, r18
    2446:	93 1f       	adc	r25, r19
    2448:	80 93 2a 25 	sts	0x252A, r24
    244c:	90 93 2b 25 	sts	0x252B, r25
		// Reinit reception on payload buffer
		udd_ctrl_payload_nb_trans = 0;
    2450:	10 92 28 25 	sts	0x2528, r1
    2454:	10 92 29 25 	sts	0x2529, r1
	}
	// Free buffer of OUT control endpoint to authorize next reception
	udd_control_out_clear_NACK0();
    2458:	ec e3       	ldi	r30, 0x3C	; 60
    245a:	f5 e2       	ldi	r31, 0x25	; 37
    245c:	02 e0       	ldi	r16, 0x02	; 2
    245e:	06 93       	lac	Z, r16
    2460:	05 c0       	rjmp	.+10     	; 0x246c <__vector_126+0x1aa>
	// Check status on control endpoint
	if (ep == 0) {
		udd_ctrl_out_received();
		goto udd_interrupt_tc_end; // Interrupt acked by control endpoint managed
	}
	if (ep == (0 | USB_EP_DIR_IN)) {
    2462:	80 38       	cpi	r24, 0x80	; 128
    2464:	11 f4       	brne	.+4      	; 0x246a <__vector_126+0x1a8>
		udd_ctrl_in_sent();
    2466:	fb d9       	rcall	.-3082   	; 0x185e <udd_ctrl_in_sent>
		goto udd_interrupt_tc_end; // Interrupt acked by control endpoint managed
    2468:	01 c0       	rjmp	.+2      	; 0x246c <__vector_126+0x1aa>
	}
	Assert(udd_ep_is_valid(ep));
	// Manage end of transfer on endpoint bulk/interrupt/isochronous
	udd_ep_trans_complet(ep);
    246a:	16 db       	rcall	.-2516   	; 0x1a98 <udd_ep_trans_complet>
	}
#endif

udd_interrupt_tc_end:
	return;
}
    246c:	ff 91       	pop	r31
    246e:	ef 91       	pop	r30
    2470:	df 91       	pop	r29
    2472:	cf 91       	pop	r28
    2474:	bf 91       	pop	r27
    2476:	af 91       	pop	r26
    2478:	9f 91       	pop	r25
    247a:	8f 91       	pop	r24
    247c:	7f 91       	pop	r23
    247e:	6f 91       	pop	r22
    2480:	5f 91       	pop	r21
    2482:	4f 91       	pop	r20
    2484:	3f 91       	pop	r19
    2486:	2f 91       	pop	r18
    2488:	1f 91       	pop	r17
    248a:	0f 91       	pop	r16
    248c:	0f 90       	pop	r0
    248e:	0f be       	out	0x3f, r0	; 63
    2490:	0f 90       	pop	r0
    2492:	1f 90       	pop	r1
    2494:	18 95       	reti

00002496 <sysclk_init>:
    2496:	cf 93       	push	r28
    2498:	df 93       	push	r29
    249a:	00 d0       	rcall	.+0      	; 0x249c <sysclk_init+0x6>
    249c:	00 d0       	rcall	.+0      	; 0x249e <sysclk_init+0x8>
    249e:	cd b7       	in	r28, 0x3d	; 61
    24a0:	de b7       	in	r29, 0x3e	; 62
    24a2:	8f ef       	ldi	r24, 0xFF	; 255
    24a4:	80 93 70 00 	sts	0x0070, r24
    24a8:	80 93 71 00 	sts	0x0071, r24
    24ac:	80 93 72 00 	sts	0x0072, r24
    24b0:	80 93 73 00 	sts	0x0073, r24
    24b4:	80 93 74 00 	sts	0x0074, r24
    24b8:	80 93 75 00 	sts	0x0075, r24
    24bc:	80 93 76 00 	sts	0x0076, r24
    24c0:	6c e1       	ldi	r22, 0x1C	; 28
    24c2:	70 e0       	ldi	r23, 0x00	; 0
    24c4:	82 e0       	ldi	r24, 0x02	; 2
    24c6:	5b d0       	rcall	.+182    	; 0x257e <nvm_read_byte>
    24c8:	8a 83       	std	Y+2, r24	; 0x02
    24ca:	6d e1       	ldi	r22, 0x1D	; 29
    24cc:	70 e0       	ldi	r23, 0x00	; 0
    24ce:	82 e0       	ldi	r24, 0x02	; 2
    24d0:	56 d0       	rcall	.+172    	; 0x257e <nvm_read_byte>
    24d2:	89 83       	std	Y+1, r24	; 0x01
    24d4:	89 81       	ldd	r24, Y+1	; 0x01
    24d6:	9a 81       	ldd	r25, Y+2	; 0x02
    24d8:	01 96       	adiw	r24, 0x01	; 1
    24da:	21 f4       	brne	.+8      	; 0x24e4 <sysclk_init+0x4e>
    24dc:	80 e4       	ldi	r24, 0x40	; 64
    24de:	93 e2       	ldi	r25, 0x23	; 35
    24e0:	89 83       	std	Y+1, r24	; 0x01
    24e2:	9a 83       	std	Y+2, r25	; 0x02
    24e4:	89 81       	ldd	r24, Y+1	; 0x01
    24e6:	9a 81       	ldd	r25, Y+2	; 0x02
    24e8:	8b 83       	std	Y+3, r24	; 0x03
    24ea:	9c 83       	std	Y+4, r25	; 0x04
    24ec:	e0 e6       	ldi	r30, 0x60	; 96
    24ee:	f0 e0       	ldi	r31, 0x00	; 0
    24f0:	82 83       	std	Z+2, r24	; 0x02
    24f2:	8c 81       	ldd	r24, Y+4	; 0x04
    24f4:	83 83       	std	Z+3, r24	; 0x03
    24f6:	8f b7       	in	r24, 0x3f	; 63
    24f8:	f8 94       	cli
    24fa:	e0 e5       	ldi	r30, 0x50	; 80
    24fc:	f0 e0       	ldi	r31, 0x00	; 0
    24fe:	90 81       	ld	r25, Z
    2500:	92 60       	ori	r25, 0x02	; 2
    2502:	90 83       	st	Z, r25
    2504:	8f bf       	out	0x3f, r24	; 63
    2506:	81 81       	ldd	r24, Z+1	; 0x01
    2508:	81 ff       	sbrs	r24, 1
    250a:	fd cf       	rjmp	.-6      	; 0x2506 <sysclk_init+0x70>
    250c:	61 e0       	ldi	r22, 0x01	; 1
    250e:	80 e4       	ldi	r24, 0x40	; 64
    2510:	90 e0       	ldi	r25, 0x00	; 0
    2512:	3f d0       	rcall	.+126    	; 0x2592 <ccp_write_io>
    2514:	8f b7       	in	r24, 0x3f	; 63
    2516:	f8 94       	cli
    2518:	e0 e5       	ldi	r30, 0x50	; 80
    251a:	f0 e0       	ldi	r31, 0x00	; 0
    251c:	90 81       	ld	r25, Z
    251e:	9e 7f       	andi	r25, 0xFE	; 254
    2520:	90 83       	st	Z, r25
    2522:	8f bf       	out	0x3f, r24	; 63
    2524:	24 96       	adiw	r28, 0x04	; 4
    2526:	cd bf       	out	0x3d, r28	; 61
    2528:	de bf       	out	0x3e, r29	; 62
    252a:	df 91       	pop	r29
    252c:	cf 91       	pop	r28
    252e:	08 95       	ret

00002530 <sysclk_enable_module>:
    2530:	9f b7       	in	r25, 0x3f	; 63
    2532:	f8 94       	cli
    2534:	e8 2f       	mov	r30, r24
    2536:	f0 e0       	ldi	r31, 0x00	; 0
    2538:	e0 59       	subi	r30, 0x90	; 144
    253a:	ff 4f       	sbci	r31, 0xFF	; 255
    253c:	60 95       	com	r22
    253e:	80 81       	ld	r24, Z
    2540:	68 23       	and	r22, r24
    2542:	60 83       	st	Z, r22
    2544:	9f bf       	out	0x3f, r25	; 63
    2546:	08 95       	ret

00002548 <sysclk_enable_usb>:

	/*
	 * Enable or disable prescaler depending on if the USB frequency is 6
	 * MHz or 48 MHz. Only 6 MHz USB frequency requires prescaling.
	 */
	if (frequency == 6) {
    2548:	86 30       	cpi	r24, 0x06	; 6
    254a:	11 f4       	brne	.+4      	; 0x2550 <sysclk_enable_usb+0x8>
		prescaler = CLK_USBPSDIV_8_gc;
    254c:	68 e1       	ldi	r22, 0x18	; 24
    254e:	01 c0       	rjmp	.+2      	; 0x2552 <sysclk_enable_usb+0xa>
	}
	else {
		prescaler = 0;
    2550:	60 e0       	ldi	r22, 0x00	; 0

static inline bool osc_is_ready(uint8_t id)
{
	Assert(id != OSC_ID_USBSOF);

	return OSC.STATUS & id;
    2552:	e0 e5       	ldi	r30, 0x50	; 80
    2554:	f0 e0       	ldi	r31, 0x00	; 0
    2556:	81 81       	ldd	r24, Z+1	; 0x01
	/*
	 * Switch to the system clock selected by the user.
	 */
	switch (CONFIG_USBCLK_SOURCE) {
	case USBCLK_SRC_RCOSC:
		if (!osc_is_ready(OSC_ID_RC32MHZ)) {
    2558:	81 fd       	sbrc	r24, 1
    255a:	09 c0       	rjmp	.+18     	; 0x256e <sysclk_enable_usb+0x26>

typedef uint8_t irqflags_t;

static inline irqflags_t cpu_irq_save(void)
{
	irqflags_t flags = SREG;
    255c:	8f b7       	in	r24, 0x3f	; 63
	cpu_irq_disable();
    255e:	f8 94       	cli
	irqflags_t flags;

	Assert(id != OSC_ID_USBSOF);

	flags = cpu_irq_save();
	OSC.CTRL |= id;
    2560:	90 81       	ld	r25, Z
    2562:	92 60       	ori	r25, 0x02	; 2
    2564:	90 83       	st	Z, r25
}

static inline void cpu_irq_restore(irqflags_t flags)
{
	barrier();
	SREG = flags;
    2566:	8f bf       	out	0x3f, r24	; 63

static inline bool osc_is_ready(uint8_t id)
{
	Assert(id != OSC_ID_USBSOF);

	return OSC.STATUS & id;
    2568:	81 81       	ldd	r24, Z+1	; 0x01
 *
 * \param id A number identifying the oscillator to wait for.
 */
static inline void osc_wait_ready(uint8_t id)
{
	while (!osc_is_ready(id)) {
    256a:	81 ff       	sbrs	r24, 1
    256c:	fd cf       	rjmp	.-6      	; 0x2568 <sysclk_enable_usb+0x20>
			}
			osc_enable_autocalibration(OSC_ID_RC32MHZ,
					CONFIG_OSC_AUTOCAL_RC32MHZ_REF_OSC);
#endif
		}
		ccp_write_io((uint8_t *)&CLK.USBCTRL, (prescaler)
    256e:	63 60       	ori	r22, 0x03	; 3
    2570:	84 e4       	ldi	r24, 0x44	; 68
    2572:	90 e0       	ldi	r25, 0x00	; 0
    2574:	0e d0       	rcall	.+28     	; 0x2592 <ccp_write_io>
	default:
		Assert(false);
		break;
	}

	sysclk_enable_module(SYSCLK_PORT_GEN, SYSCLK_USB);
    2576:	60 e4       	ldi	r22, 0x40	; 64
    2578:	80 e0       	ldi	r24, 0x00	; 0
    257a:	da cf       	rjmp	.-76     	; 0x2530 <sysclk_enable_module>
    257c:	08 95       	ret

0000257e <nvm_read_byte>:
#endif

#ifndef __DOXYGEN__
	PUBLIC_FUNCTION(nvm_read_byte)
#if defined(__GNUC__)
	lds r20, NVM_CMD          ; Store NVM command register
    257e:	40 91 ca 01 	lds	r20, 0x01CA
	mov ZL, r22               ; Load byte index into low byte of Z.
    2582:	e6 2f       	mov	r30, r22
	mov ZH, r23               ; Load high byte into Z.
    2584:	f7 2f       	mov	r31, r23
	sts NVM_CMD, r24          ; Load prepared command into NVM Command register.
    2586:	80 93 ca 01 	sts	0x01CA, r24
	lpm r24, Z                ; Perform an LPM to read out byte
    258a:	84 91       	lpm	r24, Z
	sts NVM_CMD, r20          ; Restore NVM command register
    258c:	40 93 ca 01 	sts	0x01CA, r20
	sts NVM_CMD, r16          ; Load prepared command into NVM Command register.
	lpm r16, Z                ; Perform an LPM to read out byte
	sts NVM_CMD, r20          ; Restore NVM command register
#endif

	ret
    2590:	08 95       	ret

00002592 <ccp_write_io>:

	PUBLIC_FUNCTION(ccp_write_io)

#if defined(__GNUC__)

	out     RAMPZ, r1               // Reset bits 23:16 of Z
    2592:	1b be       	out	0x3b, r1	; 59
	movw    r30, r24                // Load addr into Z
    2594:	fc 01       	movw	r30, r24
	ldi     r18, CCP_IOREG          // Load magic CCP value
    2596:	28 ed       	ldi	r18, 0xD8	; 216
	out     CCP, r18                // Start CCP handshake
    2598:	24 bf       	out	0x34, r18	; 52
	st      Z, r22                  // Write value to I/O register
    259a:	60 83       	st	Z, r22
	ret                             // Return to caller
    259c:	08 95       	ret

0000259e <init_onepos>:

#include "../onepos.h"

void init_onepos(void)
{
	sysclk_init();
    259e:	7b df       	rcall	.-266    	; 0x2496 <sysclk_init>
	
	#ifdef ENABLE_RTC
	// 	rtc_init();
	#endif
	#ifdef ENABLE_USB
		usb_init();
    25a0:	43 d2       	rcall	.+1158   	; 0x2a28 <usb_init>
	PORT_t *base = arch_ioport_pin_to_base(pin);

	if (dir == IOPORT_DIR_OUTPUT) {
		base->DIRSET = arch_ioport_pin_to_mask(pin);
	} else if (dir == IOPORT_DIR_INPUT) {
		base->DIRCLR = arch_ioport_pin_to_mask(pin);
    25a2:	e0 e4       	ldi	r30, 0x40	; 64
    25a4:	f6 e0       	ldi	r31, 0x06	; 6
    25a6:	88 e0       	ldi	r24, 0x08	; 8
    25a8:	82 83       	std	Z+2, r24	; 0x02
    25aa:	94 e0       	ldi	r25, 0x04	; 4
    25ac:	92 83       	std	Z+2, r25	; 0x02
		enum ioport_direction dir)
{
	PORT_t *base = arch_ioport_pin_to_base(pin);

	if (dir == IOPORT_DIR_OUTPUT) {
		base->DIRSET = arch_ioport_pin_to_mask(pin);
    25ae:	a0 e0       	ldi	r26, 0x00	; 0
    25b0:	b6 e0       	ldi	r27, 0x06	; 6
    25b2:	20 e4       	ldi	r18, 0x40	; 64
    25b4:	11 96       	adiw	r26, 0x01	; 1
    25b6:	2c 93       	st	X, r18
    25b8:	11 97       	sbiw	r26, 0x01	; 1
    25ba:	30 e8       	ldi	r19, 0x80	; 128
    25bc:	11 96       	adiw	r26, 0x01	; 1
    25be:	3c 93       	st	X, r19
    25c0:	a0 e2       	ldi	r26, 0x20	; 32
    25c2:	b6 e0       	ldi	r27, 0x06	; 6
    25c4:	41 e0       	ldi	r20, 0x01	; 1
    25c6:	11 96       	adiw	r26, 0x01	; 1
    25c8:	4c 93       	st	X, r20
    25ca:	11 97       	sbiw	r26, 0x01	; 1
    25cc:	42 e0       	ldi	r20, 0x02	; 2
    25ce:	11 96       	adiw	r26, 0x01	; 1
    25d0:	4c 93       	st	X, r20
    25d2:	a0 e8       	ldi	r26, 0x80	; 128
    25d4:	b6 e0       	ldi	r27, 0x06	; 6
    25d6:	11 96       	adiw	r26, 0x01	; 1
    25d8:	4c 93       	st	X, r20
    25da:	11 97       	sbiw	r26, 0x01	; 1
	} else if (dir == IOPORT_DIR_INPUT) {
		base->DIRCLR = arch_ioport_pin_to_mask(pin);
    25dc:	12 96       	adiw	r26, 0x02	; 2
    25de:	9c 93       	st	X, r25
    25e0:	12 97       	sbiw	r26, 0x02	; 2
		enum ioport_direction dir)
{
	PORT_t *base = arch_ioport_pin_to_base(pin);

	if (dir == IOPORT_DIR_OUTPUT) {
		base->DIRSET = arch_ioport_pin_to_mask(pin);
    25e2:	11 96       	adiw	r26, 0x01	; 1
    25e4:	8c 93       	st	X, r24
	} else if (dir == IOPORT_DIR_INPUT) {
		base->DIRCLR = arch_ioport_pin_to_mask(pin);
    25e6:	a0 e6       	ldi	r26, 0x60	; 96
    25e8:	b6 e0       	ldi	r27, 0x06	; 6
    25ea:	12 96       	adiw	r26, 0x02	; 2
    25ec:	9c 93       	st	X, r25
    25ee:	12 97       	sbiw	r26, 0x02	; 2
		enum ioport_direction dir)
{
	PORT_t *base = arch_ioport_pin_to_base(pin);

	if (dir == IOPORT_DIR_OUTPUT) {
		base->DIRSET = arch_ioport_pin_to_mask(pin);
    25f0:	11 96       	adiw	r26, 0x01	; 1
    25f2:	8c 93       	st	X, r24
    25f4:	80 e1       	ldi	r24, 0x10	; 16
    25f6:	81 83       	std	Z+1, r24	; 0x01
    25f8:	80 e2       	ldi	r24, 0x20	; 32
    25fa:	81 83       	std	Z+1, r24	; 0x01
    25fc:	31 83       	std	Z+1, r19	; 0x01
	} else if (dir == IOPORT_DIR_INPUT) {
		base->DIRCLR = arch_ioport_pin_to_mask(pin);
    25fe:	22 83       	std	Z+2, r18	; 0x02

typedef uint8_t irqflags_t;

static inline irqflags_t cpu_irq_save(void)
{
	irqflags_t flags = SREG;
    2600:	8f b7       	in	r24, 0x3f	; 63
	cpu_irq_disable();
    2602:	f8 94       	cli
	volatile uint8_t *pin_ctrl
		= (&base->PIN0CTRL + arch_ioport_pin_to_index(pin));

	uint8_t flags = cpu_irq_save();

	*pin_ctrl &= PORT_ISC_gm;
    2604:	e6 e5       	ldi	r30, 0x56	; 86
    2606:	f6 e0       	ldi	r31, 0x06	; 6
    2608:	90 81       	ld	r25, Z
    260a:	97 70       	andi	r25, 0x07	; 7
    260c:	90 83       	st	Z, r25
	*pin_ctrl |= mode;
    260e:	90 81       	ld	r25, Z
    2610:	90 61       	ori	r25, 0x10	; 16
    2612:	90 83       	st	Z, r25
}

static inline void cpu_irq_restore(irqflags_t flags)
{
	barrier();
	SREG = flags;
    2614:	8f bf       	out	0x3f, r24	; 63
    2616:	08 95       	ret

00002618 <init_animation>:
		bool level)
{
	PORT_t *base = arch_ioport_pin_to_base(pin);

	if (level) {
		base->OUTSET = arch_ioport_pin_to_mask(pin);
    2618:	80 e4       	ldi	r24, 0x40	; 64
    261a:	e0 e0       	ldi	r30, 0x00	; 0
    261c:	f6 e0       	ldi	r31, 0x06	; 6
    261e:	85 83       	std	Z+5, r24	; 0x05
    2620:	80 e0       	ldi	r24, 0x00	; 0
    2622:	92 ee       	ldi	r25, 0xE2	; 226
    2624:	a4 e0       	ldi	r26, 0x04	; 4
    2626:	b0 e0       	ldi	r27, 0x00	; 0
 * @{
 */
__always_optimize
static inline void __portable_avr_delay_cycles(unsigned long n)
{
	do { barrier(); } while (--n);
    2628:	01 97       	sbiw	r24, 0x01	; 1
    262a:	a1 09       	sbc	r26, r1
    262c:	b1 09       	sbc	r27, r1
    262e:	00 97       	sbiw	r24, 0x00	; 0
    2630:	a1 05       	cpc	r26, r1
    2632:	b1 05       	cpc	r27, r1
    2634:	c9 f7       	brne	.-14     	; 0x2628 <init_animation+0x10>
    2636:	80 e8       	ldi	r24, 0x80	; 128
    2638:	e0 e0       	ldi	r30, 0x00	; 0
    263a:	f6 e0       	ldi	r31, 0x06	; 6
    263c:	85 83       	std	Z+5, r24	; 0x05
    263e:	80 e0       	ldi	r24, 0x00	; 0
    2640:	92 ee       	ldi	r25, 0xE2	; 226
    2642:	a4 e0       	ldi	r26, 0x04	; 4
    2644:	b0 e0       	ldi	r27, 0x00	; 0
    2646:	01 97       	sbiw	r24, 0x01	; 1
    2648:	a1 09       	sbc	r26, r1
    264a:	b1 09       	sbc	r27, r1
    264c:	00 97       	sbiw	r24, 0x00	; 0
    264e:	a1 05       	cpc	r26, r1
    2650:	b1 05       	cpc	r27, r1
    2652:	c9 f7       	brne	.-14     	; 0x2646 <init_animation+0x2e>
    2654:	81 e0       	ldi	r24, 0x01	; 1
    2656:	e0 e2       	ldi	r30, 0x20	; 32
    2658:	f6 e0       	ldi	r31, 0x06	; 6
    265a:	85 83       	std	Z+5, r24	; 0x05
    265c:	80 e0       	ldi	r24, 0x00	; 0
    265e:	92 ee       	ldi	r25, 0xE2	; 226
    2660:	a4 e0       	ldi	r26, 0x04	; 4
    2662:	b0 e0       	ldi	r27, 0x00	; 0
    2664:	01 97       	sbiw	r24, 0x01	; 1
    2666:	a1 09       	sbc	r26, r1
    2668:	b1 09       	sbc	r27, r1
    266a:	00 97       	sbiw	r24, 0x00	; 0
    266c:	a1 05       	cpc	r26, r1
    266e:	b1 05       	cpc	r27, r1
    2670:	c9 f7       	brne	.-14     	; 0x2664 <init_animation+0x4c>
    2672:	82 e0       	ldi	r24, 0x02	; 2
    2674:	e0 e2       	ldi	r30, 0x20	; 32
    2676:	f6 e0       	ldi	r31, 0x06	; 6
    2678:	85 83       	std	Z+5, r24	; 0x05
    267a:	80 e0       	ldi	r24, 0x00	; 0
    267c:	92 ee       	ldi	r25, 0xE2	; 226
    267e:	a4 e0       	ldi	r26, 0x04	; 4
    2680:	b0 e0       	ldi	r27, 0x00	; 0
    2682:	01 97       	sbiw	r24, 0x01	; 1
    2684:	a1 09       	sbc	r26, r1
    2686:	b1 09       	sbc	r27, r1
    2688:	00 97       	sbiw	r24, 0x00	; 0
    268a:	a1 05       	cpc	r26, r1
    268c:	b1 05       	cpc	r27, r1
    268e:	c9 f7       	brne	.-14     	; 0x2682 <init_animation+0x6a>
	} else {
		base->OUTCLR = arch_ioport_pin_to_mask(pin);
    2690:	80 e4       	ldi	r24, 0x40	; 64
    2692:	e0 e0       	ldi	r30, 0x00	; 0
    2694:	f6 e0       	ldi	r31, 0x06	; 6
    2696:	86 83       	std	Z+6, r24	; 0x06
    2698:	80 e0       	ldi	r24, 0x00	; 0
    269a:	92 ee       	ldi	r25, 0xE2	; 226
    269c:	a4 e0       	ldi	r26, 0x04	; 4
    269e:	b0 e0       	ldi	r27, 0x00	; 0
    26a0:	01 97       	sbiw	r24, 0x01	; 1
    26a2:	a1 09       	sbc	r26, r1
    26a4:	b1 09       	sbc	r27, r1
    26a6:	00 97       	sbiw	r24, 0x00	; 0
    26a8:	a1 05       	cpc	r26, r1
    26aa:	b1 05       	cpc	r27, r1
    26ac:	c9 f7       	brne	.-14     	; 0x26a0 <init_animation+0x88>
    26ae:	80 e8       	ldi	r24, 0x80	; 128
    26b0:	e0 e0       	ldi	r30, 0x00	; 0
    26b2:	f6 e0       	ldi	r31, 0x06	; 6
    26b4:	86 83       	std	Z+6, r24	; 0x06
    26b6:	80 e0       	ldi	r24, 0x00	; 0
    26b8:	92 ee       	ldi	r25, 0xE2	; 226
    26ba:	a4 e0       	ldi	r26, 0x04	; 4
    26bc:	b0 e0       	ldi	r27, 0x00	; 0
    26be:	01 97       	sbiw	r24, 0x01	; 1
    26c0:	a1 09       	sbc	r26, r1
    26c2:	b1 09       	sbc	r27, r1
    26c4:	00 97       	sbiw	r24, 0x00	; 0
    26c6:	a1 05       	cpc	r26, r1
    26c8:	b1 05       	cpc	r27, r1
    26ca:	c9 f7       	brne	.-14     	; 0x26be <init_animation+0xa6>
    26cc:	81 e0       	ldi	r24, 0x01	; 1
    26ce:	e0 e2       	ldi	r30, 0x20	; 32
    26d0:	f6 e0       	ldi	r31, 0x06	; 6
    26d2:	86 83       	std	Z+6, r24	; 0x06
    26d4:	80 e0       	ldi	r24, 0x00	; 0
    26d6:	92 ee       	ldi	r25, 0xE2	; 226
    26d8:	a4 e0       	ldi	r26, 0x04	; 4
    26da:	b0 e0       	ldi	r27, 0x00	; 0
    26dc:	01 97       	sbiw	r24, 0x01	; 1
    26de:	a1 09       	sbc	r26, r1
    26e0:	b1 09       	sbc	r27, r1
    26e2:	00 97       	sbiw	r24, 0x00	; 0
    26e4:	a1 05       	cpc	r26, r1
    26e6:	b1 05       	cpc	r27, r1
    26e8:	c9 f7       	brne	.-14     	; 0x26dc <init_animation+0xc4>
    26ea:	82 e0       	ldi	r24, 0x02	; 2
    26ec:	e0 e2       	ldi	r30, 0x20	; 32
    26ee:	f6 e0       	ldi	r31, 0x06	; 6
    26f0:	86 83       	std	Z+6, r24	; 0x06
    26f2:	80 e0       	ldi	r24, 0x00	; 0
    26f4:	92 ee       	ldi	r25, 0xE2	; 226
    26f6:	a4 e0       	ldi	r26, 0x04	; 4
    26f8:	b0 e0       	ldi	r27, 0x00	; 0
    26fa:	01 97       	sbiw	r24, 0x01	; 1
    26fc:	a1 09       	sbc	r26, r1
    26fe:	b1 09       	sbc	r27, r1
    2700:	00 97       	sbiw	r24, 0x00	; 0
    2702:	a1 05       	cpc	r26, r1
    2704:	b1 05       	cpc	r27, r1
    2706:	c9 f7       	brne	.-14     	; 0x26fa <init_animation+0xe2>
		bool level)
{
	PORT_t *base = arch_ioport_pin_to_base(pin);

	if (level) {
		base->OUTSET = arch_ioport_pin_to_mask(pin);
    2708:	80 e4       	ldi	r24, 0x40	; 64
    270a:	e0 e0       	ldi	r30, 0x00	; 0
    270c:	f6 e0       	ldi	r31, 0x06	; 6
    270e:	85 83       	std	Z+5, r24	; 0x05
    2710:	80 e0       	ldi	r24, 0x00	; 0
    2712:	94 ec       	ldi	r25, 0xC4	; 196
    2714:	a9 e0       	ldi	r26, 0x09	; 9
    2716:	b0 e0       	ldi	r27, 0x00	; 0
    2718:	01 97       	sbiw	r24, 0x01	; 1
    271a:	a1 09       	sbc	r26, r1
    271c:	b1 09       	sbc	r27, r1
    271e:	00 97       	sbiw	r24, 0x00	; 0
    2720:	a1 05       	cpc	r26, r1
    2722:	b1 05       	cpc	r27, r1
    2724:	c9 f7       	brne	.-14     	; 0x2718 <init_animation+0x100>
    2726:	80 e8       	ldi	r24, 0x80	; 128
    2728:	e0 e0       	ldi	r30, 0x00	; 0
    272a:	f6 e0       	ldi	r31, 0x06	; 6
    272c:	85 83       	std	Z+5, r24	; 0x05
    272e:	80 e0       	ldi	r24, 0x00	; 0
    2730:	94 ec       	ldi	r25, 0xC4	; 196
    2732:	a9 e0       	ldi	r26, 0x09	; 9
    2734:	b0 e0       	ldi	r27, 0x00	; 0
    2736:	01 97       	sbiw	r24, 0x01	; 1
    2738:	a1 09       	sbc	r26, r1
    273a:	b1 09       	sbc	r27, r1
    273c:	00 97       	sbiw	r24, 0x00	; 0
    273e:	a1 05       	cpc	r26, r1
    2740:	b1 05       	cpc	r27, r1
    2742:	c9 f7       	brne	.-14     	; 0x2736 <init_animation+0x11e>
    2744:	81 e0       	ldi	r24, 0x01	; 1
    2746:	e0 e2       	ldi	r30, 0x20	; 32
    2748:	f6 e0       	ldi	r31, 0x06	; 6
    274a:	85 83       	std	Z+5, r24	; 0x05
    274c:	80 e0       	ldi	r24, 0x00	; 0
    274e:	94 ec       	ldi	r25, 0xC4	; 196
    2750:	a9 e0       	ldi	r26, 0x09	; 9
    2752:	b0 e0       	ldi	r27, 0x00	; 0
    2754:	01 97       	sbiw	r24, 0x01	; 1
    2756:	a1 09       	sbc	r26, r1
    2758:	b1 09       	sbc	r27, r1
    275a:	00 97       	sbiw	r24, 0x00	; 0
    275c:	a1 05       	cpc	r26, r1
    275e:	b1 05       	cpc	r27, r1
    2760:	c9 f7       	brne	.-14     	; 0x2754 <init_animation+0x13c>
    2762:	82 e0       	ldi	r24, 0x02	; 2
    2764:	e0 e2       	ldi	r30, 0x20	; 32
    2766:	f6 e0       	ldi	r31, 0x06	; 6
    2768:	85 83       	std	Z+5, r24	; 0x05
    276a:	80 e0       	ldi	r24, 0x00	; 0
    276c:	94 ec       	ldi	r25, 0xC4	; 196
    276e:	a9 e0       	ldi	r26, 0x09	; 9
    2770:	b0 e0       	ldi	r27, 0x00	; 0
    2772:	01 97       	sbiw	r24, 0x01	; 1
    2774:	a1 09       	sbc	r26, r1
    2776:	b1 09       	sbc	r27, r1
    2778:	00 97       	sbiw	r24, 0x00	; 0
    277a:	a1 05       	cpc	r26, r1
    277c:	b1 05       	cpc	r27, r1
    277e:	c9 f7       	brne	.-14     	; 0x2772 <init_animation+0x15a>
	} else {
		base->OUTCLR = arch_ioport_pin_to_mask(pin);
    2780:	80 e4       	ldi	r24, 0x40	; 64
    2782:	e0 e0       	ldi	r30, 0x00	; 0
    2784:	f6 e0       	ldi	r31, 0x06	; 6
    2786:	86 83       	std	Z+6, r24	; 0x06
    2788:	80 e0       	ldi	r24, 0x00	; 0
    278a:	94 ec       	ldi	r25, 0xC4	; 196
    278c:	a9 e0       	ldi	r26, 0x09	; 9
    278e:	b0 e0       	ldi	r27, 0x00	; 0
    2790:	01 97       	sbiw	r24, 0x01	; 1
    2792:	a1 09       	sbc	r26, r1
    2794:	b1 09       	sbc	r27, r1
    2796:	00 97       	sbiw	r24, 0x00	; 0
    2798:	a1 05       	cpc	r26, r1
    279a:	b1 05       	cpc	r27, r1
    279c:	c9 f7       	brne	.-14     	; 0x2790 <init_animation+0x178>
    279e:	80 e8       	ldi	r24, 0x80	; 128
    27a0:	e0 e0       	ldi	r30, 0x00	; 0
    27a2:	f6 e0       	ldi	r31, 0x06	; 6
    27a4:	86 83       	std	Z+6, r24	; 0x06
    27a6:	80 e0       	ldi	r24, 0x00	; 0
    27a8:	94 ec       	ldi	r25, 0xC4	; 196
    27aa:	a9 e0       	ldi	r26, 0x09	; 9
    27ac:	b0 e0       	ldi	r27, 0x00	; 0
    27ae:	01 97       	sbiw	r24, 0x01	; 1
    27b0:	a1 09       	sbc	r26, r1
    27b2:	b1 09       	sbc	r27, r1
    27b4:	00 97       	sbiw	r24, 0x00	; 0
    27b6:	a1 05       	cpc	r26, r1
    27b8:	b1 05       	cpc	r27, r1
    27ba:	c9 f7       	brne	.-14     	; 0x27ae <init_animation+0x196>
    27bc:	81 e0       	ldi	r24, 0x01	; 1
    27be:	e0 e2       	ldi	r30, 0x20	; 32
    27c0:	f6 e0       	ldi	r31, 0x06	; 6
    27c2:	86 83       	std	Z+6, r24	; 0x06
    27c4:	80 e0       	ldi	r24, 0x00	; 0
    27c6:	94 ec       	ldi	r25, 0xC4	; 196
    27c8:	a9 e0       	ldi	r26, 0x09	; 9
    27ca:	b0 e0       	ldi	r27, 0x00	; 0
    27cc:	01 97       	sbiw	r24, 0x01	; 1
    27ce:	a1 09       	sbc	r26, r1
    27d0:	b1 09       	sbc	r27, r1
    27d2:	00 97       	sbiw	r24, 0x00	; 0
    27d4:	a1 05       	cpc	r26, r1
    27d6:	b1 05       	cpc	r27, r1
    27d8:	c9 f7       	brne	.-14     	; 0x27cc <init_animation+0x1b4>
    27da:	82 e0       	ldi	r24, 0x02	; 2
    27dc:	e0 e2       	ldi	r30, 0x20	; 32
    27de:	f6 e0       	ldi	r31, 0x06	; 6
    27e0:	86 83       	std	Z+6, r24	; 0x06
    27e2:	80 e0       	ldi	r24, 0x00	; 0
    27e4:	94 ec       	ldi	r25, 0xC4	; 196
    27e6:	a9 e0       	ldi	r26, 0x09	; 9
    27e8:	b0 e0       	ldi	r27, 0x00	; 0
    27ea:	01 97       	sbiw	r24, 0x01	; 1
    27ec:	a1 09       	sbc	r26, r1
    27ee:	b1 09       	sbc	r27, r1
    27f0:	00 97       	sbiw	r24, 0x00	; 0
    27f2:	a1 05       	cpc	r26, r1
    27f4:	b1 05       	cpc	r27, r1
    27f6:	c9 f7       	brne	.-14     	; 0x27ea <init_animation+0x1d2>
		bool level)
{
	PORT_t *base = arch_ioport_pin_to_base(pin);

	if (level) {
		base->OUTSET = arch_ioport_pin_to_mask(pin);
    27f8:	80 e4       	ldi	r24, 0x40	; 64
    27fa:	e0 e0       	ldi	r30, 0x00	; 0
    27fc:	f6 e0       	ldi	r31, 0x06	; 6
    27fe:	85 83       	std	Z+5, r24	; 0x05
    2800:	80 e0       	ldi	r24, 0x00	; 0
    2802:	96 ea       	ldi	r25, 0xA6	; 166
    2804:	ae e0       	ldi	r26, 0x0E	; 14
    2806:	b0 e0       	ldi	r27, 0x00	; 0
    2808:	01 97       	sbiw	r24, 0x01	; 1
    280a:	a1 09       	sbc	r26, r1
    280c:	b1 09       	sbc	r27, r1
    280e:	00 97       	sbiw	r24, 0x00	; 0
    2810:	a1 05       	cpc	r26, r1
    2812:	b1 05       	cpc	r27, r1
    2814:	c9 f7       	brne	.-14     	; 0x2808 <init_animation+0x1f0>
    2816:	80 e8       	ldi	r24, 0x80	; 128
    2818:	e0 e0       	ldi	r30, 0x00	; 0
    281a:	f6 e0       	ldi	r31, 0x06	; 6
    281c:	85 83       	std	Z+5, r24	; 0x05
    281e:	80 e0       	ldi	r24, 0x00	; 0
    2820:	96 ea       	ldi	r25, 0xA6	; 166
    2822:	ae e0       	ldi	r26, 0x0E	; 14
    2824:	b0 e0       	ldi	r27, 0x00	; 0
    2826:	01 97       	sbiw	r24, 0x01	; 1
    2828:	a1 09       	sbc	r26, r1
    282a:	b1 09       	sbc	r27, r1
    282c:	00 97       	sbiw	r24, 0x00	; 0
    282e:	a1 05       	cpc	r26, r1
    2830:	b1 05       	cpc	r27, r1
    2832:	c9 f7       	brne	.-14     	; 0x2826 <init_animation+0x20e>
    2834:	81 e0       	ldi	r24, 0x01	; 1
    2836:	e0 e2       	ldi	r30, 0x20	; 32
    2838:	f6 e0       	ldi	r31, 0x06	; 6
    283a:	85 83       	std	Z+5, r24	; 0x05
    283c:	80 e0       	ldi	r24, 0x00	; 0
    283e:	96 ea       	ldi	r25, 0xA6	; 166
    2840:	ae e0       	ldi	r26, 0x0E	; 14
    2842:	b0 e0       	ldi	r27, 0x00	; 0
    2844:	01 97       	sbiw	r24, 0x01	; 1
    2846:	a1 09       	sbc	r26, r1
    2848:	b1 09       	sbc	r27, r1
    284a:	00 97       	sbiw	r24, 0x00	; 0
    284c:	a1 05       	cpc	r26, r1
    284e:	b1 05       	cpc	r27, r1
    2850:	c9 f7       	brne	.-14     	; 0x2844 <init_animation+0x22c>
    2852:	82 e0       	ldi	r24, 0x02	; 2
    2854:	e0 e2       	ldi	r30, 0x20	; 32
    2856:	f6 e0       	ldi	r31, 0x06	; 6
    2858:	85 83       	std	Z+5, r24	; 0x05
    285a:	80 e0       	ldi	r24, 0x00	; 0
    285c:	96 ea       	ldi	r25, 0xA6	; 166
    285e:	ae e0       	ldi	r26, 0x0E	; 14
    2860:	b0 e0       	ldi	r27, 0x00	; 0
    2862:	01 97       	sbiw	r24, 0x01	; 1
    2864:	a1 09       	sbc	r26, r1
    2866:	b1 09       	sbc	r27, r1
    2868:	00 97       	sbiw	r24, 0x00	; 0
    286a:	a1 05       	cpc	r26, r1
    286c:	b1 05       	cpc	r27, r1
    286e:	c9 f7       	brne	.-14     	; 0x2862 <init_animation+0x24a>
	} else {
		base->OUTCLR = arch_ioport_pin_to_mask(pin);
    2870:	80 e4       	ldi	r24, 0x40	; 64
    2872:	e0 e0       	ldi	r30, 0x00	; 0
    2874:	f6 e0       	ldi	r31, 0x06	; 6
    2876:	86 83       	std	Z+6, r24	; 0x06
    2878:	80 e0       	ldi	r24, 0x00	; 0
    287a:	96 ea       	ldi	r25, 0xA6	; 166
    287c:	ae e0       	ldi	r26, 0x0E	; 14
    287e:	b0 e0       	ldi	r27, 0x00	; 0
    2880:	01 97       	sbiw	r24, 0x01	; 1
    2882:	a1 09       	sbc	r26, r1
    2884:	b1 09       	sbc	r27, r1
    2886:	00 97       	sbiw	r24, 0x00	; 0
    2888:	a1 05       	cpc	r26, r1
    288a:	b1 05       	cpc	r27, r1
    288c:	c9 f7       	brne	.-14     	; 0x2880 <init_animation+0x268>
    288e:	80 e8       	ldi	r24, 0x80	; 128
    2890:	e0 e0       	ldi	r30, 0x00	; 0
    2892:	f6 e0       	ldi	r31, 0x06	; 6
    2894:	86 83       	std	Z+6, r24	; 0x06
    2896:	80 e0       	ldi	r24, 0x00	; 0
    2898:	96 ea       	ldi	r25, 0xA6	; 166
    289a:	ae e0       	ldi	r26, 0x0E	; 14
    289c:	b0 e0       	ldi	r27, 0x00	; 0
    289e:	01 97       	sbiw	r24, 0x01	; 1
    28a0:	a1 09       	sbc	r26, r1
    28a2:	b1 09       	sbc	r27, r1
    28a4:	00 97       	sbiw	r24, 0x00	; 0
    28a6:	a1 05       	cpc	r26, r1
    28a8:	b1 05       	cpc	r27, r1
    28aa:	c9 f7       	brne	.-14     	; 0x289e <init_animation+0x286>
    28ac:	81 e0       	ldi	r24, 0x01	; 1
    28ae:	e0 e2       	ldi	r30, 0x20	; 32
    28b0:	f6 e0       	ldi	r31, 0x06	; 6
    28b2:	86 83       	std	Z+6, r24	; 0x06
    28b4:	80 e0       	ldi	r24, 0x00	; 0
    28b6:	96 ea       	ldi	r25, 0xA6	; 166
    28b8:	ae e0       	ldi	r26, 0x0E	; 14
    28ba:	b0 e0       	ldi	r27, 0x00	; 0
    28bc:	01 97       	sbiw	r24, 0x01	; 1
    28be:	a1 09       	sbc	r26, r1
    28c0:	b1 09       	sbc	r27, r1
    28c2:	00 97       	sbiw	r24, 0x00	; 0
    28c4:	a1 05       	cpc	r26, r1
    28c6:	b1 05       	cpc	r27, r1
    28c8:	c9 f7       	brne	.-14     	; 0x28bc <init_animation+0x2a4>
    28ca:	82 e0       	ldi	r24, 0x02	; 2
    28cc:	e0 e2       	ldi	r30, 0x20	; 32
    28ce:	f6 e0       	ldi	r31, 0x06	; 6
    28d0:	86 83       	std	Z+6, r24	; 0x06
    28d2:	80 e0       	ldi	r24, 0x00	; 0
    28d4:	96 ea       	ldi	r25, 0xA6	; 166
    28d6:	ae e0       	ldi	r26, 0x0E	; 14
    28d8:	b0 e0       	ldi	r27, 0x00	; 0
    28da:	01 97       	sbiw	r24, 0x01	; 1
    28dc:	a1 09       	sbc	r26, r1
    28de:	b1 09       	sbc	r27, r1
    28e0:	00 97       	sbiw	r24, 0x00	; 0
    28e2:	a1 05       	cpc	r26, r1
    28e4:	b1 05       	cpc	r27, r1
    28e6:	c9 f7       	brne	.-14     	; 0x28da <init_animation+0x2c2>
		bool level)
{
	PORT_t *base = arch_ioport_pin_to_base(pin);

	if (level) {
		base->OUTSET = arch_ioport_pin_to_mask(pin);
    28e8:	80 e4       	ldi	r24, 0x40	; 64
    28ea:	e0 e0       	ldi	r30, 0x00	; 0
    28ec:	f6 e0       	ldi	r31, 0x06	; 6
    28ee:	85 83       	std	Z+5, r24	; 0x05
    28f0:	80 e0       	ldi	r24, 0x00	; 0
    28f2:	98 e8       	ldi	r25, 0x88	; 136
    28f4:	a3 e1       	ldi	r26, 0x13	; 19
    28f6:	b0 e0       	ldi	r27, 0x00	; 0
    28f8:	01 97       	sbiw	r24, 0x01	; 1
    28fa:	a1 09       	sbc	r26, r1
    28fc:	b1 09       	sbc	r27, r1
    28fe:	00 97       	sbiw	r24, 0x00	; 0
    2900:	a1 05       	cpc	r26, r1
    2902:	b1 05       	cpc	r27, r1
    2904:	c9 f7       	brne	.-14     	; 0x28f8 <init_animation+0x2e0>
    2906:	80 e8       	ldi	r24, 0x80	; 128
    2908:	e0 e0       	ldi	r30, 0x00	; 0
    290a:	f6 e0       	ldi	r31, 0x06	; 6
    290c:	85 83       	std	Z+5, r24	; 0x05
    290e:	80 e0       	ldi	r24, 0x00	; 0
    2910:	98 e8       	ldi	r25, 0x88	; 136
    2912:	a3 e1       	ldi	r26, 0x13	; 19
    2914:	b0 e0       	ldi	r27, 0x00	; 0
    2916:	01 97       	sbiw	r24, 0x01	; 1
    2918:	a1 09       	sbc	r26, r1
    291a:	b1 09       	sbc	r27, r1
    291c:	00 97       	sbiw	r24, 0x00	; 0
    291e:	a1 05       	cpc	r26, r1
    2920:	b1 05       	cpc	r27, r1
    2922:	c9 f7       	brne	.-14     	; 0x2916 <init_animation+0x2fe>
    2924:	81 e0       	ldi	r24, 0x01	; 1
    2926:	e0 e2       	ldi	r30, 0x20	; 32
    2928:	f6 e0       	ldi	r31, 0x06	; 6
    292a:	85 83       	std	Z+5, r24	; 0x05
    292c:	80 e0       	ldi	r24, 0x00	; 0
    292e:	98 e8       	ldi	r25, 0x88	; 136
    2930:	a3 e1       	ldi	r26, 0x13	; 19
    2932:	b0 e0       	ldi	r27, 0x00	; 0
    2934:	01 97       	sbiw	r24, 0x01	; 1
    2936:	a1 09       	sbc	r26, r1
    2938:	b1 09       	sbc	r27, r1
    293a:	00 97       	sbiw	r24, 0x00	; 0
    293c:	a1 05       	cpc	r26, r1
    293e:	b1 05       	cpc	r27, r1
    2940:	c9 f7       	brne	.-14     	; 0x2934 <init_animation+0x31c>
    2942:	82 e0       	ldi	r24, 0x02	; 2
    2944:	e0 e2       	ldi	r30, 0x20	; 32
    2946:	f6 e0       	ldi	r31, 0x06	; 6
    2948:	85 83       	std	Z+5, r24	; 0x05
    294a:	80 e0       	ldi	r24, 0x00	; 0
    294c:	98 e8       	ldi	r25, 0x88	; 136
    294e:	a3 e1       	ldi	r26, 0x13	; 19
    2950:	b0 e0       	ldi	r27, 0x00	; 0
    2952:	01 97       	sbiw	r24, 0x01	; 1
    2954:	a1 09       	sbc	r26, r1
    2956:	b1 09       	sbc	r27, r1
    2958:	00 97       	sbiw	r24, 0x00	; 0
    295a:	a1 05       	cpc	r26, r1
    295c:	b1 05       	cpc	r27, r1
    295e:	c9 f7       	brne	.-14     	; 0x2952 <init_animation+0x33a>
	} else {
		base->OUTCLR = arch_ioport_pin_to_mask(pin);
    2960:	80 e4       	ldi	r24, 0x40	; 64
    2962:	e0 e0       	ldi	r30, 0x00	; 0
    2964:	f6 e0       	ldi	r31, 0x06	; 6
    2966:	86 83       	std	Z+6, r24	; 0x06
    2968:	80 e0       	ldi	r24, 0x00	; 0
    296a:	98 e8       	ldi	r25, 0x88	; 136
    296c:	a3 e1       	ldi	r26, 0x13	; 19
    296e:	b0 e0       	ldi	r27, 0x00	; 0
    2970:	01 97       	sbiw	r24, 0x01	; 1
    2972:	a1 09       	sbc	r26, r1
    2974:	b1 09       	sbc	r27, r1
    2976:	00 97       	sbiw	r24, 0x00	; 0
    2978:	a1 05       	cpc	r26, r1
    297a:	b1 05       	cpc	r27, r1
    297c:	c9 f7       	brne	.-14     	; 0x2970 <init_animation+0x358>
    297e:	80 e8       	ldi	r24, 0x80	; 128
    2980:	e0 e0       	ldi	r30, 0x00	; 0
    2982:	f6 e0       	ldi	r31, 0x06	; 6
    2984:	86 83       	std	Z+6, r24	; 0x06
    2986:	80 e0       	ldi	r24, 0x00	; 0
    2988:	98 e8       	ldi	r25, 0x88	; 136
    298a:	a3 e1       	ldi	r26, 0x13	; 19
    298c:	b0 e0       	ldi	r27, 0x00	; 0
    298e:	01 97       	sbiw	r24, 0x01	; 1
    2990:	a1 09       	sbc	r26, r1
    2992:	b1 09       	sbc	r27, r1
    2994:	00 97       	sbiw	r24, 0x00	; 0
    2996:	a1 05       	cpc	r26, r1
    2998:	b1 05       	cpc	r27, r1
    299a:	c9 f7       	brne	.-14     	; 0x298e <init_animation+0x376>
    299c:	81 e0       	ldi	r24, 0x01	; 1
    299e:	e0 e2       	ldi	r30, 0x20	; 32
    29a0:	f6 e0       	ldi	r31, 0x06	; 6
    29a2:	86 83       	std	Z+6, r24	; 0x06
    29a4:	80 e0       	ldi	r24, 0x00	; 0
    29a6:	98 e8       	ldi	r25, 0x88	; 136
    29a8:	a3 e1       	ldi	r26, 0x13	; 19
    29aa:	b0 e0       	ldi	r27, 0x00	; 0
    29ac:	01 97       	sbiw	r24, 0x01	; 1
    29ae:	a1 09       	sbc	r26, r1
    29b0:	b1 09       	sbc	r27, r1
    29b2:	00 97       	sbiw	r24, 0x00	; 0
    29b4:	a1 05       	cpc	r26, r1
    29b6:	b1 05       	cpc	r27, r1
    29b8:	c9 f7       	brne	.-14     	; 0x29ac <init_animation+0x394>
    29ba:	82 e0       	ldi	r24, 0x02	; 2
    29bc:	e0 e2       	ldi	r30, 0x20	; 32
    29be:	f6 e0       	ldi	r31, 0x06	; 6
    29c0:	86 83       	std	Z+6, r24	; 0x06
    29c2:	80 e0       	ldi	r24, 0x00	; 0
    29c4:	98 e8       	ldi	r25, 0x88	; 136
    29c6:	a3 e1       	ldi	r26, 0x13	; 19
    29c8:	b0 e0       	ldi	r27, 0x00	; 0
    29ca:	01 97       	sbiw	r24, 0x01	; 1
    29cc:	a1 09       	sbc	r26, r1
    29ce:	b1 09       	sbc	r27, r1
    29d0:	00 97       	sbiw	r24, 0x00	; 0
    29d2:	a1 05       	cpc	r26, r1
    29d4:	b1 05       	cpc	r27, r1
    29d6:	c9 f7       	brne	.-14     	; 0x29ca <init_animation+0x3b2>
	delay_ms(160);
	led3(OFF);
	delay_ms(160);
	led4(OFF);
	delay_ms(160);
    29d8:	08 95       	ret

000029da <usb_putchar_printf>:
	usb_putchar(*string++);
}


#ifdef PRINTF_USB
int usb_putchar_printf(char var, FILE *stream) {
    29da:	cf 93       	push	r28
    29dc:	c8 2f       	mov	r28, r24
	// translate \n to \r for br@y++ terminal
	if (var == '\n') usb_putchar('\r');
    29de:	8a 30       	cpi	r24, 0x0A	; 10
    29e0:	21 f4       	brne	.+8      	; 0x29ea <usb_putchar_printf+0x10>
	
}

void usb_putchar(char a)
{
	udi_cdc_putc(a);
    29e2:	8d e0       	ldi	r24, 0x0D	; 13
    29e4:	90 e0       	ldi	r25, 0x00	; 0
    29e6:	0e 94 91 04 	call	0x922	; 0x922 <udi_cdc_putc>
    29ea:	8c 2f       	mov	r24, r28
    29ec:	99 27       	eor	r25, r25
    29ee:	87 fd       	sbrc	r24, 7
    29f0:	90 95       	com	r25
    29f2:	0e 94 91 04 	call	0x922	; 0x922 <udi_cdc_putc>
int usb_putchar_printf(char var, FILE *stream) {
	// translate \n to \r for br@y++ terminal
	if (var == '\n') usb_putchar('\r');
	usb_putchar(var);
	return 0;
}
    29f6:	80 e0       	ldi	r24, 0x00	; 0
    29f8:	90 e0       	ldi	r25, 0x00	; 0
    29fa:	cf 91       	pop	r28
    29fc:	08 95       	ret

000029fe <usb_getchar_scanf>:

int usb_getchar_scanf(FILE *stream)
{
    29fe:	0f 93       	push	r16
    2a00:	1f 93       	push	r17
    2a02:	cf 93       	push	r28
    2a04:	df 93       	push	r29
    2a06:	8c 01       	movw	r16, r24
	return udi_cdc_getc();
}

int usb_is_rx_ready(void)
{
	return udi_cdc_is_rx_ready();
    2a08:	0e 94 d0 03 	call	0x7a0	; 0x7a0 <udi_cdc_is_rx_ready>

int usb_getchar_scanf(FILE *stream)
{
	uint8_t u8Data;
	// Wait for byte to be received
	while (usb_is_rx_ready()==0);
    2a0c:	88 23       	and	r24, r24
    2a0e:	e1 f3       	breq	.-8      	; 0x2a08 <usb_getchar_scanf+0xa>
	udi_cdc_putc(a);
}

char usb_getchar(void)
{
	return udi_cdc_getc();
    2a10:	0e 94 1c 04 	call	0x838	; 0x838 <udi_cdc_getc>
    2a14:	ec 01       	movw	r28, r24
	uint8_t u8Data;
	// Wait for byte to be received
	while (usb_is_rx_ready()==0);
	u8Data=usb_getchar();
	//echo input data
	usb_putchar_printf(u8Data,stream);
    2a16:	b8 01       	movw	r22, r16
    2a18:	e0 df       	rcall	.-64     	; 0x29da <usb_putchar_printf>
	// Return received data
	return u8Data;
}
    2a1a:	ce 01       	movw	r24, r28
    2a1c:	99 27       	eor	r25, r25
    2a1e:	df 91       	pop	r29
    2a20:	cf 91       	pop	r28
    2a22:	1f 91       	pop	r17
    2a24:	0f 91       	pop	r16
    2a26:	08 95       	ret

00002a28 <usb_init>:

#include "./../include/usb_serial.h"

void usb_init(void)
{
	irq_initialize_vectors();
    2a28:	87 e0       	ldi	r24, 0x07	; 7
    2a2a:	e0 ea       	ldi	r30, 0xA0	; 160
    2a2c:	f0 e0       	ldi	r31, 0x00	; 0
    2a2e:	82 83       	std	Z+2, r24	; 0x02
	cpu_irq_enable();
    2a30:	78 94       	sei
	udc_start();
    2a32:	0e 94 7f 05 	call	0xafe	; 0xafe <udc_start>
 * then it will attach device when an acceptable Vbus
 * level from the host is detected.
 */
static inline void udc_attach(void)
{
	udd_attach();
    2a36:	44 d9       	rcall	.-3448   	; 0x1cc0 <udd_attach>
	udc_attach();
	
	#ifdef PRINTF_USB
	// setup our stdio stream
	stdout = &mystdout;
    2a38:	88 e9       	ldi	r24, 0x98	; 152
    2a3a:	90 e2       	ldi	r25, 0x20	; 32
    2a3c:	80 93 b2 25 	sts	0x25B2, r24
    2a40:	90 93 b3 25 	sts	0x25B3, r25
	stdin = &mystdout;
    2a44:	80 93 b0 25 	sts	0x25B0, r24
    2a48:	90 93 b1 25 	sts	0x25B1, r25
    2a4c:	08 95       	ret

00002a4e <usart_serial_init>:
}



void rs485_send(char a)
{
    2a4e:	ef 92       	push	r14
    2a50:	ff 92       	push	r15
    2a52:	0f 93       	push	r16
    2a54:	1f 93       	push	r17
    2a56:	cf 93       	push	r28
    2a58:	df 93       	push	r29
    2a5a:	cd b7       	in	r28, 0x3d	; 61
    2a5c:	de b7       	in	r29, 0x3e	; 62
    2a5e:	27 97       	sbiw	r28, 0x07	; 7
    2a60:	cd bf       	out	0x3d, r28	; 61
    2a62:	de bf       	out	0x3e, r29	; 62
    2a64:	7c 01       	movw	r14, r24
    2a66:	fb 01       	movw	r30, r22
    2a68:	84 81       	ldd	r24, Z+4	; 0x04
    2a6a:	8d 83       	std	Y+5, r24	; 0x05
    2a6c:	85 81       	ldd	r24, Z+5	; 0x05
    2a6e:	8e 83       	std	Y+6, r24	; 0x06
    2a70:	86 81       	ldd	r24, Z+6	; 0x06
    2a72:	8f 83       	std	Y+7, r24	; 0x07
    2a74:	40 81       	ld	r20, Z
    2a76:	51 81       	ldd	r21, Z+1	; 0x01
    2a78:	62 81       	ldd	r22, Z+2	; 0x02
    2a7a:	73 81       	ldd	r23, Z+3	; 0x03
    2a7c:	49 83       	std	Y+1, r20	; 0x01
    2a7e:	5a 83       	std	Y+2, r21	; 0x02
    2a80:	6b 83       	std	Y+3, r22	; 0x03
    2a82:	7c 83       	std	Y+4, r23	; 0x04
    2a84:	87 01       	movw	r16, r14
    2a86:	80 ea       	ldi	r24, 0xA0	; 160
    2a88:	e8 16       	cp	r14, r24
    2a8a:	88 e0       	ldi	r24, 0x08	; 8
    2a8c:	f8 06       	cpc	r15, r24
    2a8e:	21 f4       	brne	.+8      	; 0x2a98 <usart_serial_init+0x4a>
    2a90:	60 e1       	ldi	r22, 0x10	; 16
    2a92:	83 e0       	ldi	r24, 0x03	; 3
    2a94:	4d dd       	rcall	.-1382   	; 0x2530 <sysclk_enable_module>
    2a96:	12 c0       	rjmp	.+36     	; 0x2abc <usart_serial_init+0x6e>
    2a98:	80 eb       	ldi	r24, 0xB0	; 176
    2a9a:	e8 16       	cp	r14, r24
    2a9c:	88 e0       	ldi	r24, 0x08	; 8
    2a9e:	f8 06       	cpc	r15, r24
    2aa0:	21 f4       	brne	.+8      	; 0x2aaa <usart_serial_init+0x5c>
    2aa2:	60 e2       	ldi	r22, 0x20	; 32
    2aa4:	83 e0       	ldi	r24, 0x03	; 3
    2aa6:	44 dd       	rcall	.-1400   	; 0x2530 <sysclk_enable_module>
    2aa8:	11 c0       	rjmp	.+34     	; 0x2acc <usart_serial_init+0x7e>
    2aaa:	80 ea       	ldi	r24, 0xA0	; 160
    2aac:	e8 16       	cp	r14, r24
    2aae:	89 e0       	ldi	r24, 0x09	; 9
    2ab0:	f8 06       	cpc	r15, r24
    2ab2:	21 f4       	brne	.+8      	; 0x2abc <usart_serial_init+0x6e>
    2ab4:	60 e1       	ldi	r22, 0x10	; 16
    2ab6:	84 e0       	ldi	r24, 0x04	; 4
    2ab8:	3b dd       	rcall	.-1418   	; 0x2530 <sysclk_enable_module>
    2aba:	0e c0       	rjmp	.+28     	; 0x2ad8 <usart_serial_init+0x8a>
    2abc:	00 3b       	cpi	r16, 0xB0	; 176
    2abe:	89 e0       	ldi	r24, 0x09	; 9
    2ac0:	18 07       	cpc	r17, r24
    2ac2:	21 f4       	brne	.+8      	; 0x2acc <usart_serial_init+0x7e>
    2ac4:	60 e2       	ldi	r22, 0x20	; 32
    2ac6:	84 e0       	ldi	r24, 0x04	; 4
    2ac8:	33 dd       	rcall	.-1434   	; 0x2530 <sysclk_enable_module>
    2aca:	06 c0       	rjmp	.+12     	; 0x2ad8 <usart_serial_init+0x8a>
    2acc:	00 3a       	cpi	r16, 0xA0	; 160
    2ace:	1a 40       	sbci	r17, 0x0A	; 10
    2ad0:	19 f4       	brne	.+6      	; 0x2ad8 <usart_serial_init+0x8a>
    2ad2:	60 e1       	ldi	r22, 0x10	; 16
    2ad4:	85 e0       	ldi	r24, 0x05	; 5
    2ad6:	2c dd       	rcall	.-1448   	; 0x2530 <sysclk_enable_module>
    2ad8:	be 01       	movw	r22, r28
    2ada:	6f 5f       	subi	r22, 0xFF	; 255
    2adc:	7f 4f       	sbci	r23, 0xFF	; 255
    2ade:	c7 01       	movw	r24, r14
    2ae0:	0e 94 d5 0a 	call	0x15aa	; 0x15aa <usart_init_rs232>
    2ae4:	27 96       	adiw	r28, 0x07	; 7
    2ae6:	cd bf       	out	0x3d, r28	; 61
    2ae8:	de bf       	out	0x3e, r29	; 62
    2aea:	df 91       	pop	r29
    2aec:	cf 91       	pop	r28
    2aee:	1f 91       	pop	r17
    2af0:	0f 91       	pop	r16
    2af2:	ff 90       	pop	r15
    2af4:	ef 90       	pop	r14
    2af6:	08 95       	ret

00002af8 <spi_init_module>:
    2af8:	cf 92       	push	r12
    2afa:	df 92       	push	r13
    2afc:	ef 92       	push	r14
    2afe:	ff 92       	push	r15
    2b00:	0f 93       	push	r16
    2b02:	1f 93       	push	r17
    2b04:	84 e1       	ldi	r24, 0x14	; 20
    2b06:	80 93 b4 20 	sts	0x20B4, r24
    2b0a:	80 ec       	ldi	r24, 0xC0	; 192
    2b0c:	98 e0       	ldi	r25, 0x08	; 8
    2b0e:	0e 94 23 01 	call	0x246	; 0x246 <spi_master_init>
    2b12:	c1 2c       	mov	r12, r1
    2b14:	d1 2c       	mov	r13, r1
    2b16:	76 01       	movw	r14, r12
    2b18:	00 e4       	ldi	r16, 0x40	; 64
    2b1a:	12 e4       	ldi	r17, 0x42	; 66
    2b1c:	2f e0       	ldi	r18, 0x0F	; 15
    2b1e:	30 e0       	ldi	r19, 0x00	; 0
    2b20:	40 e0       	ldi	r20, 0x00	; 0
    2b22:	64 eb       	ldi	r22, 0xB4	; 180
    2b24:	70 e2       	ldi	r23, 0x20	; 32
    2b26:	80 ec       	ldi	r24, 0xC0	; 192
    2b28:	98 e0       	ldi	r25, 0x08	; 8
    2b2a:	0e 94 3c 01 	call	0x278	; 0x278 <spi_master_setup_device>
    2b2e:	e0 ec       	ldi	r30, 0xC0	; 192
    2b30:	f8 e0       	ldi	r31, 0x08	; 8
    2b32:	80 81       	ld	r24, Z
    2b34:	80 64       	ori	r24, 0x40	; 64
    2b36:	80 83       	st	Z, r24
    2b38:	1f 91       	pop	r17
    2b3a:	0f 91       	pop	r16
    2b3c:	ff 90       	pop	r15
    2b3e:	ef 90       	pop	r14
    2b40:	df 90       	pop	r13
    2b42:	cf 90       	pop	r12
    2b44:	08 95       	ret

00002b46 <DW1000_setBit>:
    2b46:	fa 01       	movw	r30, r20
    2b48:	f6 95       	lsr	r31
    2b4a:	e7 95       	ror	r30
    2b4c:	f6 95       	lsr	r31
    2b4e:	e7 95       	ror	r30
    2b50:	f6 95       	lsr	r31
    2b52:	e7 95       	ror	r30
    2b54:	e6 17       	cp	r30, r22
    2b56:	f7 07       	cpc	r31, r23
    2b58:	f8 f4       	brcc	.+62     	; 0x2b98 <DW1000_setBit+0x52>
    2b5a:	e8 0f       	add	r30, r24
    2b5c:	f9 1f       	adc	r31, r25
    2b5e:	47 70       	andi	r20, 0x07	; 7
    2b60:	22 23       	and	r18, r18
    2b62:	69 f0       	breq	.+26     	; 0x2b7e <DW1000_setBit+0x38>
    2b64:	81 e0       	ldi	r24, 0x01	; 1
    2b66:	90 e0       	ldi	r25, 0x00	; 0
    2b68:	9c 01       	movw	r18, r24
    2b6a:	02 c0       	rjmp	.+4      	; 0x2b70 <DW1000_setBit+0x2a>
    2b6c:	22 0f       	add	r18, r18
    2b6e:	33 1f       	adc	r19, r19
    2b70:	4a 95       	dec	r20
    2b72:	e2 f7       	brpl	.-8      	; 0x2b6c <DW1000_setBit+0x26>
    2b74:	a9 01       	movw	r20, r18
    2b76:	80 81       	ld	r24, Z
    2b78:	48 2b       	or	r20, r24
    2b7a:	40 83       	st	Z, r20
    2b7c:	08 95       	ret
    2b7e:	81 e0       	ldi	r24, 0x01	; 1
    2b80:	90 e0       	ldi	r25, 0x00	; 0
    2b82:	9c 01       	movw	r18, r24
    2b84:	02 c0       	rjmp	.+4      	; 0x2b8a <DW1000_setBit+0x44>
    2b86:	22 0f       	add	r18, r18
    2b88:	33 1f       	adc	r19, r19
    2b8a:	4a 95       	dec	r20
    2b8c:	e2 f7       	brpl	.-8      	; 0x2b86 <DW1000_setBit+0x40>
    2b8e:	a9 01       	movw	r20, r18
    2b90:	40 95       	com	r20
    2b92:	80 81       	ld	r24, Z
    2b94:	48 23       	and	r20, r24
    2b96:	40 83       	st	Z, r20
    2b98:	08 95       	ret

00002b9a <DW1000_readBytes>:
    2b9a:	df 92       	push	r13
    2b9c:	ef 92       	push	r14
    2b9e:	ff 92       	push	r15
    2ba0:	0f 93       	push	r16
    2ba2:	1f 93       	push	r17
    2ba4:	cf 93       	push	r28
    2ba6:	df 93       	push	r29
    2ba8:	00 d0       	rcall	.+0      	; 0x2baa <DW1000_readBytes+0x10>
    2baa:	1f 92       	push	r1
    2bac:	cd b7       	in	r28, 0x3d	; 61
    2bae:	de b7       	in	r29, 0x3e	; 62
    2bb0:	7a 01       	movw	r14, r20
    2bb2:	89 01       	movw	r16, r18
    2bb4:	6f 3f       	cpi	r22, 0xFF	; 255
    2bb6:	71 05       	cpc	r23, r1
    2bb8:	21 f4       	brne	.+8      	; 0x2bc2 <DW1000_readBytes+0x28>
    2bba:	89 83       	std	Y+1, r24	; 0x01
    2bbc:	dd 24       	eor	r13, r13
    2bbe:	d3 94       	inc	r13
    2bc0:	17 c0       	rjmp	.+46     	; 0x2bf0 <DW1000_readBytes+0x56>
    2bc2:	80 64       	ori	r24, 0x40	; 64
    2bc4:	89 83       	std	Y+1, r24	; 0x01
    2bc6:	60 38       	cpi	r22, 0x80	; 128
    2bc8:	71 05       	cpc	r23, r1
    2bca:	28 f4       	brcc	.+10     	; 0x2bd6 <DW1000_readBytes+0x3c>
    2bcc:	6a 83       	std	Y+2, r22	; 0x02
    2bce:	68 94       	set
    2bd0:	dd 24       	eor	r13, r13
    2bd2:	d1 f8       	bld	r13, 1
    2bd4:	0d c0       	rjmp	.+26     	; 0x2bf0 <DW1000_readBytes+0x56>
    2bd6:	86 2f       	mov	r24, r22
    2bd8:	80 68       	ori	r24, 0x80	; 128
    2bda:	8a 83       	std	Y+2, r24	; 0x02
    2bdc:	66 0f       	add	r22, r22
    2bde:	67 2f       	mov	r22, r23
    2be0:	66 1f       	adc	r22, r22
    2be2:	77 0b       	sbc	r23, r23
    2be4:	71 95       	neg	r23
    2be6:	6b 83       	std	Y+3, r22	; 0x03
    2be8:	0f 2e       	mov	r0, r31
    2bea:	f3 e0       	ldi	r31, 0x03	; 3
    2bec:	df 2e       	mov	r13, r31
    2bee:	f0 2d       	mov	r31, r0
    2bf0:	64 eb       	ldi	r22, 0xB4	; 180
    2bf2:	70 e2       	ldi	r23, 0x20	; 32
    2bf4:	80 ec       	ldi	r24, 0xC0	; 192
    2bf6:	98 e0       	ldi	r25, 0x08	; 8
    2bf8:	0e 94 7d 01 	call	0x2fa	; 0x2fa <spi_select_device>
    2bfc:	4d 2d       	mov	r20, r13
    2bfe:	50 e0       	ldi	r21, 0x00	; 0
    2c00:	be 01       	movw	r22, r28
    2c02:	6f 5f       	subi	r22, 0xFF	; 255
    2c04:	7f 4f       	sbci	r23, 0xFF	; 255
    2c06:	80 ec       	ldi	r24, 0xC0	; 192
    2c08:	98 e0       	ldi	r25, 0x08	; 8
    2c0a:	0e 94 5b 01 	call	0x2b6	; 0x2b6 <spi_write_packet>
    2c0e:	a8 01       	movw	r20, r16
    2c10:	b7 01       	movw	r22, r14
    2c12:	80 ec       	ldi	r24, 0xC0	; 192
    2c14:	98 e0       	ldi	r25, 0x08	; 8
    2c16:	0e 94 6a 01 	call	0x2d4	; 0x2d4 <spi_read_packet>
    2c1a:	64 eb       	ldi	r22, 0xB4	; 180
    2c1c:	70 e2       	ldi	r23, 0x20	; 32
    2c1e:	80 ec       	ldi	r24, 0xC0	; 192
    2c20:	98 e0       	ldi	r25, 0x08	; 8
    2c22:	0e 94 93 01 	call	0x326	; 0x326 <spi_deselect_device>
    2c26:	23 96       	adiw	r28, 0x03	; 3
    2c28:	cd bf       	out	0x3d, r28	; 61
    2c2a:	de bf       	out	0x3e, r29	; 62
    2c2c:	df 91       	pop	r29
    2c2e:	cf 91       	pop	r28
    2c30:	1f 91       	pop	r17
    2c32:	0f 91       	pop	r16
    2c34:	ff 90       	pop	r15
    2c36:	ef 90       	pop	r14
    2c38:	df 90       	pop	r13
    2c3a:	08 95       	ret

00002c3c <DW1000_writeBytes>:
    2c3c:	df 92       	push	r13
    2c3e:	ef 92       	push	r14
    2c40:	ff 92       	push	r15
    2c42:	0f 93       	push	r16
    2c44:	1f 93       	push	r17
    2c46:	cf 93       	push	r28
    2c48:	df 93       	push	r29
    2c4a:	00 d0       	rcall	.+0      	; 0x2c4c <DW1000_writeBytes+0x10>
    2c4c:	1f 92       	push	r1
    2c4e:	cd b7       	in	r28, 0x3d	; 61
    2c50:	de b7       	in	r29, 0x3e	; 62
    2c52:	7a 01       	movw	r14, r20
    2c54:	89 01       	movw	r16, r18
    2c56:	6f 3f       	cpi	r22, 0xFF	; 255
    2c58:	71 05       	cpc	r23, r1
    2c5a:	29 f4       	brne	.+10     	; 0x2c66 <DW1000_writeBytes+0x2a>
    2c5c:	80 68       	ori	r24, 0x80	; 128
    2c5e:	89 83       	std	Y+1, r24	; 0x01
    2c60:	dd 24       	eor	r13, r13
    2c62:	d3 94       	inc	r13
    2c64:	17 c0       	rjmp	.+46     	; 0x2c94 <DW1000_writeBytes+0x58>
    2c66:	80 6c       	ori	r24, 0xC0	; 192
    2c68:	89 83       	std	Y+1, r24	; 0x01
    2c6a:	60 38       	cpi	r22, 0x80	; 128
    2c6c:	71 05       	cpc	r23, r1
    2c6e:	28 f4       	brcc	.+10     	; 0x2c7a <DW1000_writeBytes+0x3e>
    2c70:	6a 83       	std	Y+2, r22	; 0x02
    2c72:	68 94       	set
    2c74:	dd 24       	eor	r13, r13
    2c76:	d1 f8       	bld	r13, 1
    2c78:	0d c0       	rjmp	.+26     	; 0x2c94 <DW1000_writeBytes+0x58>
    2c7a:	86 2f       	mov	r24, r22
    2c7c:	80 68       	ori	r24, 0x80	; 128
    2c7e:	8a 83       	std	Y+2, r24	; 0x02
    2c80:	66 0f       	add	r22, r22
    2c82:	67 2f       	mov	r22, r23
    2c84:	66 1f       	adc	r22, r22
    2c86:	77 0b       	sbc	r23, r23
    2c88:	71 95       	neg	r23
    2c8a:	6b 83       	std	Y+3, r22	; 0x03
    2c8c:	0f 2e       	mov	r0, r31
    2c8e:	f3 e0       	ldi	r31, 0x03	; 3
    2c90:	df 2e       	mov	r13, r31
    2c92:	f0 2d       	mov	r31, r0
    2c94:	64 eb       	ldi	r22, 0xB4	; 180
    2c96:	70 e2       	ldi	r23, 0x20	; 32
    2c98:	80 ec       	ldi	r24, 0xC0	; 192
    2c9a:	98 e0       	ldi	r25, 0x08	; 8
    2c9c:	0e 94 7d 01 	call	0x2fa	; 0x2fa <spi_select_device>
    2ca0:	4d 2d       	mov	r20, r13
    2ca2:	50 e0       	ldi	r21, 0x00	; 0
    2ca4:	be 01       	movw	r22, r28
    2ca6:	6f 5f       	subi	r22, 0xFF	; 255
    2ca8:	7f 4f       	sbci	r23, 0xFF	; 255
    2caa:	80 ec       	ldi	r24, 0xC0	; 192
    2cac:	98 e0       	ldi	r25, 0x08	; 8
    2cae:	0e 94 5b 01 	call	0x2b6	; 0x2b6 <spi_write_packet>
    2cb2:	a8 01       	movw	r20, r16
    2cb4:	b7 01       	movw	r22, r14
    2cb6:	80 ec       	ldi	r24, 0xC0	; 192
    2cb8:	98 e0       	ldi	r25, 0x08	; 8
    2cba:	0e 94 5b 01 	call	0x2b6	; 0x2b6 <spi_write_packet>
    2cbe:	64 eb       	ldi	r22, 0xB4	; 180
    2cc0:	70 e2       	ldi	r23, 0x20	; 32
    2cc2:	80 ec       	ldi	r24, 0xC0	; 192
    2cc4:	98 e0       	ldi	r25, 0x08	; 8
    2cc6:	0e 94 93 01 	call	0x326	; 0x326 <spi_deselect_device>
    2cca:	23 96       	adiw	r28, 0x03	; 3
    2ccc:	cd bf       	out	0x3d, r28	; 61
    2cce:	de bf       	out	0x3e, r29	; 62
    2cd0:	df 91       	pop	r29
    2cd2:	cf 91       	pop	r28
    2cd4:	1f 91       	pop	r17
    2cd6:	0f 91       	pop	r16
    2cd8:	ff 90       	pop	r15
    2cda:	ef 90       	pop	r14
    2cdc:	df 90       	pop	r13
    2cde:	08 95       	ret

00002ce0 <DW1000_writeByte>:
    2ce0:	cf 93       	push	r28
    2ce2:	df 93       	push	r29
    2ce4:	1f 92       	push	r1
    2ce6:	cd b7       	in	r28, 0x3d	; 61
    2ce8:	de b7       	in	r29, 0x3e	; 62
    2cea:	49 83       	std	Y+1, r20	; 0x01
    2cec:	21 e0       	ldi	r18, 0x01	; 1
    2cee:	30 e0       	ldi	r19, 0x00	; 0
    2cf0:	ae 01       	movw	r20, r28
    2cf2:	4f 5f       	subi	r20, 0xFF	; 255
    2cf4:	5f 4f       	sbci	r21, 0xFF	; 255
    2cf6:	a2 df       	rcall	.-188    	; 0x2c3c <DW1000_writeBytes>
    2cf8:	0f 90       	pop	r0
    2cfa:	df 91       	pop	r29
    2cfc:	cf 91       	pop	r28
    2cfe:	08 95       	ret

00002d00 <DW1000_writeValueToBytes>:
    2d00:	0f 93       	push	r16
    2d02:	1f 93       	push	r17
    2d04:	21 15       	cp	r18, r1
    2d06:	31 05       	cpc	r19, r1
    2d08:	a1 f0       	breq	.+40     	; 0x2d32 <DW1000_writeValueToBytes+0x32>
    2d0a:	dc 01       	movw	r26, r24
    2d0c:	82 0f       	add	r24, r18
    2d0e:	93 1f       	adc	r25, r19
    2d10:	e0 e0       	ldi	r30, 0x00	; 0
    2d12:	f0 e0       	ldi	r31, 0x00	; 0
    2d14:	8a 01       	movw	r16, r20
    2d16:	9b 01       	movw	r18, r22
    2d18:	0e 2e       	mov	r0, r30
    2d1a:	04 c0       	rjmp	.+8      	; 0x2d24 <DW1000_writeValueToBytes+0x24>
    2d1c:	35 95       	asr	r19
    2d1e:	27 95       	ror	r18
    2d20:	17 95       	ror	r17
    2d22:	07 95       	ror	r16
    2d24:	0a 94       	dec	r0
    2d26:	d2 f7       	brpl	.-12     	; 0x2d1c <DW1000_writeValueToBytes+0x1c>
    2d28:	0d 93       	st	X+, r16
    2d2a:	38 96       	adiw	r30, 0x08	; 8
    2d2c:	a8 17       	cp	r26, r24
    2d2e:	b9 07       	cpc	r27, r25
    2d30:	89 f7       	brne	.-30     	; 0x2d14 <DW1000_writeValueToBytes+0x14>
    2d32:	1f 91       	pop	r17
    2d34:	0f 91       	pop	r16
    2d36:	08 95       	ret

00002d38 <DW1000_idle>:
    2d38:	10 92 8b 25 	sts	0x258B, r1
    2d3c:	10 92 8c 25 	sts	0x258C, r1
    2d40:	10 92 8d 25 	sts	0x258D, r1
    2d44:	10 92 8e 25 	sts	0x258E, r1
    2d48:	21 e0       	ldi	r18, 0x01	; 1
    2d4a:	46 e0       	ldi	r20, 0x06	; 6
    2d4c:	50 e0       	ldi	r21, 0x00	; 0
    2d4e:	64 e0       	ldi	r22, 0x04	; 4
    2d50:	70 e0       	ldi	r23, 0x00	; 0
    2d52:	8b e8       	ldi	r24, 0x8B	; 139
    2d54:	95 e2       	ldi	r25, 0x25	; 37
    2d56:	f7 de       	rcall	.-530    	; 0x2b46 <DW1000_setBit>
    2d58:	10 92 af 25 	sts	0x25AF, r1
    2d5c:	24 e0       	ldi	r18, 0x04	; 4
    2d5e:	30 e0       	ldi	r19, 0x00	; 0
    2d60:	4b e8       	ldi	r20, 0x8B	; 139
    2d62:	55 e2       	ldi	r21, 0x25	; 37
    2d64:	6f ef       	ldi	r22, 0xFF	; 255
    2d66:	70 e0       	ldi	r23, 0x00	; 0
    2d68:	8d e0       	ldi	r24, 0x0D	; 13
    2d6a:	68 cf       	rjmp	.-304    	; 0x2c3c <DW1000_writeBytes>
    2d6c:	08 95       	ret

00002d6e <DW1000_readBytesOTP>:
    2d6e:	0f 93       	push	r16
    2d70:	1f 93       	push	r17
    2d72:	cf 93       	push	r28
    2d74:	df 93       	push	r29
    2d76:	00 d0       	rcall	.+0      	; 0x2d78 <DW1000_readBytesOTP+0xa>
    2d78:	cd b7       	in	r28, 0x3d	; 61
    2d7a:	de b7       	in	r29, 0x3e	; 62
    2d7c:	8b 01       	movw	r16, r22
    2d7e:	89 83       	std	Y+1, r24	; 0x01
    2d80:	9a 83       	std	Y+2, r25	; 0x02
    2d82:	22 e0       	ldi	r18, 0x02	; 2
    2d84:	30 e0       	ldi	r19, 0x00	; 0
    2d86:	ae 01       	movw	r20, r28
    2d88:	4f 5f       	subi	r20, 0xFF	; 255
    2d8a:	5f 4f       	sbci	r21, 0xFF	; 255
    2d8c:	64 e0       	ldi	r22, 0x04	; 4
    2d8e:	70 e0       	ldi	r23, 0x00	; 0
    2d90:	8d e2       	ldi	r24, 0x2D	; 45
    2d92:	54 df       	rcall	.-344    	; 0x2c3c <DW1000_writeBytes>
    2d94:	43 e0       	ldi	r20, 0x03	; 3
    2d96:	66 e0       	ldi	r22, 0x06	; 6
    2d98:	70 e0       	ldi	r23, 0x00	; 0
    2d9a:	8d e2       	ldi	r24, 0x2D	; 45
    2d9c:	a1 df       	rcall	.-190    	; 0x2ce0 <DW1000_writeByte>
    2d9e:	41 e0       	ldi	r20, 0x01	; 1
    2da0:	66 e0       	ldi	r22, 0x06	; 6
    2da2:	70 e0       	ldi	r23, 0x00	; 0
    2da4:	8d e2       	ldi	r24, 0x2D	; 45
    2da6:	9c df       	rcall	.-200    	; 0x2ce0 <DW1000_writeByte>
    2da8:	24 e0       	ldi	r18, 0x04	; 4
    2daa:	30 e0       	ldi	r19, 0x00	; 0
    2dac:	a8 01       	movw	r20, r16
    2dae:	6a e0       	ldi	r22, 0x0A	; 10
    2db0:	70 e0       	ldi	r23, 0x00	; 0
    2db2:	8d e2       	ldi	r24, 0x2D	; 45
    2db4:	f2 de       	rcall	.-540    	; 0x2b9a <DW1000_readBytes>
    2db6:	40 e0       	ldi	r20, 0x00	; 0
    2db8:	66 e0       	ldi	r22, 0x06	; 6
    2dba:	70 e0       	ldi	r23, 0x00	; 0
    2dbc:	8d e2       	ldi	r24, 0x2D	; 45
    2dbe:	90 df       	rcall	.-224    	; 0x2ce0 <DW1000_writeByte>
    2dc0:	0f 90       	pop	r0
    2dc2:	0f 90       	pop	r0
    2dc4:	df 91       	pop	r29
    2dc6:	cf 91       	pop	r28
    2dc8:	1f 91       	pop	r17
    2dca:	0f 91       	pop	r16
    2dcc:	08 95       	ret

00002dce <DW1000_readSystemConfigurationRegister>:
    2dce:	24 e0       	ldi	r18, 0x04	; 4
    2dd0:	30 e0       	ldi	r19, 0x00	; 0
    2dd2:	47 e8       	ldi	r20, 0x87	; 135
    2dd4:	55 e2       	ldi	r21, 0x25	; 37
    2dd6:	6f ef       	ldi	r22, 0xFF	; 255
    2dd8:	70 e0       	ldi	r23, 0x00	; 0
    2dda:	84 e0       	ldi	r24, 0x04	; 4
    2ddc:	de ce       	rjmp	.-580    	; 0x2b9a <DW1000_readBytes>
    2dde:	08 95       	ret

00002de0 <DW1000_writeSystemConfigurationRegister>:
    2de0:	24 e0       	ldi	r18, 0x04	; 4
    2de2:	30 e0       	ldi	r19, 0x00	; 0
    2de4:	47 e8       	ldi	r20, 0x87	; 135
    2de6:	55 e2       	ldi	r21, 0x25	; 37
    2de8:	6f ef       	ldi	r22, 0xFF	; 255
    2dea:	70 e0       	ldi	r23, 0x00	; 0
    2dec:	84 e0       	ldi	r24, 0x04	; 4
    2dee:	26 cf       	rjmp	.-436    	; 0x2c3c <DW1000_writeBytes>
    2df0:	08 95       	ret

00002df2 <DW1000_readNetworkIdAndDeviceAddress>:
    2df2:	24 e0       	ldi	r18, 0x04	; 4
    2df4:	30 e0       	ldi	r19, 0x00	; 0
    2df6:	4b ea       	ldi	r20, 0xAB	; 171
    2df8:	55 e2       	ldi	r21, 0x25	; 37
    2dfa:	6f ef       	ldi	r22, 0xFF	; 255
    2dfc:	70 e0       	ldi	r23, 0x00	; 0
    2dfe:	83 e0       	ldi	r24, 0x03	; 3
    2e00:	cc ce       	rjmp	.-616    	; 0x2b9a <DW1000_readBytes>
    2e02:	08 95       	ret

00002e04 <DW1000_writeNetworkIdAndDeviceAddress>:
    2e04:	24 e0       	ldi	r18, 0x04	; 4
    2e06:	30 e0       	ldi	r19, 0x00	; 0
    2e08:	4b ea       	ldi	r20, 0xAB	; 171
    2e0a:	55 e2       	ldi	r21, 0x25	; 37
    2e0c:	6f ef       	ldi	r22, 0xFF	; 255
    2e0e:	70 e0       	ldi	r23, 0x00	; 0
    2e10:	83 e0       	ldi	r24, 0x03	; 3
    2e12:	14 cf       	rjmp	.-472    	; 0x2c3c <DW1000_writeBytes>
    2e14:	08 95       	ret

00002e16 <DW1000_readSystemEventMaskRegister>:
    2e16:	24 e0       	ldi	r18, 0x04	; 4
    2e18:	30 e0       	ldi	r19, 0x00	; 0
    2e1a:	49 e9       	ldi	r20, 0x99	; 153
    2e1c:	55 e2       	ldi	r21, 0x25	; 37
    2e1e:	6f ef       	ldi	r22, 0xFF	; 255
    2e20:	70 e0       	ldi	r23, 0x00	; 0
    2e22:	8e e0       	ldi	r24, 0x0E	; 14
    2e24:	ba ce       	rjmp	.-652    	; 0x2b9a <DW1000_readBytes>
    2e26:	08 95       	ret

00002e28 <DW1000_writeSystemEventMaskRegister>:
    2e28:	24 e0       	ldi	r18, 0x04	; 4
    2e2a:	30 e0       	ldi	r19, 0x00	; 0
    2e2c:	49 e9       	ldi	r20, 0x99	; 153
    2e2e:	55 e2       	ldi	r21, 0x25	; 37
    2e30:	6f ef       	ldi	r22, 0xFF	; 255
    2e32:	70 e0       	ldi	r23, 0x00	; 0
    2e34:	8e e0       	ldi	r24, 0x0E	; 14
    2e36:	02 cf       	rjmp	.-508    	; 0x2c3c <DW1000_writeBytes>
    2e38:	08 95       	ret

00002e3a <DW1000_readChannelControlRegister>:
    2e3a:	24 e0       	ldi	r18, 0x04	; 4
    2e3c:	30 e0       	ldi	r19, 0x00	; 0
    2e3e:	4d e9       	ldi	r20, 0x9D	; 157
    2e40:	55 e2       	ldi	r21, 0x25	; 37
    2e42:	6f ef       	ldi	r22, 0xFF	; 255
    2e44:	70 e0       	ldi	r23, 0x00	; 0
    2e46:	8f e1       	ldi	r24, 0x1F	; 31
    2e48:	a8 ce       	rjmp	.-688    	; 0x2b9a <DW1000_readBytes>
    2e4a:	08 95       	ret

00002e4c <DW1000_writeChannelControlRegister>:
    2e4c:	24 e0       	ldi	r18, 0x04	; 4
    2e4e:	30 e0       	ldi	r19, 0x00	; 0
    2e50:	4d e9       	ldi	r20, 0x9D	; 157
    2e52:	55 e2       	ldi	r21, 0x25	; 37
    2e54:	6f ef       	ldi	r22, 0xFF	; 255
    2e56:	70 e0       	ldi	r23, 0x00	; 0
    2e58:	8f e1       	ldi	r24, 0x1F	; 31
    2e5a:	f0 ce       	rjmp	.-544    	; 0x2c3c <DW1000_writeBytes>
    2e5c:	08 95       	ret

00002e5e <DW1000_readTransmitFrameControlRegister>:
    2e5e:	25 e0       	ldi	r18, 0x05	; 5
    2e60:	30 e0       	ldi	r19, 0x00	; 0
    2e62:	44 e9       	ldi	r20, 0x94	; 148
    2e64:	55 e2       	ldi	r21, 0x25	; 37
    2e66:	6f ef       	ldi	r22, 0xFF	; 255
    2e68:	70 e0       	ldi	r23, 0x00	; 0
    2e6a:	88 e0       	ldi	r24, 0x08	; 8
    2e6c:	96 ce       	rjmp	.-724    	; 0x2b9a <DW1000_readBytes>
    2e6e:	08 95       	ret

00002e70 <DW1000_writeTransmitFrameControlRegister>:
    2e70:	25 e0       	ldi	r18, 0x05	; 5
    2e72:	30 e0       	ldi	r19, 0x00	; 0
    2e74:	44 e9       	ldi	r20, 0x94	; 148
    2e76:	55 e2       	ldi	r21, 0x25	; 37
    2e78:	6f ef       	ldi	r22, 0xFF	; 255
    2e7a:	70 e0       	ldi	r23, 0x00	; 0
    2e7c:	88 e0       	ldi	r24, 0x08	; 8
    2e7e:	de ce       	rjmp	.-580    	; 0x2c3c <DW1000_writeBytes>
    2e80:	08 95       	ret

00002e82 <DW1000_setReceiverAutoReenable>:
    2e82:	28 2f       	mov	r18, r24
    2e84:	4d e1       	ldi	r20, 0x1D	; 29
    2e86:	50 e0       	ldi	r21, 0x00	; 0
    2e88:	64 e0       	ldi	r22, 0x04	; 4
    2e8a:	70 e0       	ldi	r23, 0x00	; 0
    2e8c:	87 e8       	ldi	r24, 0x87	; 135
    2e8e:	95 e2       	ldi	r25, 0x25	; 37
    2e90:	5a ce       	rjmp	.-844    	; 0x2b46 <DW1000_setBit>
    2e92:	08 95       	ret

00002e94 <DW1000_useExtendedFrameLength>:
    2e94:	88 23       	and	r24, r24
    2e96:	11 f0       	breq	.+4      	; 0x2e9c <DW1000_useExtendedFrameLength+0x8>
    2e98:	83 e0       	ldi	r24, 0x03	; 3
    2e9a:	01 c0       	rjmp	.+2      	; 0x2e9e <DW1000_useExtendedFrameLength+0xa>
    2e9c:	80 e0       	ldi	r24, 0x00	; 0
    2e9e:	80 93 a2 25 	sts	0x25A2, r24
    2ea2:	e9 e8       	ldi	r30, 0x89	; 137
    2ea4:	f5 e2       	ldi	r31, 0x25	; 37
    2ea6:	90 81       	ld	r25, Z
    2ea8:	9c 7f       	andi	r25, 0xFC	; 252
    2eaa:	89 2b       	or	r24, r25
    2eac:	80 83       	st	Z, r24
    2eae:	08 95       	ret

00002eb0 <DW1000_useSmartPower>:
    2eb0:	80 93 a1 25 	sts	0x25A1, r24
    2eb4:	21 e0       	ldi	r18, 0x01	; 1
    2eb6:	81 11       	cpse	r24, r1
    2eb8:	20 e0       	ldi	r18, 0x00	; 0
    2eba:	42 e1       	ldi	r20, 0x12	; 18
    2ebc:	50 e0       	ldi	r21, 0x00	; 0
    2ebe:	64 e0       	ldi	r22, 0x04	; 4
    2ec0:	70 e0       	ldi	r23, 0x00	; 0
    2ec2:	87 e8       	ldi	r24, 0x87	; 135
    2ec4:	95 e2       	ldi	r25, 0x25	; 37
    2ec6:	3f ce       	rjmp	.-898    	; 0x2b46 <DW1000_setBit>
    2ec8:	08 95       	ret

00002eca <DW1000_setFrameFilter>:
    2eca:	28 2f       	mov	r18, r24
    2ecc:	40 e0       	ldi	r20, 0x00	; 0
    2ece:	50 e0       	ldi	r21, 0x00	; 0
    2ed0:	64 e0       	ldi	r22, 0x04	; 4
    2ed2:	70 e0       	ldi	r23, 0x00	; 0
    2ed4:	87 e8       	ldi	r24, 0x87	; 135
    2ed6:	95 e2       	ldi	r25, 0x25	; 37
    2ed8:	36 ce       	rjmp	.-916    	; 0x2b46 <DW1000_setBit>
    2eda:	08 95       	ret

00002edc <DW1000_interruptOnSent>:
    2edc:	28 2f       	mov	r18, r24
    2ede:	47 e0       	ldi	r20, 0x07	; 7
    2ee0:	50 e0       	ldi	r21, 0x00	; 0
    2ee2:	64 e0       	ldi	r22, 0x04	; 4
    2ee4:	70 e0       	ldi	r23, 0x00	; 0
    2ee6:	89 e9       	ldi	r24, 0x99	; 153
    2ee8:	95 e2       	ldi	r25, 0x25	; 37
    2eea:	2d ce       	rjmp	.-934    	; 0x2b46 <DW1000_setBit>
    2eec:	08 95       	ret

00002eee <DW1000_interruptOnReceived>:
    2eee:	cf 93       	push	r28
    2ef0:	c8 2f       	mov	r28, r24
    2ef2:	28 2f       	mov	r18, r24
    2ef4:	4d e0       	ldi	r20, 0x0D	; 13
    2ef6:	50 e0       	ldi	r21, 0x00	; 0
    2ef8:	64 e0       	ldi	r22, 0x04	; 4
    2efa:	70 e0       	ldi	r23, 0x00	; 0
    2efc:	89 e9       	ldi	r24, 0x99	; 153
    2efe:	95 e2       	ldi	r25, 0x25	; 37
    2f00:	22 de       	rcall	.-956    	; 0x2b46 <DW1000_setBit>
    2f02:	2c 2f       	mov	r18, r28
    2f04:	4e e0       	ldi	r20, 0x0E	; 14
    2f06:	50 e0       	ldi	r21, 0x00	; 0
    2f08:	64 e0       	ldi	r22, 0x04	; 4
    2f0a:	70 e0       	ldi	r23, 0x00	; 0
    2f0c:	89 e9       	ldi	r24, 0x99	; 153
    2f0e:	95 e2       	ldi	r25, 0x25	; 37
    2f10:	1a de       	rcall	.-972    	; 0x2b46 <DW1000_setBit>
    2f12:	cf 91       	pop	r28
    2f14:	08 95       	ret

00002f16 <DW1000_interruptOnReceiveFailed>:
    2f16:	cf 93       	push	r28
    2f18:	c8 2f       	mov	r28, r24
    2f1a:	28 2f       	mov	r18, r24
    2f1c:	42 e1       	ldi	r20, 0x12	; 18
    2f1e:	50 e0       	ldi	r21, 0x00	; 0
    2f20:	65 e0       	ldi	r22, 0x05	; 5
    2f22:	70 e0       	ldi	r23, 0x00	; 0
    2f24:	89 e9       	ldi	r24, 0x99	; 153
    2f26:	95 e2       	ldi	r25, 0x25	; 37
    2f28:	0e de       	rcall	.-996    	; 0x2b46 <DW1000_setBit>
    2f2a:	2c 2f       	mov	r18, r28
    2f2c:	4f e0       	ldi	r20, 0x0F	; 15
    2f2e:	50 e0       	ldi	r21, 0x00	; 0
    2f30:	65 e0       	ldi	r22, 0x05	; 5
    2f32:	70 e0       	ldi	r23, 0x00	; 0
    2f34:	89 e9       	ldi	r24, 0x99	; 153
    2f36:	95 e2       	ldi	r25, 0x25	; 37
    2f38:	06 de       	rcall	.-1012   	; 0x2b46 <DW1000_setBit>
    2f3a:	2c 2f       	mov	r18, r28
    2f3c:	4c e0       	ldi	r20, 0x0C	; 12
    2f3e:	50 e0       	ldi	r21, 0x00	; 0
    2f40:	65 e0       	ldi	r22, 0x05	; 5
    2f42:	70 e0       	ldi	r23, 0x00	; 0
    2f44:	89 e9       	ldi	r24, 0x99	; 153
    2f46:	95 e2       	ldi	r25, 0x25	; 37
    2f48:	fe dd       	rcall	.-1028   	; 0x2b46 <DW1000_setBit>
    2f4a:	2c 2f       	mov	r18, r28
    2f4c:	40 e1       	ldi	r20, 0x10	; 16
    2f4e:	50 e0       	ldi	r21, 0x00	; 0
    2f50:	65 e0       	ldi	r22, 0x05	; 5
    2f52:	70 e0       	ldi	r23, 0x00	; 0
    2f54:	89 e9       	ldi	r24, 0x99	; 153
    2f56:	95 e2       	ldi	r25, 0x25	; 37
    2f58:	f6 dd       	rcall	.-1044   	; 0x2b46 <DW1000_setBit>
    2f5a:	cf 91       	pop	r28
    2f5c:	08 95       	ret

00002f5e <DW1000_interruptOnReceiveTimestampAvailable>:
    2f5e:	28 2f       	mov	r18, r24
    2f60:	4a e0       	ldi	r20, 0x0A	; 10
    2f62:	50 e0       	ldi	r21, 0x00	; 0
    2f64:	64 e0       	ldi	r22, 0x04	; 4
    2f66:	70 e0       	ldi	r23, 0x00	; 0
    2f68:	89 e9       	ldi	r24, 0x99	; 153
    2f6a:	95 e2       	ldi	r25, 0x25	; 37
    2f6c:	ec cd       	rjmp	.-1064   	; 0x2b46 <DW1000_setBit>
    2f6e:	08 95       	ret

00002f70 <DW1000_interruptOnAutomaticAcknowledgeTrigger>:
    2f70:	28 2f       	mov	r18, r24
    2f72:	43 e0       	ldi	r20, 0x03	; 3
    2f74:	50 e0       	ldi	r21, 0x00	; 0
    2f76:	64 e0       	ldi	r22, 0x04	; 4
    2f78:	70 e0       	ldi	r23, 0x00	; 0
    2f7a:	89 e9       	ldi	r24, 0x99	; 153
    2f7c:	95 e2       	ldi	r25, 0x25	; 37
    2f7e:	e3 cd       	rjmp	.-1082   	; 0x2b46 <DW1000_setBit>
    2f80:	08 95       	ret

00002f82 <DW1000_setDataRate>:
    2f82:	1f 93       	push	r17
    2f84:	cf 93       	push	r28
    2f86:	df 93       	push	r29
    2f88:	1f 92       	push	r1
    2f8a:	cd b7       	in	r28, 0x3d	; 61
    2f8c:	de b7       	in	r29, 0x3e	; 62
    2f8e:	18 2f       	mov	r17, r24
    2f90:	13 70       	andi	r17, 0x03	; 3
    2f92:	e5 e9       	ldi	r30, 0x95	; 149
    2f94:	f5 e2       	ldi	r31, 0x25	; 37
    2f96:	80 e2       	ldi	r24, 0x20	; 32
    2f98:	18 9f       	mul	r17, r24
    2f9a:	90 01       	movw	r18, r0
    2f9c:	11 24       	eor	r1, r1
    2f9e:	80 81       	ld	r24, Z
    2fa0:	83 78       	andi	r24, 0x83	; 131
    2fa2:	28 2b       	or	r18, r24
    2fa4:	20 83       	st	Z, r18
    2fa6:	11 11       	cpse	r17, r1
    2fa8:	21 c0       	rjmp	.+66     	; 0x2fec <DW1000_setDataRate+0x6a>
    2faa:	21 e0       	ldi	r18, 0x01	; 1
    2fac:	46 e1       	ldi	r20, 0x16	; 22
    2fae:	50 e0       	ldi	r21, 0x00	; 0
    2fb0:	64 e0       	ldi	r22, 0x04	; 4
    2fb2:	70 e0       	ldi	r23, 0x00	; 0
    2fb4:	87 e8       	ldi	r24, 0x87	; 135
    2fb6:	95 e2       	ldi	r25, 0x25	; 37
    2fb8:	c6 dd       	rcall	.-1140   	; 0x2b46 <DW1000_setBit>
    2fba:	21 e0       	ldi	r18, 0x01	; 1
    2fbc:	41 e1       	ldi	r20, 0x11	; 17
    2fbe:	50 e0       	ldi	r21, 0x00	; 0
    2fc0:	64 e0       	ldi	r22, 0x04	; 4
    2fc2:	70 e0       	ldi	r23, 0x00	; 0
    2fc4:	8d e9       	ldi	r24, 0x9D	; 157
    2fc6:	95 e2       	ldi	r25, 0x25	; 37
    2fc8:	be dd       	rcall	.-1156   	; 0x2b46 <DW1000_setBit>
    2fca:	21 e0       	ldi	r18, 0x01	; 1
    2fcc:	44 e1       	ldi	r20, 0x14	; 20
    2fce:	50 e0       	ldi	r21, 0x00	; 0
    2fd0:	64 e0       	ldi	r22, 0x04	; 4
    2fd2:	70 e0       	ldi	r23, 0x00	; 0
    2fd4:	8d e9       	ldi	r24, 0x9D	; 157
    2fd6:	95 e2       	ldi	r25, 0x25	; 37
    2fd8:	b6 dd       	rcall	.-1172   	; 0x2b46 <DW1000_setBit>
    2fda:	21 e0       	ldi	r18, 0x01	; 1
    2fdc:	45 e1       	ldi	r20, 0x15	; 21
    2fde:	50 e0       	ldi	r21, 0x00	; 0
    2fe0:	64 e0       	ldi	r22, 0x04	; 4
    2fe2:	70 e0       	ldi	r23, 0x00	; 0
    2fe4:	8d e9       	ldi	r24, 0x9D	; 157
    2fe6:	95 e2       	ldi	r25, 0x25	; 37
    2fe8:	ae dd       	rcall	.-1188   	; 0x2b46 <DW1000_setBit>
    2fea:	42 c0       	rjmp	.+132    	; 0x3070 <__stack+0x71>
    2fec:	21 e0       	ldi	r18, 0x01	; 1
    2fee:	46 e1       	ldi	r20, 0x16	; 22
    2ff0:	50 e0       	ldi	r21, 0x00	; 0
    2ff2:	64 e0       	ldi	r22, 0x04	; 4
    2ff4:	70 e0       	ldi	r23, 0x00	; 0
    2ff6:	87 e8       	ldi	r24, 0x87	; 135
    2ff8:	95 e2       	ldi	r25, 0x25	; 37
    2ffa:	a5 dd       	rcall	.-1206   	; 0x2b46 <DW1000_setBit>
    2ffc:	12 30       	cpi	r17, 0x02	; 2
    2ffe:	d9 f4       	brne	.+54     	; 0x3036 <__stack+0x37>
    3000:	20 e0       	ldi	r18, 0x00	; 0
    3002:	41 e1       	ldi	r20, 0x11	; 17
    3004:	50 e0       	ldi	r21, 0x00	; 0
    3006:	64 e0       	ldi	r22, 0x04	; 4
    3008:	70 e0       	ldi	r23, 0x00	; 0
    300a:	8d e9       	ldi	r24, 0x9D	; 157
    300c:	95 e2       	ldi	r25, 0x25	; 37
    300e:	9b dd       	rcall	.-1226   	; 0x2b46 <DW1000_setBit>
    3010:	20 e0       	ldi	r18, 0x00	; 0
    3012:	44 e1       	ldi	r20, 0x14	; 20
    3014:	50 e0       	ldi	r21, 0x00	; 0
    3016:	64 e0       	ldi	r22, 0x04	; 4
    3018:	70 e0       	ldi	r23, 0x00	; 0
    301a:	8d e9       	ldi	r24, 0x9D	; 157
    301c:	95 e2       	ldi	r25, 0x25	; 37
    301e:	93 dd       	rcall	.-1242   	; 0x2b46 <DW1000_setBit>
    3020:	20 e0       	ldi	r18, 0x00	; 0
    3022:	45 e1       	ldi	r20, 0x15	; 21
    3024:	50 e0       	ldi	r21, 0x00	; 0
    3026:	64 e0       	ldi	r22, 0x04	; 4
    3028:	70 e0       	ldi	r23, 0x00	; 0
    302a:	8d e9       	ldi	r24, 0x9D	; 157
    302c:	95 e2       	ldi	r25, 0x25	; 37
    302e:	8b dd       	rcall	.-1258   	; 0x2b46 <DW1000_setBit>
    3030:	88 e0       	ldi	r24, 0x08	; 8
    3032:	89 83       	std	Y+1, r24	; 0x01
    3034:	1f c0       	rjmp	.+62     	; 0x3074 <__stack+0x75>
    3036:	21 e0       	ldi	r18, 0x01	; 1
    3038:	41 e1       	ldi	r20, 0x11	; 17
    303a:	50 e0       	ldi	r21, 0x00	; 0
    303c:	64 e0       	ldi	r22, 0x04	; 4
    303e:	70 e0       	ldi	r23, 0x00	; 0
    3040:	8d e9       	ldi	r24, 0x9D	; 157
    3042:	95 e2       	ldi	r25, 0x25	; 37
    3044:	80 dd       	rcall	.-1280   	; 0x2b46 <DW1000_setBit>
    3046:	21 e0       	ldi	r18, 0x01	; 1
    3048:	44 e1       	ldi	r20, 0x14	; 20
    304a:	50 e0       	ldi	r21, 0x00	; 0
    304c:	64 e0       	ldi	r22, 0x04	; 4
    304e:	70 e0       	ldi	r23, 0x00	; 0
    3050:	8d e9       	ldi	r24, 0x9D	; 157
    3052:	95 e2       	ldi	r25, 0x25	; 37
    3054:	78 dd       	rcall	.-1296   	; 0x2b46 <DW1000_setBit>
    3056:	21 e0       	ldi	r18, 0x01	; 1
    3058:	45 e1       	ldi	r20, 0x15	; 21
    305a:	50 e0       	ldi	r21, 0x00	; 0
    305c:	64 e0       	ldi	r22, 0x04	; 4
    305e:	70 e0       	ldi	r23, 0x00	; 0
    3060:	8d e9       	ldi	r24, 0x9D	; 157
    3062:	95 e2       	ldi	r25, 0x25	; 37
    3064:	70 dd       	rcall	.-1312   	; 0x2b46 <DW1000_setBit>
    3066:	11 30       	cpi	r17, 0x01	; 1
    3068:	19 f4       	brne	.+6      	; 0x3070 <__stack+0x71>
    306a:	80 e1       	ldi	r24, 0x10	; 16
    306c:	89 83       	std	Y+1, r24	; 0x01
    306e:	02 c0       	rjmp	.+4      	; 0x3074 <__stack+0x75>
    3070:	80 e4       	ldi	r24, 0x40	; 64
    3072:	89 83       	std	Y+1, r24	; 0x01
    3074:	21 e0       	ldi	r18, 0x01	; 1
    3076:	30 e0       	ldi	r19, 0x00	; 0
    3078:	ae 01       	movw	r20, r28
    307a:	4f 5f       	subi	r20, 0xFF	; 255
    307c:	5f 4f       	sbci	r21, 0xFF	; 255
    307e:	60 e0       	ldi	r22, 0x00	; 0
    3080:	70 e0       	ldi	r23, 0x00	; 0
    3082:	81 e2       	ldi	r24, 0x21	; 33
    3084:	db dd       	rcall	.-1098   	; 0x2c3c <DW1000_writeBytes>
    3086:	10 93 a7 25 	sts	0x25A7, r17
    308a:	0f 90       	pop	r0
    308c:	df 91       	pop	r29
    308e:	cf 91       	pop	r28
    3090:	1f 91       	pop	r17
    3092:	08 95       	ret

00003094 <DW1000_setPulseFrequency>:
    3094:	83 70       	andi	r24, 0x03	; 3
    3096:	e6 e9       	ldi	r30, 0x96	; 150
    3098:	f5 e2       	ldi	r31, 0x25	; 37
    309a:	90 81       	ld	r25, Z
    309c:	9c 7f       	andi	r25, 0xFC	; 252
    309e:	98 2b       	or	r25, r24
    30a0:	90 83       	st	Z, r25
    30a2:	ef e9       	ldi	r30, 0x9F	; 159
    30a4:	f5 e2       	ldi	r31, 0x25	; 37
    30a6:	28 2f       	mov	r18, r24
    30a8:	22 0f       	add	r18, r18
    30aa:	22 0f       	add	r18, r18
    30ac:	90 81       	ld	r25, Z
    30ae:	93 7f       	andi	r25, 0xF3	; 243
    30b0:	92 2b       	or	r25, r18
    30b2:	90 83       	st	Z, r25
    30b4:	80 93 a6 25 	sts	0x25A6, r24
    30b8:	08 95       	ret

000030ba <DW1000_setPreambleLength>:
    30ba:	98 2f       	mov	r25, r24
    30bc:	9f 70       	andi	r25, 0x0F	; 15
    30be:	e6 e9       	ldi	r30, 0x96	; 150
    30c0:	f5 e2       	ldi	r31, 0x25	; 37
    30c2:	39 2f       	mov	r19, r25
    30c4:	33 0f       	add	r19, r19
    30c6:	33 0f       	add	r19, r19
    30c8:	20 81       	ld	r18, Z
    30ca:	23 7c       	andi	r18, 0xC3	; 195
    30cc:	23 2b       	or	r18, r19
    30ce:	20 83       	st	Z, r18
    30d0:	8b 70       	andi	r24, 0x0B	; 11
    30d2:	81 30       	cpi	r24, 0x01	; 1
    30d4:	21 f4       	brne	.+8      	; 0x30de <DW1000_setPreambleLength+0x24>
    30d6:	88 e0       	ldi	r24, 0x08	; 8
    30d8:	80 93 a8 25 	sts	0x25A8, r24
    30dc:	0f c0       	rjmp	.+30     	; 0x30fc <DW1000_setPreambleLength+0x42>
    30de:	89 30       	cpi	r24, 0x09	; 9
    30e0:	21 f4       	brne	.+8      	; 0x30ea <DW1000_setPreambleLength+0x30>
    30e2:	80 e1       	ldi	r24, 0x10	; 16
    30e4:	80 93 a8 25 	sts	0x25A8, r24
    30e8:	09 c0       	rjmp	.+18     	; 0x30fc <DW1000_setPreambleLength+0x42>
    30ea:	92 30       	cpi	r25, 0x02	; 2
    30ec:	21 f4       	brne	.+8      	; 0x30f6 <DW1000_setPreambleLength+0x3c>
    30ee:	80 e2       	ldi	r24, 0x20	; 32
    30f0:	80 93 a8 25 	sts	0x25A8, r24
    30f4:	03 c0       	rjmp	.+6      	; 0x30fc <DW1000_setPreambleLength+0x42>
    30f6:	80 e4       	ldi	r24, 0x40	; 64
    30f8:	80 93 a8 25 	sts	0x25A8, r24
    30fc:	90 93 a5 25 	sts	0x25A5, r25
    3100:	08 95       	ret

00003102 <DW1000_setPreambleCode>:
    3102:	8f 71       	andi	r24, 0x1F	; 31
    3104:	28 2f       	mov	r18, r24
    3106:	30 e0       	ldi	r19, 0x00	; 0
    3108:	ef e9       	ldi	r30, 0x9F	; 159
    310a:	f5 e2       	ldi	r31, 0x25	; 37
    310c:	a9 01       	movw	r20, r18
    310e:	00 24       	eor	r0, r0
    3110:	56 95       	lsr	r21
    3112:	47 95       	ror	r20
    3114:	07 94       	ror	r0
    3116:	56 95       	lsr	r21
    3118:	47 95       	ror	r20
    311a:	07 94       	ror	r0
    311c:	54 2f       	mov	r21, r20
    311e:	40 2d       	mov	r20, r0
    3120:	90 81       	ld	r25, Z
    3122:	9f 73       	andi	r25, 0x3F	; 63
    3124:	49 2b       	or	r20, r25
    3126:	40 83       	st	Z, r20
    3128:	22 0f       	add	r18, r18
    312a:	33 1f       	adc	r19, r19
    312c:	22 0f       	add	r18, r18
    312e:	33 1f       	adc	r19, r19
    3130:	22 0f       	add	r18, r18
    3132:	33 1f       	adc	r19, r19
    3134:	98 2f       	mov	r25, r24
    3136:	96 95       	lsr	r25
    3138:	96 95       	lsr	r25
    313a:	29 2b       	or	r18, r25
    313c:	20 93 a0 25 	sts	0x25A0, r18
    3140:	80 93 a3 25 	sts	0x25A3, r24
    3144:	08 95       	ret

00003146 <DW1000_enableMode>:
    3146:	cf 93       	push	r28
    3148:	df 93       	push	r29
    314a:	ec 01       	movw	r28, r24
    314c:	88 81       	ld	r24, Y
    314e:	19 df       	rcall	.-462    	; 0x2f82 <DW1000_setDataRate>
    3150:	89 81       	ldd	r24, Y+1	; 0x01
    3152:	a0 df       	rcall	.-192    	; 0x3094 <DW1000_setPulseFrequency>
    3154:	8a 81       	ldd	r24, Y+2	; 0x02
    3156:	b1 df       	rcall	.-158    	; 0x30ba <DW1000_setPreambleLength>
    3158:	85 e5       	ldi	r24, 0x55	; 85
    315a:	80 93 9d 25 	sts	0x259D, r24
    315e:	85 e0       	ldi	r24, 0x05	; 5
    3160:	80 93 a4 25 	sts	0x25A4, r24
    3164:	89 81       	ldd	r24, Y+1	; 0x01
    3166:	81 30       	cpi	r24, 0x01	; 1
    3168:	19 f4       	brne	.+6      	; 0x3170 <DW1000_enableMode+0x2a>
    316a:	84 e0       	ldi	r24, 0x04	; 4
    316c:	ca df       	rcall	.-108    	; 0x3102 <DW1000_setPreambleCode>
    316e:	02 c0       	rjmp	.+4      	; 0x3174 <DW1000_enableMode+0x2e>
    3170:	8a e0       	ldi	r24, 0x0A	; 10
    3172:	c7 df       	rcall	.-114    	; 0x3102 <DW1000_setPreambleCode>
    3174:	df 91       	pop	r29
    3176:	cf 91       	pop	r28
    3178:	08 95       	ret

0000317a <DW1000_tune>:
    317a:	cf 93       	push	r28
    317c:	df 93       	push	r29
    317e:	cd b7       	in	r28, 0x3d	; 61
    3180:	de b7       	in	r29, 0x3e	; 62
    3182:	ad 97       	sbiw	r28, 0x2d	; 45
    3184:	cd bf       	out	0x3d, r28	; 61
    3186:	de bf       	out	0x3e, r29	; 62
    3188:	80 91 a6 25 	lds	r24, 0x25A6
    318c:	81 30       	cpi	r24, 0x01	; 1
    318e:	51 f4       	brne	.+20     	; 0x31a4 <DW1000_tune+0x2a>
    3190:	22 e0       	ldi	r18, 0x02	; 2
    3192:	30 e0       	ldi	r19, 0x00	; 0
    3194:	40 e7       	ldi	r20, 0x70	; 112
    3196:	58 e8       	ldi	r21, 0x88	; 136
    3198:	60 e0       	ldi	r22, 0x00	; 0
    319a:	70 e0       	ldi	r23, 0x00	; 0
    319c:	ce 01       	movw	r24, r28
    319e:	01 96       	adiw	r24, 0x01	; 1
    31a0:	af dd       	rcall	.-1186   	; 0x2d00 <DW1000_writeValueToBytes>
    31a2:	0b c0       	rjmp	.+22     	; 0x31ba <DW1000_tune+0x40>
    31a4:	82 30       	cpi	r24, 0x02	; 2
    31a6:	49 f4       	brne	.+18     	; 0x31ba <DW1000_tune+0x40>
    31a8:	22 e0       	ldi	r18, 0x02	; 2
    31aa:	30 e0       	ldi	r19, 0x00	; 0
    31ac:	4b e9       	ldi	r20, 0x9B	; 155
    31ae:	58 e8       	ldi	r21, 0x88	; 136
    31b0:	60 e0       	ldi	r22, 0x00	; 0
    31b2:	70 e0       	ldi	r23, 0x00	; 0
    31b4:	ce 01       	movw	r24, r28
    31b6:	01 96       	adiw	r24, 0x01	; 1
    31b8:	a3 dd       	rcall	.-1210   	; 0x2d00 <DW1000_writeValueToBytes>
    31ba:	24 e0       	ldi	r18, 0x04	; 4
    31bc:	30 e0       	ldi	r19, 0x00	; 0
    31be:	47 e0       	ldi	r20, 0x07	; 7
    31c0:	59 ea       	ldi	r21, 0xA9	; 169
    31c2:	62 e0       	ldi	r22, 0x02	; 2
    31c4:	75 e2       	ldi	r23, 0x25	; 37
    31c6:	ce 01       	movw	r24, r28
    31c8:	03 96       	adiw	r24, 0x03	; 3
    31ca:	9a dd       	rcall	.-1228   	; 0x2d00 <DW1000_writeValueToBytes>
    31cc:	22 e0       	ldi	r18, 0x02	; 2
    31ce:	30 e0       	ldi	r19, 0x00	; 0
    31d0:	45 e3       	ldi	r20, 0x35	; 53
    31d2:	50 e0       	ldi	r21, 0x00	; 0
    31d4:	60 e0       	ldi	r22, 0x00	; 0
    31d6:	70 e0       	ldi	r23, 0x00	; 0
    31d8:	ce 01       	movw	r24, r28
    31da:	07 96       	adiw	r24, 0x07	; 7
    31dc:	91 dd       	rcall	.-1246   	; 0x2d00 <DW1000_writeValueToBytes>
    31de:	80 91 a7 25 	lds	r24, 0x25A7
    31e2:	81 11       	cpse	r24, r1
    31e4:	0a c0       	rjmp	.+20     	; 0x31fa <DW1000_tune+0x80>
    31e6:	22 e0       	ldi	r18, 0x02	; 2
    31e8:	30 e0       	ldi	r19, 0x00	; 0
    31ea:	46 e1       	ldi	r20, 0x16	; 22
    31ec:	50 e0       	ldi	r21, 0x00	; 0
    31ee:	60 e0       	ldi	r22, 0x00	; 0
    31f0:	70 e0       	ldi	r23, 0x00	; 0
    31f2:	ce 01       	movw	r24, r28
    31f4:	09 96       	adiw	r24, 0x09	; 9
    31f6:	84 dd       	rcall	.-1272   	; 0x2d00 <DW1000_writeValueToBytes>
    31f8:	17 c0       	rjmp	.+46     	; 0x3228 <DW1000_tune+0xae>
    31fa:	81 30       	cpi	r24, 0x01	; 1
    31fc:	51 f4       	brne	.+20     	; 0x3212 <DW1000_tune+0x98>
    31fe:	22 e0       	ldi	r18, 0x02	; 2
    3200:	30 e0       	ldi	r19, 0x00	; 0
    3202:	46 e0       	ldi	r20, 0x06	; 6
    3204:	50 e0       	ldi	r21, 0x00	; 0
    3206:	60 e0       	ldi	r22, 0x00	; 0
    3208:	70 e0       	ldi	r23, 0x00	; 0
    320a:	ce 01       	movw	r24, r28
    320c:	09 96       	adiw	r24, 0x09	; 9
    320e:	78 dd       	rcall	.-1296   	; 0x2d00 <DW1000_writeValueToBytes>
    3210:	0b c0       	rjmp	.+22     	; 0x3228 <DW1000_tune+0xae>
    3212:	82 30       	cpi	r24, 0x02	; 2
    3214:	49 f4       	brne	.+18     	; 0x3228 <DW1000_tune+0xae>
    3216:	22 e0       	ldi	r18, 0x02	; 2
    3218:	30 e0       	ldi	r19, 0x00	; 0
    321a:	41 e0       	ldi	r20, 0x01	; 1
    321c:	50 e0       	ldi	r21, 0x00	; 0
    321e:	60 e0       	ldi	r22, 0x00	; 0
    3220:	70 e0       	ldi	r23, 0x00	; 0
    3222:	ce 01       	movw	r24, r28
    3224:	09 96       	adiw	r24, 0x09	; 9
    3226:	6c dd       	rcall	.-1320   	; 0x2d00 <DW1000_writeValueToBytes>
    3228:	80 91 a6 25 	lds	r24, 0x25A6
    322c:	81 30       	cpi	r24, 0x01	; 1
    322e:	51 f4       	brne	.+20     	; 0x3244 <DW1000_tune+0xca>
    3230:	22 e0       	ldi	r18, 0x02	; 2
    3232:	30 e0       	ldi	r19, 0x00	; 0
    3234:	47 e8       	ldi	r20, 0x87	; 135
    3236:	50 e0       	ldi	r21, 0x00	; 0
    3238:	60 e0       	ldi	r22, 0x00	; 0
    323a:	70 e0       	ldi	r23, 0x00	; 0
    323c:	ce 01       	movw	r24, r28
    323e:	0b 96       	adiw	r24, 0x0b	; 11
    3240:	5f dd       	rcall	.-1346   	; 0x2d00 <DW1000_writeValueToBytes>
    3242:	0b c0       	rjmp	.+22     	; 0x325a <DW1000_tune+0xe0>
    3244:	82 30       	cpi	r24, 0x02	; 2
    3246:	49 f4       	brne	.+18     	; 0x325a <DW1000_tune+0xe0>
    3248:	22 e0       	ldi	r18, 0x02	; 2
    324a:	30 e0       	ldi	r19, 0x00	; 0
    324c:	4d e8       	ldi	r20, 0x8D	; 141
    324e:	50 e0       	ldi	r21, 0x00	; 0
    3250:	60 e0       	ldi	r22, 0x00	; 0
    3252:	70 e0       	ldi	r23, 0x00	; 0
    3254:	ce 01       	movw	r24, r28
    3256:	0b 96       	adiw	r24, 0x0b	; 11
    3258:	53 dd       	rcall	.-1370   	; 0x2d00 <DW1000_writeValueToBytes>
    325a:	80 91 a5 25 	lds	r24, 0x25A5
    325e:	86 30       	cpi	r24, 0x06	; 6
    3260:	21 f0       	breq	.+8      	; 0x326a <DW1000_tune+0xf0>
    3262:	8a 30       	cpi	r24, 0x0A	; 10
    3264:	11 f0       	breq	.+4      	; 0x326a <DW1000_tune+0xf0>
    3266:	83 30       	cpi	r24, 0x03	; 3
    3268:	71 f4       	brne	.+28     	; 0x3286 <DW1000_tune+0x10c>
    326a:	80 91 a7 25 	lds	r24, 0x25A7
    326e:	81 11       	cpse	r24, r1
    3270:	28 c0       	rjmp	.+80     	; 0x32c2 <DW1000_tune+0x148>
    3272:	22 e0       	ldi	r18, 0x02	; 2
    3274:	30 e0       	ldi	r19, 0x00	; 0
    3276:	44 e6       	ldi	r20, 0x64	; 100
    3278:	50 e0       	ldi	r21, 0x00	; 0
    327a:	60 e0       	ldi	r22, 0x00	; 0
    327c:	70 e0       	ldi	r23, 0x00	; 0
    327e:	ce 01       	movw	r24, r28
    3280:	0d 96       	adiw	r24, 0x0d	; 13
    3282:	3e dd       	rcall	.-1412   	; 0x2d00 <DW1000_writeValueToBytes>
    3284:	1e c0       	rjmp	.+60     	; 0x32c2 <DW1000_tune+0x148>
    3286:	81 30       	cpi	r24, 0x01	; 1
    3288:	79 f0       	breq	.+30     	; 0x32a8 <DW1000_tune+0x12e>
    328a:	80 91 a7 25 	lds	r24, 0x25A7
    328e:	81 50       	subi	r24, 0x01	; 1
    3290:	82 30       	cpi	r24, 0x02	; 2
    3292:	b8 f4       	brcc	.+46     	; 0x32c2 <DW1000_tune+0x148>
    3294:	22 e0       	ldi	r18, 0x02	; 2
    3296:	30 e0       	ldi	r19, 0x00	; 0
    3298:	40 e2       	ldi	r20, 0x20	; 32
    329a:	50 e0       	ldi	r21, 0x00	; 0
    329c:	60 e0       	ldi	r22, 0x00	; 0
    329e:	70 e0       	ldi	r23, 0x00	; 0
    32a0:	ce 01       	movw	r24, r28
    32a2:	0d 96       	adiw	r24, 0x0d	; 13
    32a4:	2d dd       	rcall	.-1446   	; 0x2d00 <DW1000_writeValueToBytes>
    32a6:	0d c0       	rjmp	.+26     	; 0x32c2 <DW1000_tune+0x148>
    32a8:	80 91 a7 25 	lds	r24, 0x25A7
    32ac:	82 30       	cpi	r24, 0x02	; 2
    32ae:	49 f4       	brne	.+18     	; 0x32c2 <DW1000_tune+0x148>
    32b0:	22 e0       	ldi	r18, 0x02	; 2
    32b2:	30 e0       	ldi	r19, 0x00	; 0
    32b4:	40 e1       	ldi	r20, 0x10	; 16
    32b6:	50 e0       	ldi	r21, 0x00	; 0
    32b8:	60 e0       	ldi	r22, 0x00	; 0
    32ba:	70 e0       	ldi	r23, 0x00	; 0
    32bc:	ce 01       	movw	r24, r28
    32be:	0d 96       	adiw	r24, 0x0d	; 13
    32c0:	1f dd       	rcall	.-1474   	; 0x2d00 <DW1000_writeValueToBytes>
    32c2:	80 91 a8 25 	lds	r24, 0x25A8
    32c6:	88 30       	cpi	r24, 0x08	; 8
    32c8:	d9 f4       	brne	.+54     	; 0x3300 <DW1000_tune+0x186>
    32ca:	80 91 a6 25 	lds	r24, 0x25A6
    32ce:	81 30       	cpi	r24, 0x01	; 1
    32d0:	51 f4       	brne	.+20     	; 0x32e6 <DW1000_tune+0x16c>
    32d2:	24 e0       	ldi	r18, 0x04	; 4
    32d4:	30 e0       	ldi	r19, 0x00	; 0
    32d6:	4d e2       	ldi	r20, 0x2D	; 45
    32d8:	50 e0       	ldi	r21, 0x00	; 0
    32da:	6a e1       	ldi	r22, 0x1A	; 26
    32dc:	71 e3       	ldi	r23, 0x31	; 49
    32de:	ce 01       	movw	r24, r28
    32e0:	0f 96       	adiw	r24, 0x0f	; 15
    32e2:	0e dd       	rcall	.-1508   	; 0x2d00 <DW1000_writeValueToBytes>
    32e4:	61 c0       	rjmp	.+194    	; 0x33a8 <DW1000_tune+0x22e>
    32e6:	82 30       	cpi	r24, 0x02	; 2
    32e8:	09 f0       	breq	.+2      	; 0x32ec <DW1000_tune+0x172>
    32ea:	5e c0       	rjmp	.+188    	; 0x33a8 <DW1000_tune+0x22e>
    32ec:	24 e0       	ldi	r18, 0x04	; 4
    32ee:	30 e0       	ldi	r19, 0x00	; 0
    32f0:	4b e6       	ldi	r20, 0x6B	; 107
    32f2:	50 e0       	ldi	r21, 0x00	; 0
    32f4:	6b e3       	ldi	r22, 0x3B	; 59
    32f6:	71 e3       	ldi	r23, 0x31	; 49
    32f8:	ce 01       	movw	r24, r28
    32fa:	0f 96       	adiw	r24, 0x0f	; 15
    32fc:	01 dd       	rcall	.-1534   	; 0x2d00 <DW1000_writeValueToBytes>
    32fe:	54 c0       	rjmp	.+168    	; 0x33a8 <DW1000_tune+0x22e>
    3300:	80 31       	cpi	r24, 0x10	; 16
    3302:	d9 f4       	brne	.+54     	; 0x333a <DW1000_tune+0x1c0>
    3304:	80 91 a6 25 	lds	r24, 0x25A6
    3308:	81 30       	cpi	r24, 0x01	; 1
    330a:	51 f4       	brne	.+20     	; 0x3320 <DW1000_tune+0x1a6>
    330c:	24 e0       	ldi	r18, 0x04	; 4
    330e:	30 e0       	ldi	r19, 0x00	; 0
    3310:	42 e5       	ldi	r20, 0x52	; 82
    3312:	50 e0       	ldi	r21, 0x00	; 0
    3314:	6a e1       	ldi	r22, 0x1A	; 26
    3316:	73 e3       	ldi	r23, 0x33	; 51
    3318:	ce 01       	movw	r24, r28
    331a:	0f 96       	adiw	r24, 0x0f	; 15
    331c:	f1 dc       	rcall	.-1566   	; 0x2d00 <DW1000_writeValueToBytes>
    331e:	44 c0       	rjmp	.+136    	; 0x33a8 <DW1000_tune+0x22e>
    3320:	82 30       	cpi	r24, 0x02	; 2
    3322:	09 f0       	breq	.+2      	; 0x3326 <DW1000_tune+0x1ac>
    3324:	41 c0       	rjmp	.+130    	; 0x33a8 <DW1000_tune+0x22e>
    3326:	24 e0       	ldi	r18, 0x04	; 4
    3328:	30 e0       	ldi	r19, 0x00	; 0
    332a:	4e eb       	ldi	r20, 0xBE	; 190
    332c:	50 e0       	ldi	r21, 0x00	; 0
    332e:	6b e3       	ldi	r22, 0x3B	; 59
    3330:	73 e3       	ldi	r23, 0x33	; 51
    3332:	ce 01       	movw	r24, r28
    3334:	0f 96       	adiw	r24, 0x0f	; 15
    3336:	e4 dc       	rcall	.-1592   	; 0x2d00 <DW1000_writeValueToBytes>
    3338:	37 c0       	rjmp	.+110    	; 0x33a8 <DW1000_tune+0x22e>
    333a:	80 32       	cpi	r24, 0x20	; 32
    333c:	d1 f4       	brne	.+52     	; 0x3372 <DW1000_tune+0x1f8>
    333e:	80 91 a6 25 	lds	r24, 0x25A6
    3342:	81 30       	cpi	r24, 0x01	; 1
    3344:	51 f4       	brne	.+20     	; 0x335a <DW1000_tune+0x1e0>
    3346:	24 e0       	ldi	r18, 0x04	; 4
    3348:	30 e0       	ldi	r19, 0x00	; 0
    334a:	4a e9       	ldi	r20, 0x9A	; 154
    334c:	50 e0       	ldi	r21, 0x00	; 0
    334e:	6a e1       	ldi	r22, 0x1A	; 26
    3350:	75 e3       	ldi	r23, 0x35	; 53
    3352:	ce 01       	movw	r24, r28
    3354:	0f 96       	adiw	r24, 0x0f	; 15
    3356:	d4 dc       	rcall	.-1624   	; 0x2d00 <DW1000_writeValueToBytes>
    3358:	27 c0       	rjmp	.+78     	; 0x33a8 <DW1000_tune+0x22e>
    335a:	82 30       	cpi	r24, 0x02	; 2
    335c:	29 f5       	brne	.+74     	; 0x33a8 <DW1000_tune+0x22e>
    335e:	24 e0       	ldi	r18, 0x04	; 4
    3360:	30 e0       	ldi	r19, 0x00	; 0
    3362:	4e e5       	ldi	r20, 0x5E	; 94
    3364:	51 e0       	ldi	r21, 0x01	; 1
    3366:	6b e3       	ldi	r22, 0x3B	; 59
    3368:	75 e3       	ldi	r23, 0x35	; 53
    336a:	ce 01       	movw	r24, r28
    336c:	0f 96       	adiw	r24, 0x0f	; 15
    336e:	c8 dc       	rcall	.-1648   	; 0x2d00 <DW1000_writeValueToBytes>
    3370:	1b c0       	rjmp	.+54     	; 0x33a8 <DW1000_tune+0x22e>
    3372:	80 34       	cpi	r24, 0x40	; 64
    3374:	c9 f4       	brne	.+50     	; 0x33a8 <DW1000_tune+0x22e>
    3376:	80 91 a6 25 	lds	r24, 0x25A6
    337a:	81 30       	cpi	r24, 0x01	; 1
    337c:	51 f4       	brne	.+20     	; 0x3392 <DW1000_tune+0x218>
    337e:	24 e0       	ldi	r18, 0x04	; 4
    3380:	30 e0       	ldi	r19, 0x00	; 0
    3382:	4d e1       	ldi	r20, 0x1D	; 29
    3384:	51 e0       	ldi	r21, 0x01	; 1
    3386:	6a e1       	ldi	r22, 0x1A	; 26
    3388:	77 e3       	ldi	r23, 0x37	; 55
    338a:	ce 01       	movw	r24, r28
    338c:	0f 96       	adiw	r24, 0x0f	; 15
    338e:	b8 dc       	rcall	.-1680   	; 0x2d00 <DW1000_writeValueToBytes>
    3390:	0b c0       	rjmp	.+22     	; 0x33a8 <DW1000_tune+0x22e>
    3392:	82 30       	cpi	r24, 0x02	; 2
    3394:	49 f4       	brne	.+18     	; 0x33a8 <DW1000_tune+0x22e>
    3396:	24 e0       	ldi	r18, 0x04	; 4
    3398:	30 e0       	ldi	r19, 0x00	; 0
    339a:	46 e9       	ldi	r20, 0x96	; 150
    339c:	52 e0       	ldi	r21, 0x02	; 2
    339e:	6b e3       	ldi	r22, 0x3B	; 59
    33a0:	77 e3       	ldi	r23, 0x37	; 55
    33a2:	ce 01       	movw	r24, r28
    33a4:	0f 96       	adiw	r24, 0x0f	; 15
    33a6:	ac dc       	rcall	.-1704   	; 0x2d00 <DW1000_writeValueToBytes>
    33a8:	80 91 a5 25 	lds	r24, 0x25A5
    33ac:	81 30       	cpi	r24, 0x01	; 1
    33ae:	51 f4       	brne	.+20     	; 0x33c4 <DW1000_tune+0x24a>
    33b0:	22 e0       	ldi	r18, 0x02	; 2
    33b2:	30 e0       	ldi	r19, 0x00	; 0
    33b4:	40 e1       	ldi	r20, 0x10	; 16
    33b6:	50 e0       	ldi	r21, 0x00	; 0
    33b8:	60 e0       	ldi	r22, 0x00	; 0
    33ba:	70 e0       	ldi	r23, 0x00	; 0
    33bc:	ce 01       	movw	r24, r28
    33be:	43 96       	adiw	r24, 0x13	; 19
    33c0:	9f dc       	rcall	.-1730   	; 0x2d00 <DW1000_writeValueToBytes>
    33c2:	09 c0       	rjmp	.+18     	; 0x33d6 <DW1000_tune+0x25c>
    33c4:	22 e0       	ldi	r18, 0x02	; 2
    33c6:	30 e0       	ldi	r19, 0x00	; 0
    33c8:	48 e2       	ldi	r20, 0x28	; 40
    33ca:	50 e0       	ldi	r21, 0x00	; 0
    33cc:	60 e0       	ldi	r22, 0x00	; 0
    33ce:	70 e0       	ldi	r23, 0x00	; 0
    33d0:	ce 01       	movw	r24, r28
    33d2:	43 96       	adiw	r24, 0x13	; 19
    33d4:	95 dc       	rcall	.-1750   	; 0x2d00 <DW1000_writeValueToBytes>
    33d6:	80 91 a4 25 	lds	r24, 0x25A4
    33da:	84 30       	cpi	r24, 0x04	; 4
    33dc:	61 f0       	breq	.+24     	; 0x33f6 <DW1000_tune+0x27c>
    33de:	87 30       	cpi	r24, 0x07	; 7
    33e0:	51 f0       	breq	.+20     	; 0x33f6 <DW1000_tune+0x27c>
    33e2:	21 e0       	ldi	r18, 0x01	; 1
    33e4:	30 e0       	ldi	r19, 0x00	; 0
    33e6:	48 ed       	ldi	r20, 0xD8	; 216
    33e8:	50 e0       	ldi	r21, 0x00	; 0
    33ea:	60 e0       	ldi	r22, 0x00	; 0
    33ec:	70 e0       	ldi	r23, 0x00	; 0
    33ee:	ce 01       	movw	r24, r28
    33f0:	4e 96       	adiw	r24, 0x1e	; 30
    33f2:	86 dc       	rcall	.-1780   	; 0x2d00 <DW1000_writeValueToBytes>
    33f4:	09 c0       	rjmp	.+18     	; 0x3408 <DW1000_tune+0x28e>
    33f6:	21 e0       	ldi	r18, 0x01	; 1
    33f8:	30 e0       	ldi	r19, 0x00	; 0
    33fa:	4c eb       	ldi	r20, 0xBC	; 188
    33fc:	50 e0       	ldi	r21, 0x00	; 0
    33fe:	60 e0       	ldi	r22, 0x00	; 0
    3400:	70 e0       	ldi	r23, 0x00	; 0
    3402:	ce 01       	movw	r24, r28
    3404:	4e 96       	adiw	r24, 0x1e	; 30
    3406:	7c dc       	rcall	.-1800   	; 0x2d00 <DW1000_writeValueToBytes>
    3408:	80 91 a4 25 	lds	r24, 0x25A4
    340c:	81 30       	cpi	r24, 0x01	; 1
    340e:	51 f4       	brne	.+20     	; 0x3424 <DW1000_tune+0x2aa>
    3410:	24 e0       	ldi	r18, 0x04	; 4
    3412:	30 e0       	ldi	r19, 0x00	; 0
    3414:	40 e4       	ldi	r20, 0x40	; 64
    3416:	5c e5       	ldi	r21, 0x5C	; 92
    3418:	60 e0       	ldi	r22, 0x00	; 0
    341a:	70 e0       	ldi	r23, 0x00	; 0
    341c:	ce 01       	movw	r24, r28
    341e:	4f 96       	adiw	r24, 0x1f	; 31
    3420:	6f dc       	rcall	.-1826   	; 0x2d00 <DW1000_writeValueToBytes>
    3422:	3c c0       	rjmp	.+120    	; 0x349c <DW1000_tune+0x322>
    3424:	82 30       	cpi	r24, 0x02	; 2
    3426:	51 f4       	brne	.+20     	; 0x343c <DW1000_tune+0x2c2>
    3428:	24 e0       	ldi	r18, 0x04	; 4
    342a:	30 e0       	ldi	r19, 0x00	; 0
    342c:	40 ea       	ldi	r20, 0xA0	; 160
    342e:	5c e5       	ldi	r21, 0x5C	; 92
    3430:	64 e0       	ldi	r22, 0x04	; 4
    3432:	70 e0       	ldi	r23, 0x00	; 0
    3434:	ce 01       	movw	r24, r28
    3436:	4f 96       	adiw	r24, 0x1f	; 31
    3438:	63 dc       	rcall	.-1850   	; 0x2d00 <DW1000_writeValueToBytes>
    343a:	30 c0       	rjmp	.+96     	; 0x349c <DW1000_tune+0x322>
    343c:	83 30       	cpi	r24, 0x03	; 3
    343e:	51 f4       	brne	.+20     	; 0x3454 <DW1000_tune+0x2da>
    3440:	24 e0       	ldi	r18, 0x04	; 4
    3442:	30 e0       	ldi	r19, 0x00	; 0
    3444:	40 ec       	ldi	r20, 0xC0	; 192
    3446:	5c e6       	ldi	r21, 0x6C	; 108
    3448:	68 e0       	ldi	r22, 0x08	; 8
    344a:	70 e0       	ldi	r23, 0x00	; 0
    344c:	ce 01       	movw	r24, r28
    344e:	4f 96       	adiw	r24, 0x1f	; 31
    3450:	57 dc       	rcall	.-1874   	; 0x2d00 <DW1000_writeValueToBytes>
    3452:	24 c0       	rjmp	.+72     	; 0x349c <DW1000_tune+0x322>
    3454:	84 30       	cpi	r24, 0x04	; 4
    3456:	51 f4       	brne	.+20     	; 0x346c <DW1000_tune+0x2f2>
    3458:	24 e0       	ldi	r18, 0x04	; 4
    345a:	30 e0       	ldi	r19, 0x00	; 0
    345c:	40 e8       	ldi	r20, 0x80	; 128
    345e:	5c e5       	ldi	r21, 0x5C	; 92
    3460:	64 e0       	ldi	r22, 0x04	; 4
    3462:	70 e0       	ldi	r23, 0x00	; 0
    3464:	ce 01       	movw	r24, r28
    3466:	4f 96       	adiw	r24, 0x1f	; 31
    3468:	4b dc       	rcall	.-1898   	; 0x2d00 <DW1000_writeValueToBytes>
    346a:	18 c0       	rjmp	.+48     	; 0x349c <DW1000_tune+0x322>
    346c:	85 30       	cpi	r24, 0x05	; 5
    346e:	51 f4       	brne	.+20     	; 0x3484 <DW1000_tune+0x30a>
    3470:	24 e0       	ldi	r18, 0x04	; 4
    3472:	30 e0       	ldi	r19, 0x00	; 0
    3474:	40 ee       	ldi	r20, 0xE0	; 224
    3476:	5f e3       	ldi	r21, 0x3F	; 63
    3478:	6e e1       	ldi	r22, 0x1E	; 30
    347a:	70 e0       	ldi	r23, 0x00	; 0
    347c:	ce 01       	movw	r24, r28
    347e:	4f 96       	adiw	r24, 0x1f	; 31
    3480:	3f dc       	rcall	.-1922   	; 0x2d00 <DW1000_writeValueToBytes>
    3482:	0c c0       	rjmp	.+24     	; 0x349c <DW1000_tune+0x322>
    3484:	87 30       	cpi	r24, 0x07	; 7
    3486:	09 f0       	breq	.+2      	; 0x348a <DW1000_tune+0x310>
    3488:	ab c0       	rjmp	.+342    	; 0x35e0 <DW1000_tune+0x466>
    348a:	24 e0       	ldi	r18, 0x04	; 4
    348c:	30 e0       	ldi	r19, 0x00	; 0
    348e:	40 ee       	ldi	r20, 0xE0	; 224
    3490:	5d e7       	ldi	r21, 0x7D	; 125
    3492:	6e e1       	ldi	r22, 0x1E	; 30
    3494:	70 e0       	ldi	r23, 0x00	; 0
    3496:	ce 01       	movw	r24, r28
    3498:	4f 96       	adiw	r24, 0x1f	; 31
    349a:	32 dc       	rcall	.-1948   	; 0x2d00 <DW1000_writeValueToBytes>
    349c:	80 91 a4 25 	lds	r24, 0x25A4
    34a0:	81 30       	cpi	r24, 0x01	; 1
    34a2:	51 f4       	brne	.+20     	; 0x34b8 <DW1000_tune+0x33e>
    34a4:	21 e0       	ldi	r18, 0x01	; 1
    34a6:	30 e0       	ldi	r19, 0x00	; 0
    34a8:	49 ec       	ldi	r20, 0xC9	; 201
    34aa:	50 e0       	ldi	r21, 0x00	; 0
    34ac:	60 e0       	ldi	r22, 0x00	; 0
    34ae:	70 e0       	ldi	r23, 0x00	; 0
    34b0:	ce 01       	movw	r24, r28
    34b2:	83 96       	adiw	r24, 0x23	; 35
    34b4:	25 dc       	rcall	.-1974   	; 0x2d00 <DW1000_writeValueToBytes>
    34b6:	3c c0       	rjmp	.+120    	; 0x3530 <DW1000_tune+0x3b6>
    34b8:	82 30       	cpi	r24, 0x02	; 2
    34ba:	51 f4       	brne	.+20     	; 0x34d0 <DW1000_tune+0x356>
    34bc:	21 e0       	ldi	r18, 0x01	; 1
    34be:	30 e0       	ldi	r19, 0x00	; 0
    34c0:	42 ec       	ldi	r20, 0xC2	; 194
    34c2:	50 e0       	ldi	r21, 0x00	; 0
    34c4:	60 e0       	ldi	r22, 0x00	; 0
    34c6:	70 e0       	ldi	r23, 0x00	; 0
    34c8:	ce 01       	movw	r24, r28
    34ca:	83 96       	adiw	r24, 0x23	; 35
    34cc:	19 dc       	rcall	.-1998   	; 0x2d00 <DW1000_writeValueToBytes>
    34ce:	30 c0       	rjmp	.+96     	; 0x3530 <DW1000_tune+0x3b6>
    34d0:	83 30       	cpi	r24, 0x03	; 3
    34d2:	51 f4       	brne	.+20     	; 0x34e8 <DW1000_tune+0x36e>
    34d4:	21 e0       	ldi	r18, 0x01	; 1
    34d6:	30 e0       	ldi	r19, 0x00	; 0
    34d8:	45 ec       	ldi	r20, 0xC5	; 197
    34da:	50 e0       	ldi	r21, 0x00	; 0
    34dc:	60 e0       	ldi	r22, 0x00	; 0
    34de:	70 e0       	ldi	r23, 0x00	; 0
    34e0:	ce 01       	movw	r24, r28
    34e2:	83 96       	adiw	r24, 0x23	; 35
    34e4:	0d dc       	rcall	.-2022   	; 0x2d00 <DW1000_writeValueToBytes>
    34e6:	24 c0       	rjmp	.+72     	; 0x3530 <DW1000_tune+0x3b6>
    34e8:	84 30       	cpi	r24, 0x04	; 4
    34ea:	51 f4       	brne	.+20     	; 0x3500 <DW1000_tune+0x386>
    34ec:	21 e0       	ldi	r18, 0x01	; 1
    34ee:	30 e0       	ldi	r19, 0x00	; 0
    34f0:	45 e9       	ldi	r20, 0x95	; 149
    34f2:	50 e0       	ldi	r21, 0x00	; 0
    34f4:	60 e0       	ldi	r22, 0x00	; 0
    34f6:	70 e0       	ldi	r23, 0x00	; 0
    34f8:	ce 01       	movw	r24, r28
    34fa:	83 96       	adiw	r24, 0x23	; 35
    34fc:	01 dc       	rcall	.-2046   	; 0x2d00 <DW1000_writeValueToBytes>
    34fe:	18 c0       	rjmp	.+48     	; 0x3530 <DW1000_tune+0x3b6>
    3500:	85 30       	cpi	r24, 0x05	; 5
    3502:	51 f4       	brne	.+20     	; 0x3518 <DW1000_tune+0x39e>
    3504:	21 e0       	ldi	r18, 0x01	; 1
    3506:	30 e0       	ldi	r19, 0x00	; 0
    3508:	40 ec       	ldi	r20, 0xC0	; 192
    350a:	50 e0       	ldi	r21, 0x00	; 0
    350c:	60 e0       	ldi	r22, 0x00	; 0
    350e:	70 e0       	ldi	r23, 0x00	; 0
    3510:	ce 01       	movw	r24, r28
    3512:	83 96       	adiw	r24, 0x23	; 35
    3514:	f5 db       	rcall	.-2070   	; 0x2d00 <DW1000_writeValueToBytes>
    3516:	0c c0       	rjmp	.+24     	; 0x3530 <DW1000_tune+0x3b6>
    3518:	87 30       	cpi	r24, 0x07	; 7
    351a:	09 f0       	breq	.+2      	; 0x351e <DW1000_tune+0x3a4>
    351c:	61 c0       	rjmp	.+194    	; 0x35e0 <DW1000_tune+0x466>
    351e:	21 e0       	ldi	r18, 0x01	; 1
    3520:	30 e0       	ldi	r19, 0x00	; 0
    3522:	43 e9       	ldi	r20, 0x93	; 147
    3524:	50 e0       	ldi	r21, 0x00	; 0
    3526:	60 e0       	ldi	r22, 0x00	; 0
    3528:	70 e0       	ldi	r23, 0x00	; 0
    352a:	ce 01       	movw	r24, r28
    352c:	83 96       	adiw	r24, 0x23	; 35
    352e:	e8 db       	rcall	.-2096   	; 0x2d00 <DW1000_writeValueToBytes>
    3530:	80 91 a4 25 	lds	r24, 0x25A4
    3534:	81 30       	cpi	r24, 0x01	; 1
    3536:	99 f4       	brne	.+38     	; 0x355e <DW1000_tune+0x3e4>
    3538:	24 e0       	ldi	r18, 0x04	; 4
    353a:	30 e0       	ldi	r19, 0x00	; 0
    353c:	47 e0       	ldi	r20, 0x07	; 7
    353e:	54 e0       	ldi	r21, 0x04	; 4
    3540:	60 e0       	ldi	r22, 0x00	; 0
    3542:	79 e0       	ldi	r23, 0x09	; 9
    3544:	ce 01       	movw	r24, r28
    3546:	84 96       	adiw	r24, 0x24	; 36
    3548:	db db       	rcall	.-2122   	; 0x2d00 <DW1000_writeValueToBytes>
    354a:	21 e0       	ldi	r18, 0x01	; 1
    354c:	30 e0       	ldi	r19, 0x00	; 0
    354e:	4e e1       	ldi	r20, 0x1E	; 30
    3550:	50 e0       	ldi	r21, 0x00	; 0
    3552:	60 e0       	ldi	r22, 0x00	; 0
    3554:	70 e0       	ldi	r23, 0x00	; 0
    3556:	ce 01       	movw	r24, r28
    3558:	88 96       	adiw	r24, 0x28	; 40
    355a:	d2 db       	rcall	.-2140   	; 0x2d00 <DW1000_writeValueToBytes>
    355c:	41 c0       	rjmp	.+130    	; 0x35e0 <DW1000_tune+0x466>
    355e:	82 30       	cpi	r24, 0x02	; 2
    3560:	11 f0       	breq	.+4      	; 0x3566 <DW1000_tune+0x3ec>
    3562:	84 30       	cpi	r24, 0x04	; 4
    3564:	99 f4       	brne	.+38     	; 0x358c <DW1000_tune+0x412>
    3566:	24 e0       	ldi	r18, 0x04	; 4
    3568:	30 e0       	ldi	r19, 0x00	; 0
    356a:	48 e0       	ldi	r20, 0x08	; 8
    356c:	55 e0       	ldi	r21, 0x05	; 5
    356e:	60 e4       	ldi	r22, 0x40	; 64
    3570:	78 e0       	ldi	r23, 0x08	; 8
    3572:	ce 01       	movw	r24, r28
    3574:	84 96       	adiw	r24, 0x24	; 36
    3576:	c4 db       	rcall	.-2168   	; 0x2d00 <DW1000_writeValueToBytes>
    3578:	21 e0       	ldi	r18, 0x01	; 1
    357a:	30 e0       	ldi	r19, 0x00	; 0
    357c:	46 e2       	ldi	r20, 0x26	; 38
    357e:	50 e0       	ldi	r21, 0x00	; 0
    3580:	60 e0       	ldi	r22, 0x00	; 0
    3582:	70 e0       	ldi	r23, 0x00	; 0
    3584:	ce 01       	movw	r24, r28
    3586:	88 96       	adiw	r24, 0x28	; 40
    3588:	bb db       	rcall	.-2186   	; 0x2d00 <DW1000_writeValueToBytes>
    358a:	2a c0       	rjmp	.+84     	; 0x35e0 <DW1000_tune+0x466>
    358c:	83 30       	cpi	r24, 0x03	; 3
    358e:	99 f4       	brne	.+38     	; 0x35b6 <DW1000_tune+0x43c>
    3590:	24 e0       	ldi	r18, 0x04	; 4
    3592:	30 e0       	ldi	r19, 0x00	; 0
    3594:	49 e0       	ldi	r20, 0x09	; 9
    3596:	50 e1       	ldi	r21, 0x10	; 16
    3598:	60 e4       	ldi	r22, 0x40	; 64
    359a:	78 e0       	ldi	r23, 0x08	; 8
    359c:	ce 01       	movw	r24, r28
    359e:	84 96       	adiw	r24, 0x24	; 36
    35a0:	af db       	rcall	.-2210   	; 0x2d00 <DW1000_writeValueToBytes>
    35a2:	21 e0       	ldi	r18, 0x01	; 1
    35a4:	30 e0       	ldi	r19, 0x00	; 0
    35a6:	4e e5       	ldi	r20, 0x5E	; 94
    35a8:	50 e0       	ldi	r21, 0x00	; 0
    35aa:	60 e0       	ldi	r22, 0x00	; 0
    35ac:	70 e0       	ldi	r23, 0x00	; 0
    35ae:	ce 01       	movw	r24, r28
    35b0:	88 96       	adiw	r24, 0x28	; 40
    35b2:	a6 db       	rcall	.-2228   	; 0x2d00 <DW1000_writeValueToBytes>
    35b4:	15 c0       	rjmp	.+42     	; 0x35e0 <DW1000_tune+0x466>
    35b6:	8d 7f       	andi	r24, 0xFD	; 253
    35b8:	85 30       	cpi	r24, 0x05	; 5
    35ba:	91 f4       	brne	.+36     	; 0x35e0 <DW1000_tune+0x466>
    35bc:	24 e0       	ldi	r18, 0x04	; 4
    35be:	30 e0       	ldi	r19, 0x00	; 0
    35c0:	4d e1       	ldi	r20, 0x1D	; 29
    35c2:	54 e0       	ldi	r21, 0x04	; 4
    35c4:	60 e0       	ldi	r22, 0x00	; 0
    35c6:	78 e0       	ldi	r23, 0x08	; 8
    35c8:	ce 01       	movw	r24, r28
    35ca:	84 96       	adiw	r24, 0x24	; 36
    35cc:	99 db       	rcall	.-2254   	; 0x2d00 <DW1000_writeValueToBytes>
    35ce:	21 e0       	ldi	r18, 0x01	; 1
    35d0:	30 e0       	ldi	r19, 0x00	; 0
    35d2:	4e eb       	ldi	r20, 0xBE	; 190
    35d4:	50 e0       	ldi	r21, 0x00	; 0
    35d6:	60 e0       	ldi	r22, 0x00	; 0
    35d8:	70 e0       	ldi	r23, 0x00	; 0
    35da:	ce 01       	movw	r24, r28
    35dc:	88 96       	adiw	r24, 0x28	; 40
    35de:	90 db       	rcall	.-2272   	; 0x2d00 <DW1000_writeValueToBytes>
    35e0:	21 e0       	ldi	r18, 0x01	; 1
    35e2:	30 e0       	ldi	r19, 0x00	; 0
    35e4:	4d e0       	ldi	r20, 0x0D	; 13
    35e6:	50 e0       	ldi	r21, 0x00	; 0
    35e8:	60 e0       	ldi	r22, 0x00	; 0
    35ea:	70 e0       	ldi	r23, 0x00	; 0
    35ec:	ce 01       	movw	r24, r28
    35ee:	45 96       	adiw	r24, 0x15	; 21
    35f0:	87 db       	rcall	.-2290   	; 0x2d00 <DW1000_writeValueToBytes>
    35f2:	80 91 a6 25 	lds	r24, 0x25A6
    35f6:	81 30       	cpi	r24, 0x01	; 1
    35f8:	51 f4       	brne	.+20     	; 0x360e <DW1000_tune+0x494>
    35fa:	22 e0       	ldi	r18, 0x02	; 2
    35fc:	30 e0       	ldi	r19, 0x00	; 0
    35fe:	47 e0       	ldi	r20, 0x07	; 7
    3600:	56 e1       	ldi	r21, 0x16	; 22
    3602:	60 e0       	ldi	r22, 0x00	; 0
    3604:	70 e0       	ldi	r23, 0x00	; 0
    3606:	ce 01       	movw	r24, r28
    3608:	46 96       	adiw	r24, 0x16	; 22
    360a:	7a db       	rcall	.-2316   	; 0x2d00 <DW1000_writeValueToBytes>
    360c:	0b c0       	rjmp	.+22     	; 0x3624 <DW1000_tune+0x4aa>
    360e:	82 30       	cpi	r24, 0x02	; 2
    3610:	49 f4       	brne	.+18     	; 0x3624 <DW1000_tune+0x4aa>
    3612:	22 e0       	ldi	r18, 0x02	; 2
    3614:	30 e0       	ldi	r19, 0x00	; 0
    3616:	47 e0       	ldi	r20, 0x07	; 7
    3618:	56 e0       	ldi	r21, 0x06	; 6
    361a:	60 e0       	ldi	r22, 0x00	; 0
    361c:	70 e0       	ldi	r23, 0x00	; 0
    361e:	ce 01       	movw	r24, r28
    3620:	46 96       	adiw	r24, 0x16	; 22
    3622:	6e db       	rcall	.-2340   	; 0x2d00 <DW1000_writeValueToBytes>
    3624:	80 91 a3 25 	lds	r24, 0x25A3
    3628:	9f ef       	ldi	r25, 0xFF	; 255
    362a:	98 0f       	add	r25, r24
    362c:	92 30       	cpi	r25, 0x02	; 2
    362e:	c0 f4       	brcc	.+48     	; 0x3660 <DW1000_tune+0x4e6>
    3630:	80 91 a7 25 	lds	r24, 0x25A7
    3634:	81 11       	cpse	r24, r1
    3636:	0a c0       	rjmp	.+20     	; 0x364c <DW1000_tune+0x4d2>
    3638:	22 e0       	ldi	r18, 0x02	; 2
    363a:	30 e0       	ldi	r19, 0x00	; 0
    363c:	43 e3       	ldi	r20, 0x33	; 51
    363e:	5b e0       	ldi	r21, 0x0B	; 11
    3640:	60 e0       	ldi	r22, 0x00	; 0
    3642:	70 e0       	ldi	r23, 0x00	; 0
    3644:	ce 01       	movw	r24, r28
    3646:	48 96       	adiw	r24, 0x18	; 24
    3648:	5b db       	rcall	.-2378   	; 0x2d00 <DW1000_writeValueToBytes>
    364a:	2d c1       	rjmp	.+602    	; 0x38a6 <DW1000_tune+0x72c>
    364c:	22 e0       	ldi	r18, 0x02	; 2
    364e:	30 e0       	ldi	r19, 0x00	; 0
    3650:	48 e9       	ldi	r20, 0x98	; 152
    3652:	59 e5       	ldi	r21, 0x59	; 89
    3654:	60 e0       	ldi	r22, 0x00	; 0
    3656:	70 e0       	ldi	r23, 0x00	; 0
    3658:	ce 01       	movw	r24, r28
    365a:	48 96       	adiw	r24, 0x18	; 24
    365c:	51 db       	rcall	.-2398   	; 0x2d00 <DW1000_writeValueToBytes>
    365e:	23 c1       	rjmp	.+582    	; 0x38a6 <DW1000_tune+0x72c>
    3660:	83 30       	cpi	r24, 0x03	; 3
    3662:	11 f0       	breq	.+4      	; 0x3668 <DW1000_tune+0x4ee>
    3664:	88 30       	cpi	r24, 0x08	; 8
    3666:	c1 f4       	brne	.+48     	; 0x3698 <DW1000_tune+0x51e>
    3668:	80 91 a7 25 	lds	r24, 0x25A7
    366c:	81 11       	cpse	r24, r1
    366e:	0a c0       	rjmp	.+20     	; 0x3684 <DW1000_tune+0x50a>
    3670:	22 e0       	ldi	r18, 0x02	; 2
    3672:	30 e0       	ldi	r19, 0x00	; 0
    3674:	4d e3       	ldi	r20, 0x3D	; 61
    3676:	5a e0       	ldi	r21, 0x0A	; 10
    3678:	60 e0       	ldi	r22, 0x00	; 0
    367a:	70 e0       	ldi	r23, 0x00	; 0
    367c:	ce 01       	movw	r24, r28
    367e:	48 96       	adiw	r24, 0x18	; 24
    3680:	3f db       	rcall	.-2434   	; 0x2d00 <DW1000_writeValueToBytes>
    3682:	11 c1       	rjmp	.+546    	; 0x38a6 <DW1000_tune+0x72c>
    3684:	22 e0       	ldi	r18, 0x02	; 2
    3686:	30 e0       	ldi	r19, 0x00	; 0
    3688:	4a ee       	ldi	r20, 0xEA	; 234
    368a:	51 e5       	ldi	r21, 0x51	; 81
    368c:	60 e0       	ldi	r22, 0x00	; 0
    368e:	70 e0       	ldi	r23, 0x00	; 0
    3690:	ce 01       	movw	r24, r28
    3692:	48 96       	adiw	r24, 0x18	; 24
    3694:	35 db       	rcall	.-2454   	; 0x2d00 <DW1000_writeValueToBytes>
    3696:	07 c1       	rjmp	.+526    	; 0x38a6 <DW1000_tune+0x72c>
    3698:	84 30       	cpi	r24, 0x04	; 4
    369a:	c1 f4       	brne	.+48     	; 0x36cc <DW1000_tune+0x552>
    369c:	80 91 a7 25 	lds	r24, 0x25A7
    36a0:	81 11       	cpse	r24, r1
    36a2:	0a c0       	rjmp	.+20     	; 0x36b8 <DW1000_tune+0x53e>
    36a4:	22 e0       	ldi	r18, 0x02	; 2
    36a6:	30 e0       	ldi	r19, 0x00	; 0
    36a8:	41 e5       	ldi	r20, 0x51	; 81
    36aa:	58 e0       	ldi	r21, 0x08	; 8
    36ac:	60 e0       	ldi	r22, 0x00	; 0
    36ae:	70 e0       	ldi	r23, 0x00	; 0
    36b0:	ce 01       	movw	r24, r28
    36b2:	48 96       	adiw	r24, 0x18	; 24
    36b4:	25 db       	rcall	.-2486   	; 0x2d00 <DW1000_writeValueToBytes>
    36b6:	f7 c0       	rjmp	.+494    	; 0x38a6 <DW1000_tune+0x72c>
    36b8:	22 e0       	ldi	r18, 0x02	; 2
    36ba:	30 e0       	ldi	r19, 0x00	; 0
    36bc:	4e e8       	ldi	r20, 0x8E	; 142
    36be:	52 e4       	ldi	r21, 0x42	; 66
    36c0:	60 e0       	ldi	r22, 0x00	; 0
    36c2:	70 e0       	ldi	r23, 0x00	; 0
    36c4:	ce 01       	movw	r24, r28
    36c6:	48 96       	adiw	r24, 0x18	; 24
    36c8:	1b db       	rcall	.-2506   	; 0x2d00 <DW1000_writeValueToBytes>
    36ca:	ed c0       	rjmp	.+474    	; 0x38a6 <DW1000_tune+0x72c>
    36cc:	85 30       	cpi	r24, 0x05	; 5
    36ce:	c1 f4       	brne	.+48     	; 0x3700 <DW1000_tune+0x586>
    36d0:	80 91 a7 25 	lds	r24, 0x25A7
    36d4:	81 11       	cpse	r24, r1
    36d6:	0a c0       	rjmp	.+20     	; 0x36ec <DW1000_tune+0x572>
    36d8:	22 e0       	ldi	r18, 0x02	; 2
    36da:	30 e0       	ldi	r19, 0x00	; 0
    36dc:	43 ea       	ldi	r20, 0xA3	; 163
    36de:	58 e0       	ldi	r21, 0x08	; 8
    36e0:	60 e0       	ldi	r22, 0x00	; 0
    36e2:	70 e0       	ldi	r23, 0x00	; 0
    36e4:	ce 01       	movw	r24, r28
    36e6:	48 96       	adiw	r24, 0x18	; 24
    36e8:	0b db       	rcall	.-2538   	; 0x2d00 <DW1000_writeValueToBytes>
    36ea:	dd c0       	rjmp	.+442    	; 0x38a6 <DW1000_tune+0x72c>
    36ec:	22 e0       	ldi	r18, 0x02	; 2
    36ee:	30 e0       	ldi	r19, 0x00	; 0
    36f0:	4e e1       	ldi	r20, 0x1E	; 30
    36f2:	55 e4       	ldi	r21, 0x45	; 69
    36f4:	60 e0       	ldi	r22, 0x00	; 0
    36f6:	70 e0       	ldi	r23, 0x00	; 0
    36f8:	ce 01       	movw	r24, r28
    36fa:	48 96       	adiw	r24, 0x18	; 24
    36fc:	01 db       	rcall	.-2558   	; 0x2d00 <DW1000_writeValueToBytes>
    36fe:	d3 c0       	rjmp	.+422    	; 0x38a6 <DW1000_tune+0x72c>
    3700:	86 30       	cpi	r24, 0x06	; 6
    3702:	c1 f4       	brne	.+48     	; 0x3734 <DW1000_tune+0x5ba>
    3704:	80 91 a7 25 	lds	r24, 0x25A7
    3708:	81 11       	cpse	r24, r1
    370a:	0a c0       	rjmp	.+20     	; 0x3720 <DW1000_tune+0x5a6>
    370c:	22 e0       	ldi	r18, 0x02	; 2
    370e:	30 e0       	ldi	r19, 0x00	; 0
    3710:	42 ec       	ldi	r20, 0xC2	; 194
    3712:	55 e0       	ldi	r21, 0x05	; 5
    3714:	60 e0       	ldi	r22, 0x00	; 0
    3716:	70 e0       	ldi	r23, 0x00	; 0
    3718:	ce 01       	movw	r24, r28
    371a:	48 96       	adiw	r24, 0x18	; 24
    371c:	f1 da       	rcall	.-2590   	; 0x2d00 <DW1000_writeValueToBytes>
    371e:	c3 c0       	rjmp	.+390    	; 0x38a6 <DW1000_tune+0x72c>
    3720:	22 e0       	ldi	r18, 0x02	; 2
    3722:	30 e0       	ldi	r19, 0x00	; 0
    3724:	44 e1       	ldi	r20, 0x14	; 20
    3726:	5e e2       	ldi	r21, 0x2E	; 46
    3728:	60 e0       	ldi	r22, 0x00	; 0
    372a:	70 e0       	ldi	r23, 0x00	; 0
    372c:	ce 01       	movw	r24, r28
    372e:	48 96       	adiw	r24, 0x18	; 24
    3730:	e7 da       	rcall	.-2610   	; 0x2d00 <DW1000_writeValueToBytes>
    3732:	b9 c0       	rjmp	.+370    	; 0x38a6 <DW1000_tune+0x72c>
    3734:	87 30       	cpi	r24, 0x07	; 7
    3736:	c1 f4       	brne	.+48     	; 0x3768 <DW1000_tune+0x5ee>
    3738:	80 91 a7 25 	lds	r24, 0x25A7
    373c:	81 11       	cpse	r24, r1
    373e:	0a c0       	rjmp	.+20     	; 0x3754 <DW1000_tune+0x5da>
    3740:	22 e0       	ldi	r18, 0x02	; 2
    3742:	30 e0       	ldi	r19, 0x00	; 0
    3744:	40 e0       	ldi	r20, 0x00	; 0
    3746:	50 e1       	ldi	r21, 0x10	; 16
    3748:	60 e0       	ldi	r22, 0x00	; 0
    374a:	70 e0       	ldi	r23, 0x00	; 0
    374c:	ce 01       	movw	r24, r28
    374e:	48 96       	adiw	r24, 0x18	; 24
    3750:	d7 da       	rcall	.-2642   	; 0x2d00 <DW1000_writeValueToBytes>
    3752:	a9 c0       	rjmp	.+338    	; 0x38a6 <DW1000_tune+0x72c>
    3754:	22 e0       	ldi	r18, 0x02	; 2
    3756:	30 e0       	ldi	r19, 0x00	; 0
    3758:	40 e0       	ldi	r20, 0x00	; 0
    375a:	50 e8       	ldi	r21, 0x80	; 128
    375c:	60 e0       	ldi	r22, 0x00	; 0
    375e:	70 e0       	ldi	r23, 0x00	; 0
    3760:	ce 01       	movw	r24, r28
    3762:	48 96       	adiw	r24, 0x18	; 24
    3764:	cd da       	rcall	.-2662   	; 0x2d00 <DW1000_writeValueToBytes>
    3766:	9f c0       	rjmp	.+318    	; 0x38a6 <DW1000_tune+0x72c>
    3768:	89 30       	cpi	r24, 0x09	; 9
    376a:	c1 f4       	brne	.+48     	; 0x379c <DW1000_tune+0x622>
    376c:	80 91 a7 25 	lds	r24, 0x25A7
    3770:	81 11       	cpse	r24, r1
    3772:	0a c0       	rjmp	.+20     	; 0x3788 <DW1000_tune+0x60e>
    3774:	22 e0       	ldi	r18, 0x02	; 2
    3776:	30 e0       	ldi	r19, 0x00	; 0
    3778:	4e e1       	ldi	r20, 0x1E	; 30
    377a:	55 e0       	ldi	r21, 0x05	; 5
    377c:	60 e0       	ldi	r22, 0x00	; 0
    377e:	70 e0       	ldi	r23, 0x00	; 0
    3780:	ce 01       	movw	r24, r28
    3782:	48 96       	adiw	r24, 0x18	; 24
    3784:	bd da       	rcall	.-2694   	; 0x2d00 <DW1000_writeValueToBytes>
    3786:	8f c0       	rjmp	.+286    	; 0x38a6 <DW1000_tune+0x72c>
    3788:	22 e0       	ldi	r18, 0x02	; 2
    378a:	30 e0       	ldi	r19, 0x00	; 0
    378c:	44 ef       	ldi	r20, 0xF4	; 244
    378e:	58 e2       	ldi	r21, 0x28	; 40
    3790:	60 e0       	ldi	r22, 0x00	; 0
    3792:	70 e0       	ldi	r23, 0x00	; 0
    3794:	ce 01       	movw	r24, r28
    3796:	48 96       	adiw	r24, 0x18	; 24
    3798:	b3 da       	rcall	.-2714   	; 0x2d00 <DW1000_writeValueToBytes>
    379a:	85 c0       	rjmp	.+266    	; 0x38a6 <DW1000_tune+0x72c>
    379c:	8a 30       	cpi	r24, 0x0A	; 10
    379e:	11 f0       	breq	.+4      	; 0x37a4 <DW1000_tune+0x62a>
    37a0:	81 31       	cpi	r24, 0x11	; 17
    37a2:	c1 f4       	brne	.+48     	; 0x37d4 <DW1000_tune+0x65a>
    37a4:	80 91 a7 25 	lds	r24, 0x25A7
    37a8:	81 11       	cpse	r24, r1
    37aa:	0a c0       	rjmp	.+20     	; 0x37c0 <DW1000_tune+0x646>
    37ac:	22 e0       	ldi	r18, 0x02	; 2
    37ae:	30 e0       	ldi	r19, 0x00	; 0
    37b0:	46 e6       	ldi	r20, 0x66	; 102
    37b2:	56 e0       	ldi	r21, 0x06	; 6
    37b4:	60 e0       	ldi	r22, 0x00	; 0
    37b6:	70 e0       	ldi	r23, 0x00	; 0
    37b8:	ce 01       	movw	r24, r28
    37ba:	48 96       	adiw	r24, 0x18	; 24
    37bc:	a1 da       	rcall	.-2750   	; 0x2d00 <DW1000_writeValueToBytes>
    37be:	73 c0       	rjmp	.+230    	; 0x38a6 <DW1000_tune+0x72c>
    37c0:	22 e0       	ldi	r18, 0x02	; 2
    37c2:	30 e0       	ldi	r19, 0x00	; 0
    37c4:	42 e3       	ldi	r20, 0x32	; 50
    37c6:	53 e3       	ldi	r21, 0x33	; 51
    37c8:	60 e0       	ldi	r22, 0x00	; 0
    37ca:	70 e0       	ldi	r23, 0x00	; 0
    37cc:	ce 01       	movw	r24, r28
    37ce:	48 96       	adiw	r24, 0x18	; 24
    37d0:	97 da       	rcall	.-2770   	; 0x2d00 <DW1000_writeValueToBytes>
    37d2:	69 c0       	rjmp	.+210    	; 0x38a6 <DW1000_tune+0x72c>
    37d4:	8b 30       	cpi	r24, 0x0B	; 11
    37d6:	c1 f4       	brne	.+48     	; 0x3808 <DW1000_tune+0x68e>
    37d8:	80 91 a7 25 	lds	r24, 0x25A7
    37dc:	81 11       	cpse	r24, r1
    37de:	0a c0       	rjmp	.+20     	; 0x37f4 <DW1000_tune+0x67a>
    37e0:	22 e0       	ldi	r18, 0x02	; 2
    37e2:	30 e0       	ldi	r19, 0x00	; 0
    37e4:	4c e5       	ldi	r20, 0x5C	; 92
    37e6:	57 e0       	ldi	r21, 0x07	; 7
    37e8:	60 e0       	ldi	r22, 0x00	; 0
    37ea:	70 e0       	ldi	r23, 0x00	; 0
    37ec:	ce 01       	movw	r24, r28
    37ee:	48 96       	adiw	r24, 0x18	; 24
    37f0:	87 da       	rcall	.-2802   	; 0x2d00 <DW1000_writeValueToBytes>
    37f2:	59 c0       	rjmp	.+178    	; 0x38a6 <DW1000_tune+0x72c>
    37f4:	22 e0       	ldi	r18, 0x02	; 2
    37f6:	30 e0       	ldi	r19, 0x00	; 0
    37f8:	40 ee       	ldi	r20, 0xE0	; 224
    37fa:	5a e3       	ldi	r21, 0x3A	; 58
    37fc:	60 e0       	ldi	r22, 0x00	; 0
    37fe:	70 e0       	ldi	r23, 0x00	; 0
    3800:	ce 01       	movw	r24, r28
    3802:	48 96       	adiw	r24, 0x18	; 24
    3804:	7d da       	rcall	.-2822   	; 0x2d00 <DW1000_writeValueToBytes>
    3806:	4f c0       	rjmp	.+158    	; 0x38a6 <DW1000_tune+0x72c>
    3808:	8c 30       	cpi	r24, 0x0C	; 12
    380a:	c1 f4       	brne	.+48     	; 0x383c <DW1000_tune+0x6c2>
    380c:	80 91 a7 25 	lds	r24, 0x25A7
    3810:	81 11       	cpse	r24, r1
    3812:	0a c0       	rjmp	.+20     	; 0x3828 <DW1000_tune+0x6ae>
    3814:	22 e0       	ldi	r18, 0x02	; 2
    3816:	30 e0       	ldi	r19, 0x00	; 0
    3818:	4e ea       	ldi	r20, 0xAE	; 174
    381a:	57 e0       	ldi	r21, 0x07	; 7
    381c:	60 e0       	ldi	r22, 0x00	; 0
    381e:	70 e0       	ldi	r23, 0x00	; 0
    3820:	ce 01       	movw	r24, r28
    3822:	48 96       	adiw	r24, 0x18	; 24
    3824:	6d da       	rcall	.-2854   	; 0x2d00 <DW1000_writeValueToBytes>
    3826:	3f c0       	rjmp	.+126    	; 0x38a6 <DW1000_tune+0x72c>
    3828:	22 e0       	ldi	r18, 0x02	; 2
    382a:	30 e0       	ldi	r19, 0x00	; 0
    382c:	40 e7       	ldi	r20, 0x70	; 112
    382e:	5d e3       	ldi	r21, 0x3D	; 61
    3830:	60 e0       	ldi	r22, 0x00	; 0
    3832:	70 e0       	ldi	r23, 0x00	; 0
    3834:	ce 01       	movw	r24, r28
    3836:	48 96       	adiw	r24, 0x18	; 24
    3838:	63 da       	rcall	.-2874   	; 0x2d00 <DW1000_writeValueToBytes>
    383a:	35 c0       	rjmp	.+106    	; 0x38a6 <DW1000_tune+0x72c>
    383c:	9e ee       	ldi	r25, 0xEE	; 238
    383e:	98 0f       	add	r25, r24
    3840:	92 30       	cpi	r25, 0x02	; 2
    3842:	c0 f4       	brcc	.+48     	; 0x3874 <DW1000_tune+0x6fa>
    3844:	80 91 a7 25 	lds	r24, 0x25A7
    3848:	81 11       	cpse	r24, r1
    384a:	0a c0       	rjmp	.+20     	; 0x3860 <DW1000_tune+0x6e6>
    384c:	22 e0       	ldi	r18, 0x02	; 2
    384e:	30 e0       	ldi	r19, 0x00	; 0
    3850:	48 eb       	ldi	r20, 0xB8	; 184
    3852:	56 e0       	ldi	r21, 0x06	; 6
    3854:	60 e0       	ldi	r22, 0x00	; 0
    3856:	70 e0       	ldi	r23, 0x00	; 0
    3858:	ce 01       	movw	r24, r28
    385a:	48 96       	adiw	r24, 0x18	; 24
    385c:	51 da       	rcall	.-2910   	; 0x2d00 <DW1000_writeValueToBytes>
    385e:	23 c0       	rjmp	.+70     	; 0x38a6 <DW1000_tune+0x72c>
    3860:	22 e0       	ldi	r18, 0x02	; 2
    3862:	30 e0       	ldi	r19, 0x00	; 0
    3864:	42 ec       	ldi	r20, 0xC2	; 194
    3866:	55 e3       	ldi	r21, 0x35	; 53
    3868:	60 e0       	ldi	r22, 0x00	; 0
    386a:	70 e0       	ldi	r23, 0x00	; 0
    386c:	ce 01       	movw	r24, r28
    386e:	48 96       	adiw	r24, 0x18	; 24
    3870:	47 da       	rcall	.-2930   	; 0x2d00 <DW1000_writeValueToBytes>
    3872:	19 c0       	rjmp	.+50     	; 0x38a6 <DW1000_tune+0x72c>
    3874:	84 31       	cpi	r24, 0x14	; 20
    3876:	b9 f4       	brne	.+46     	; 0x38a6 <DW1000_tune+0x72c>
    3878:	80 91 a7 25 	lds	r24, 0x25A7
    387c:	81 11       	cpse	r24, r1
    387e:	0a c0       	rjmp	.+20     	; 0x3894 <DW1000_tune+0x71a>
    3880:	22 e0       	ldi	r18, 0x02	; 2
    3882:	30 e0       	ldi	r19, 0x00	; 0
    3884:	45 ef       	ldi	r20, 0xF5	; 245
    3886:	58 e0       	ldi	r21, 0x08	; 8
    3888:	60 e0       	ldi	r22, 0x00	; 0
    388a:	70 e0       	ldi	r23, 0x00	; 0
    388c:	ce 01       	movw	r24, r28
    388e:	48 96       	adiw	r24, 0x18	; 24
    3890:	37 da       	rcall	.-2962   	; 0x2d00 <DW1000_writeValueToBytes>
    3892:	09 c0       	rjmp	.+18     	; 0x38a6 <DW1000_tune+0x72c>
    3894:	22 e0       	ldi	r18, 0x02	; 2
    3896:	30 e0       	ldi	r19, 0x00	; 0
    3898:	4e ea       	ldi	r20, 0xAE	; 174
    389a:	57 e4       	ldi	r21, 0x47	; 71
    389c:	60 e0       	ldi	r22, 0x00	; 0
    389e:	70 e0       	ldi	r23, 0x00	; 0
    38a0:	ce 01       	movw	r24, r28
    38a2:	48 96       	adiw	r24, 0x18	; 24
    38a4:	2d da       	rcall	.-2982   	; 0x2d00 <DW1000_writeValueToBytes>
    38a6:	80 91 a4 25 	lds	r24, 0x25A4
    38aa:	9f ef       	ldi	r25, 0xFF	; 255
    38ac:	98 0f       	add	r25, r24
    38ae:	92 30       	cpi	r25, 0x02	; 2
    38b0:	a8 f5       	brcc	.+106    	; 0x391c <DW1000_tune+0x7a2>
    38b2:	80 91 a6 25 	lds	r24, 0x25A6
    38b6:	81 30       	cpi	r24, 0x01	; 1
    38b8:	b9 f4       	brne	.+46     	; 0x38e8 <DW1000_tune+0x76e>
    38ba:	80 91 a1 25 	lds	r24, 0x25A1
    38be:	88 23       	and	r24, r24
    38c0:	51 f0       	breq	.+20     	; 0x38d6 <DW1000_tune+0x75c>
    38c2:	24 e0       	ldi	r18, 0x04	; 4
    38c4:	30 e0       	ldi	r19, 0x00	; 0
    38c6:	45 e7       	ldi	r20, 0x75	; 117
    38c8:	55 e5       	ldi	r21, 0x55	; 85
    38ca:	65 e3       	ldi	r22, 0x35	; 53
    38cc:	75 e1       	ldi	r23, 0x15	; 21
    38ce:	ce 01       	movw	r24, r28
    38d0:	4a 96       	adiw	r24, 0x1a	; 26
    38d2:	16 da       	rcall	.-3028   	; 0x2d00 <DW1000_writeValueToBytes>
    38d4:	fd c0       	rjmp	.+506    	; 0x3ad0 <DW1000_tune+0x956>
    38d6:	24 e0       	ldi	r18, 0x04	; 4
    38d8:	30 e0       	ldi	r19, 0x00	; 0
    38da:	45 e7       	ldi	r20, 0x75	; 117
    38dc:	55 e7       	ldi	r21, 0x75	; 117
    38de:	ba 01       	movw	r22, r20
    38e0:	ce 01       	movw	r24, r28
    38e2:	4a 96       	adiw	r24, 0x1a	; 26
    38e4:	0d da       	rcall	.-3046   	; 0x2d00 <DW1000_writeValueToBytes>
    38e6:	f4 c0       	rjmp	.+488    	; 0x3ad0 <DW1000_tune+0x956>
    38e8:	82 30       	cpi	r24, 0x02	; 2
    38ea:	09 f0       	breq	.+2      	; 0x38ee <DW1000_tune+0x774>
    38ec:	f1 c0       	rjmp	.+482    	; 0x3ad0 <DW1000_tune+0x956>
    38ee:	80 91 a1 25 	lds	r24, 0x25A1
    38f2:	88 23       	and	r24, r24
    38f4:	51 f0       	breq	.+20     	; 0x390a <DW1000_tune+0x790>
    38f6:	24 e0       	ldi	r18, 0x04	; 4
    38f8:	30 e0       	ldi	r19, 0x00	; 0
    38fa:	47 e6       	ldi	r20, 0x67	; 103
    38fc:	57 e4       	ldi	r21, 0x47	; 71
    38fe:	67 e2       	ldi	r22, 0x27	; 39
    3900:	77 e0       	ldi	r23, 0x07	; 7
    3902:	ce 01       	movw	r24, r28
    3904:	4a 96       	adiw	r24, 0x1a	; 26
    3906:	fc d9       	rcall	.-3080   	; 0x2d00 <DW1000_writeValueToBytes>
    3908:	e3 c0       	rjmp	.+454    	; 0x3ad0 <DW1000_tune+0x956>
    390a:	24 e0       	ldi	r18, 0x04	; 4
    390c:	30 e0       	ldi	r19, 0x00	; 0
    390e:	47 e6       	ldi	r20, 0x67	; 103
    3910:	57 e6       	ldi	r21, 0x67	; 103
    3912:	ba 01       	movw	r22, r20
    3914:	ce 01       	movw	r24, r28
    3916:	4a 96       	adiw	r24, 0x1a	; 26
    3918:	f3 d9       	rcall	.-3098   	; 0x2d00 <DW1000_writeValueToBytes>
    391a:	da c0       	rjmp	.+436    	; 0x3ad0 <DW1000_tune+0x956>
    391c:	83 30       	cpi	r24, 0x03	; 3
    391e:	a9 f5       	brne	.+106    	; 0x398a <DW1000_tune+0x810>
    3920:	80 91 a6 25 	lds	r24, 0x25A6
    3924:	81 30       	cpi	r24, 0x01	; 1
    3926:	b9 f4       	brne	.+46     	; 0x3956 <DW1000_tune+0x7dc>
    3928:	80 91 a1 25 	lds	r24, 0x25A1
    392c:	88 23       	and	r24, r24
    392e:	51 f0       	breq	.+20     	; 0x3944 <DW1000_tune+0x7ca>
    3930:	24 e0       	ldi	r18, 0x04	; 4
    3932:	30 e0       	ldi	r19, 0x00	; 0
    3934:	4f e6       	ldi	r20, 0x6F	; 111
    3936:	5f e4       	ldi	r21, 0x4F	; 79
    3938:	6f e2       	ldi	r22, 0x2F	; 47
    393a:	7f e0       	ldi	r23, 0x0F	; 15
    393c:	ce 01       	movw	r24, r28
    393e:	4a 96       	adiw	r24, 0x1a	; 26
    3940:	df d9       	rcall	.-3138   	; 0x2d00 <DW1000_writeValueToBytes>
    3942:	c6 c0       	rjmp	.+396    	; 0x3ad0 <DW1000_tune+0x956>
    3944:	24 e0       	ldi	r18, 0x04	; 4
    3946:	30 e0       	ldi	r19, 0x00	; 0
    3948:	4f e6       	ldi	r20, 0x6F	; 111
    394a:	5f e6       	ldi	r21, 0x6F	; 111
    394c:	ba 01       	movw	r22, r20
    394e:	ce 01       	movw	r24, r28
    3950:	4a 96       	adiw	r24, 0x1a	; 26
    3952:	d6 d9       	rcall	.-3156   	; 0x2d00 <DW1000_writeValueToBytes>
    3954:	bd c0       	rjmp	.+378    	; 0x3ad0 <DW1000_tune+0x956>
    3956:	82 30       	cpi	r24, 0x02	; 2
    3958:	09 f0       	breq	.+2      	; 0x395c <DW1000_tune+0x7e2>
    395a:	ba c0       	rjmp	.+372    	; 0x3ad0 <DW1000_tune+0x956>
    395c:	80 91 a1 25 	lds	r24, 0x25A1
    3960:	88 23       	and	r24, r24
    3962:	51 f0       	breq	.+20     	; 0x3978 <DW1000_tune+0x7fe>
    3964:	24 e0       	ldi	r18, 0x04	; 4
    3966:	30 e0       	ldi	r19, 0x00	; 0
    3968:	4b e8       	ldi	r20, 0x8B	; 139
    396a:	5b e6       	ldi	r21, 0x6B	; 107
    396c:	6b e4       	ldi	r22, 0x4B	; 75
    396e:	7b e2       	ldi	r23, 0x2B	; 43
    3970:	ce 01       	movw	r24, r28
    3972:	4a 96       	adiw	r24, 0x1a	; 26
    3974:	c5 d9       	rcall	.-3190   	; 0x2d00 <DW1000_writeValueToBytes>
    3976:	ac c0       	rjmp	.+344    	; 0x3ad0 <DW1000_tune+0x956>
    3978:	24 e0       	ldi	r18, 0x04	; 4
    397a:	30 e0       	ldi	r19, 0x00	; 0
    397c:	4b e8       	ldi	r20, 0x8B	; 139
    397e:	5b e8       	ldi	r21, 0x8B	; 139
    3980:	ba 01       	movw	r22, r20
    3982:	ce 01       	movw	r24, r28
    3984:	4a 96       	adiw	r24, 0x1a	; 26
    3986:	bc d9       	rcall	.-3208   	; 0x2d00 <DW1000_writeValueToBytes>
    3988:	a3 c0       	rjmp	.+326    	; 0x3ad0 <DW1000_tune+0x956>
    398a:	84 30       	cpi	r24, 0x04	; 4
    398c:	a9 f5       	brne	.+106    	; 0x39f8 <DW1000_tune+0x87e>
    398e:	80 91 a6 25 	lds	r24, 0x25A6
    3992:	81 30       	cpi	r24, 0x01	; 1
    3994:	b9 f4       	brne	.+46     	; 0x39c4 <DW1000_tune+0x84a>
    3996:	80 91 a1 25 	lds	r24, 0x25A1
    399a:	88 23       	and	r24, r24
    399c:	51 f0       	breq	.+20     	; 0x39b2 <DW1000_tune+0x838>
    399e:	24 e0       	ldi	r18, 0x04	; 4
    39a0:	30 e0       	ldi	r19, 0x00	; 0
    39a2:	4f e5       	ldi	r20, 0x5F	; 95
    39a4:	5f e3       	ldi	r21, 0x3F	; 63
    39a6:	6f e1       	ldi	r22, 0x1F	; 31
    39a8:	7f e1       	ldi	r23, 0x1F	; 31
    39aa:	ce 01       	movw	r24, r28
    39ac:	4a 96       	adiw	r24, 0x1a	; 26
    39ae:	a8 d9       	rcall	.-3248   	; 0x2d00 <DW1000_writeValueToBytes>
    39b0:	8f c0       	rjmp	.+286    	; 0x3ad0 <DW1000_tune+0x956>
    39b2:	24 e0       	ldi	r18, 0x04	; 4
    39b4:	30 e0       	ldi	r19, 0x00	; 0
    39b6:	4f e5       	ldi	r20, 0x5F	; 95
    39b8:	5f e5       	ldi	r21, 0x5F	; 95
    39ba:	ba 01       	movw	r22, r20
    39bc:	ce 01       	movw	r24, r28
    39be:	4a 96       	adiw	r24, 0x1a	; 26
    39c0:	9f d9       	rcall	.-3266   	; 0x2d00 <DW1000_writeValueToBytes>
    39c2:	86 c0       	rjmp	.+268    	; 0x3ad0 <DW1000_tune+0x956>
    39c4:	82 30       	cpi	r24, 0x02	; 2
    39c6:	09 f0       	breq	.+2      	; 0x39ca <DW1000_tune+0x850>
    39c8:	83 c0       	rjmp	.+262    	; 0x3ad0 <DW1000_tune+0x956>
    39ca:	80 91 a1 25 	lds	r24, 0x25A1
    39ce:	88 23       	and	r24, r24
    39d0:	51 f0       	breq	.+20     	; 0x39e6 <DW1000_tune+0x86c>
    39d2:	24 e0       	ldi	r18, 0x04	; 4
    39d4:	30 e0       	ldi	r19, 0x00	; 0
    39d6:	4a e9       	ldi	r20, 0x9A	; 154
    39d8:	5a e7       	ldi	r21, 0x7A	; 122
    39da:	6a e5       	ldi	r22, 0x5A	; 90
    39dc:	7a e3       	ldi	r23, 0x3A	; 58
    39de:	ce 01       	movw	r24, r28
    39e0:	4a 96       	adiw	r24, 0x1a	; 26
    39e2:	8e d9       	rcall	.-3300   	; 0x2d00 <DW1000_writeValueToBytes>
    39e4:	75 c0       	rjmp	.+234    	; 0x3ad0 <DW1000_tune+0x956>
    39e6:	24 e0       	ldi	r18, 0x04	; 4
    39e8:	30 e0       	ldi	r19, 0x00	; 0
    39ea:	4a e9       	ldi	r20, 0x9A	; 154
    39ec:	5a e9       	ldi	r21, 0x9A	; 154
    39ee:	ba 01       	movw	r22, r20
    39f0:	ce 01       	movw	r24, r28
    39f2:	4a 96       	adiw	r24, 0x1a	; 26
    39f4:	85 d9       	rcall	.-3318   	; 0x2d00 <DW1000_writeValueToBytes>
    39f6:	6c c0       	rjmp	.+216    	; 0x3ad0 <DW1000_tune+0x956>
    39f8:	85 30       	cpi	r24, 0x05	; 5
    39fa:	a9 f5       	brne	.+106    	; 0x3a66 <DW1000_tune+0x8ec>
    39fc:	80 91 a6 25 	lds	r24, 0x25A6
    3a00:	81 30       	cpi	r24, 0x01	; 1
    3a02:	b9 f4       	brne	.+46     	; 0x3a32 <DW1000_tune+0x8b8>
    3a04:	80 91 a1 25 	lds	r24, 0x25A1
    3a08:	88 23       	and	r24, r24
    3a0a:	51 f0       	breq	.+20     	; 0x3a20 <DW1000_tune+0x8a6>
    3a0c:	24 e0       	ldi	r18, 0x04	; 4
    3a0e:	30 e0       	ldi	r19, 0x00	; 0
    3a10:	48 e4       	ldi	r20, 0x48	; 72
    3a12:	58 e2       	ldi	r21, 0x28	; 40
    3a14:	68 e0       	ldi	r22, 0x08	; 8
    3a16:	7e e0       	ldi	r23, 0x0E	; 14
    3a18:	ce 01       	movw	r24, r28
    3a1a:	4a 96       	adiw	r24, 0x1a	; 26
    3a1c:	71 d9       	rcall	.-3358   	; 0x2d00 <DW1000_writeValueToBytes>
    3a1e:	58 c0       	rjmp	.+176    	; 0x3ad0 <DW1000_tune+0x956>
    3a20:	24 e0       	ldi	r18, 0x04	; 4
    3a22:	30 e0       	ldi	r19, 0x00	; 0
    3a24:	48 e4       	ldi	r20, 0x48	; 72
    3a26:	58 e4       	ldi	r21, 0x48	; 72
    3a28:	ba 01       	movw	r22, r20
    3a2a:	ce 01       	movw	r24, r28
    3a2c:	4a 96       	adiw	r24, 0x1a	; 26
    3a2e:	68 d9       	rcall	.-3376   	; 0x2d00 <DW1000_writeValueToBytes>
    3a30:	4f c0       	rjmp	.+158    	; 0x3ad0 <DW1000_tune+0x956>
    3a32:	82 30       	cpi	r24, 0x02	; 2
    3a34:	09 f0       	breq	.+2      	; 0x3a38 <DW1000_tune+0x8be>
    3a36:	4c c0       	rjmp	.+152    	; 0x3ad0 <DW1000_tune+0x956>
    3a38:	80 91 a1 25 	lds	r24, 0x25A1
    3a3c:	88 23       	and	r24, r24
    3a3e:	51 f0       	breq	.+20     	; 0x3a54 <DW1000_tune+0x8da>
    3a40:	24 e0       	ldi	r18, 0x04	; 4
    3a42:	30 e0       	ldi	r19, 0x00	; 0
    3a44:	45 e8       	ldi	r20, 0x85	; 133
    3a46:	55 e6       	ldi	r21, 0x65	; 101
    3a48:	65 e4       	ldi	r22, 0x45	; 69
    3a4a:	75 e2       	ldi	r23, 0x25	; 37
    3a4c:	ce 01       	movw	r24, r28
    3a4e:	4a 96       	adiw	r24, 0x1a	; 26
    3a50:	57 d9       	rcall	.-3410   	; 0x2d00 <DW1000_writeValueToBytes>
    3a52:	3e c0       	rjmp	.+124    	; 0x3ad0 <DW1000_tune+0x956>
    3a54:	24 e0       	ldi	r18, 0x04	; 4
    3a56:	30 e0       	ldi	r19, 0x00	; 0
    3a58:	45 e8       	ldi	r20, 0x85	; 133
    3a5a:	55 e8       	ldi	r21, 0x85	; 133
    3a5c:	ba 01       	movw	r22, r20
    3a5e:	ce 01       	movw	r24, r28
    3a60:	4a 96       	adiw	r24, 0x1a	; 26
    3a62:	4e d9       	rcall	.-3428   	; 0x2d00 <DW1000_writeValueToBytes>
    3a64:	35 c0       	rjmp	.+106    	; 0x3ad0 <DW1000_tune+0x956>
    3a66:	87 30       	cpi	r24, 0x07	; 7
    3a68:	99 f5       	brne	.+102    	; 0x3ad0 <DW1000_tune+0x956>
    3a6a:	80 91 a6 25 	lds	r24, 0x25A6
    3a6e:	81 30       	cpi	r24, 0x01	; 1
    3a70:	b9 f4       	brne	.+46     	; 0x3aa0 <DW1000_tune+0x926>
    3a72:	80 91 a1 25 	lds	r24, 0x25A1
    3a76:	88 23       	and	r24, r24
    3a78:	51 f0       	breq	.+20     	; 0x3a8e <DW1000_tune+0x914>
    3a7a:	24 e0       	ldi	r18, 0x04	; 4
    3a7c:	30 e0       	ldi	r19, 0x00	; 0
    3a7e:	42 e9       	ldi	r20, 0x92	; 146
    3a80:	52 e7       	ldi	r21, 0x72	; 114
    3a82:	62 e5       	ldi	r22, 0x52	; 82
    3a84:	72 e3       	ldi	r23, 0x32	; 50
    3a86:	ce 01       	movw	r24, r28
    3a88:	4a 96       	adiw	r24, 0x1a	; 26
    3a8a:	3a d9       	rcall	.-3468   	; 0x2d00 <DW1000_writeValueToBytes>
    3a8c:	21 c0       	rjmp	.+66     	; 0x3ad0 <DW1000_tune+0x956>
    3a8e:	24 e0       	ldi	r18, 0x04	; 4
    3a90:	30 e0       	ldi	r19, 0x00	; 0
    3a92:	42 e9       	ldi	r20, 0x92	; 146
    3a94:	52 e9       	ldi	r21, 0x92	; 146
    3a96:	ba 01       	movw	r22, r20
    3a98:	ce 01       	movw	r24, r28
    3a9a:	4a 96       	adiw	r24, 0x1a	; 26
    3a9c:	31 d9       	rcall	.-3486   	; 0x2d00 <DW1000_writeValueToBytes>
    3a9e:	18 c0       	rjmp	.+48     	; 0x3ad0 <DW1000_tune+0x956>
    3aa0:	82 30       	cpi	r24, 0x02	; 2
    3aa2:	b1 f4       	brne	.+44     	; 0x3ad0 <DW1000_tune+0x956>
    3aa4:	80 91 a1 25 	lds	r24, 0x25A1
    3aa8:	88 23       	and	r24, r24
    3aaa:	51 f0       	breq	.+20     	; 0x3ac0 <DW1000_tune+0x946>
    3aac:	24 e0       	ldi	r18, 0x04	; 4
    3aae:	30 e0       	ldi	r19, 0x00	; 0
    3ab0:	41 ed       	ldi	r20, 0xD1	; 209
    3ab2:	51 eb       	ldi	r21, 0xB1	; 177
    3ab4:	61 e7       	ldi	r22, 0x71	; 113
    3ab6:	71 e5       	ldi	r23, 0x51	; 81
    3ab8:	ce 01       	movw	r24, r28
    3aba:	4a 96       	adiw	r24, 0x1a	; 26
    3abc:	21 d9       	rcall	.-3518   	; 0x2d00 <DW1000_writeValueToBytes>
    3abe:	08 c0       	rjmp	.+16     	; 0x3ad0 <DW1000_tune+0x956>
    3ac0:	24 e0       	ldi	r18, 0x04	; 4
    3ac2:	30 e0       	ldi	r19, 0x00	; 0
    3ac4:	41 ed       	ldi	r20, 0xD1	; 209
    3ac6:	51 ed       	ldi	r21, 0xD1	; 209
    3ac8:	ba 01       	movw	r22, r20
    3aca:	ce 01       	movw	r24, r28
    3acc:	4a 96       	adiw	r24, 0x1a	; 26
    3ace:	18 d9       	rcall	.-3536   	; 0x2d00 <DW1000_writeValueToBytes>
    3ad0:	be 01       	movw	r22, r28
    3ad2:	66 5d       	subi	r22, 0xD6	; 214
    3ad4:	7f 4f       	sbci	r23, 0xFF	; 255
    3ad6:	8e e1       	ldi	r24, 0x1E	; 30
    3ad8:	90 e0       	ldi	r25, 0x00	; 0
    3ada:	49 d9       	rcall	.-3438   	; 0x2d6e <DW1000_readBytesOTP>
    3adc:	8a a5       	ldd	r24, Y+42	; 0x2a
    3ade:	81 11       	cpse	r24, r1
    3ae0:	0a c0       	rjmp	.+20     	; 0x3af6 <DW1000_tune+0x97c>
    3ae2:	21 e0       	ldi	r18, 0x01	; 1
    3ae4:	30 e0       	ldi	r19, 0x00	; 0
    3ae6:	40 e7       	ldi	r20, 0x70	; 112
    3ae8:	50 e0       	ldi	r21, 0x00	; 0
    3aea:	60 e0       	ldi	r22, 0x00	; 0
    3aec:	70 e0       	ldi	r23, 0x00	; 0
    3aee:	ce 01       	movw	r24, r28
    3af0:	89 96       	adiw	r24, 0x29	; 41
    3af2:	06 d9       	rcall	.-3572   	; 0x2d00 <DW1000_writeValueToBytes>
    3af4:	0b c0       	rjmp	.+22     	; 0x3b0c <DW1000_tune+0x992>
    3af6:	48 2f       	mov	r20, r24
    3af8:	4f 71       	andi	r20, 0x1F	; 31
    3afa:	40 66       	ori	r20, 0x60	; 96
    3afc:	50 e0       	ldi	r21, 0x00	; 0
    3afe:	60 e0       	ldi	r22, 0x00	; 0
    3b00:	70 e0       	ldi	r23, 0x00	; 0
    3b02:	21 e0       	ldi	r18, 0x01	; 1
    3b04:	30 e0       	ldi	r19, 0x00	; 0
    3b06:	ce 01       	movw	r24, r28
    3b08:	89 96       	adiw	r24, 0x29	; 41
    3b0a:	fa d8       	rcall	.-3596   	; 0x2d00 <DW1000_writeValueToBytes>
    3b0c:	22 e0       	ldi	r18, 0x02	; 2
    3b0e:	30 e0       	ldi	r19, 0x00	; 0
    3b10:	ae 01       	movw	r20, r28
    3b12:	4f 5f       	subi	r20, 0xFF	; 255
    3b14:	5f 4f       	sbci	r21, 0xFF	; 255
    3b16:	64 e0       	ldi	r22, 0x04	; 4
    3b18:	70 e0       	ldi	r23, 0x00	; 0
    3b1a:	83 e2       	ldi	r24, 0x23	; 35
    3b1c:	8f d8       	rcall	.-3810   	; 0x2c3c <DW1000_writeBytes>
    3b1e:	24 e0       	ldi	r18, 0x04	; 4
    3b20:	30 e0       	ldi	r19, 0x00	; 0
    3b22:	ae 01       	movw	r20, r28
    3b24:	4d 5f       	subi	r20, 0xFD	; 253
    3b26:	5f 4f       	sbci	r21, 0xFF	; 255
    3b28:	6c e0       	ldi	r22, 0x0C	; 12
    3b2a:	70 e0       	ldi	r23, 0x00	; 0
    3b2c:	83 e2       	ldi	r24, 0x23	; 35
    3b2e:	86 d8       	rcall	.-3828   	; 0x2c3c <DW1000_writeBytes>
    3b30:	22 e0       	ldi	r18, 0x02	; 2
    3b32:	30 e0       	ldi	r19, 0x00	; 0
    3b34:	ae 01       	movw	r20, r28
    3b36:	49 5f       	subi	r20, 0xF9	; 249
    3b38:	5f 4f       	sbci	r21, 0xFF	; 255
    3b3a:	62 e1       	ldi	r22, 0x12	; 18
    3b3c:	70 e0       	ldi	r23, 0x00	; 0
    3b3e:	83 e2       	ldi	r24, 0x23	; 35
    3b40:	7d d8       	rcall	.-3846   	; 0x2c3c <DW1000_writeBytes>
    3b42:	22 e0       	ldi	r18, 0x02	; 2
    3b44:	30 e0       	ldi	r19, 0x00	; 0
    3b46:	ae 01       	movw	r20, r28
    3b48:	47 5f       	subi	r20, 0xF7	; 247
    3b4a:	5f 4f       	sbci	r21, 0xFF	; 255
    3b4c:	62 e0       	ldi	r22, 0x02	; 2
    3b4e:	70 e0       	ldi	r23, 0x00	; 0
    3b50:	87 e2       	ldi	r24, 0x27	; 39
    3b52:	74 d8       	rcall	.-3864   	; 0x2c3c <DW1000_writeBytes>
    3b54:	22 e0       	ldi	r18, 0x02	; 2
    3b56:	30 e0       	ldi	r19, 0x00	; 0
    3b58:	ae 01       	movw	r20, r28
    3b5a:	45 5f       	subi	r20, 0xF5	; 245
    3b5c:	5f 4f       	sbci	r21, 0xFF	; 255
    3b5e:	64 e0       	ldi	r22, 0x04	; 4
    3b60:	70 e0       	ldi	r23, 0x00	; 0
    3b62:	87 e2       	ldi	r24, 0x27	; 39
    3b64:	6b d8       	rcall	.-3882   	; 0x2c3c <DW1000_writeBytes>
    3b66:	22 e0       	ldi	r18, 0x02	; 2
    3b68:	30 e0       	ldi	r19, 0x00	; 0
    3b6a:	ae 01       	movw	r20, r28
    3b6c:	43 5f       	subi	r20, 0xF3	; 243
    3b6e:	5f 4f       	sbci	r21, 0xFF	; 255
    3b70:	66 e0       	ldi	r22, 0x06	; 6
    3b72:	70 e0       	ldi	r23, 0x00	; 0
    3b74:	87 e2       	ldi	r24, 0x27	; 39
    3b76:	62 d8       	rcall	.-3900   	; 0x2c3c <DW1000_writeBytes>
    3b78:	24 e0       	ldi	r18, 0x04	; 4
    3b7a:	30 e0       	ldi	r19, 0x00	; 0
    3b7c:	ae 01       	movw	r20, r28
    3b7e:	41 5f       	subi	r20, 0xF1	; 241
    3b80:	5f 4f       	sbci	r21, 0xFF	; 255
    3b82:	68 e0       	ldi	r22, 0x08	; 8
    3b84:	70 e0       	ldi	r23, 0x00	; 0
    3b86:	87 e2       	ldi	r24, 0x27	; 39
    3b88:	59 d8       	rcall	.-3918   	; 0x2c3c <DW1000_writeBytes>
    3b8a:	22 e0       	ldi	r18, 0x02	; 2
    3b8c:	30 e0       	ldi	r19, 0x00	; 0
    3b8e:	ae 01       	movw	r20, r28
    3b90:	4d 5e       	subi	r20, 0xED	; 237
    3b92:	5f 4f       	sbci	r21, 0xFF	; 255
    3b94:	66 e2       	ldi	r22, 0x26	; 38
    3b96:	70 e0       	ldi	r23, 0x00	; 0
    3b98:	87 e2       	ldi	r24, 0x27	; 39
    3b9a:	50 d8       	rcall	.-3936   	; 0x2c3c <DW1000_writeBytes>
    3b9c:	21 e0       	ldi	r18, 0x01	; 1
    3b9e:	30 e0       	ldi	r19, 0x00	; 0
    3ba0:	ae 01       	movw	r20, r28
    3ba2:	4b 5e       	subi	r20, 0xEB	; 235
    3ba4:	5f 4f       	sbci	r21, 0xFF	; 255
    3ba6:	66 e0       	ldi	r22, 0x06	; 6
    3ba8:	78 e0       	ldi	r23, 0x08	; 8
    3baa:	8e e2       	ldi	r24, 0x2E	; 46
    3bac:	47 d8       	rcall	.-3954   	; 0x2c3c <DW1000_writeBytes>
    3bae:	22 e0       	ldi	r18, 0x02	; 2
    3bb0:	30 e0       	ldi	r19, 0x00	; 0
    3bb2:	ae 01       	movw	r20, r28
    3bb4:	4a 5e       	subi	r20, 0xEA	; 234
    3bb6:	5f 4f       	sbci	r21, 0xFF	; 255
    3bb8:	66 e0       	ldi	r22, 0x06	; 6
    3bba:	78 e1       	ldi	r23, 0x18	; 24
    3bbc:	8e e2       	ldi	r24, 0x2E	; 46
    3bbe:	3e d8       	rcall	.-3972   	; 0x2c3c <DW1000_writeBytes>
    3bc0:	22 e0       	ldi	r18, 0x02	; 2
    3bc2:	30 e0       	ldi	r19, 0x00	; 0
    3bc4:	ae 01       	movw	r20, r28
    3bc6:	48 5e       	subi	r20, 0xE8	; 232
    3bc8:	5f 4f       	sbci	r21, 0xFF	; 255
    3bca:	64 e0       	ldi	r22, 0x04	; 4
    3bcc:	78 e2       	ldi	r23, 0x28	; 40
    3bce:	8e e2       	ldi	r24, 0x2E	; 46
    3bd0:	35 d8       	rcall	.-3990   	; 0x2c3c <DW1000_writeBytes>
    3bd2:	24 e0       	ldi	r18, 0x04	; 4
    3bd4:	30 e0       	ldi	r19, 0x00	; 0
    3bd6:	ae 01       	movw	r20, r28
    3bd8:	46 5e       	subi	r20, 0xE6	; 230
    3bda:	5f 4f       	sbci	r21, 0xFF	; 255
    3bdc:	6f ef       	ldi	r22, 0xFF	; 255
    3bde:	70 e0       	ldi	r23, 0x00	; 0
    3be0:	8e e1       	ldi	r24, 0x1E	; 30
    3be2:	2c d8       	rcall	.-4008   	; 0x2c3c <DW1000_writeBytes>
    3be4:	21 e0       	ldi	r18, 0x01	; 1
    3be6:	30 e0       	ldi	r19, 0x00	; 0
    3be8:	ae 01       	movw	r20, r28
    3bea:	42 5e       	subi	r20, 0xE2	; 226
    3bec:	5f 4f       	sbci	r21, 0xFF	; 255
    3bee:	6b e0       	ldi	r22, 0x0B	; 11
    3bf0:	70 e0       	ldi	r23, 0x00	; 0
    3bf2:	88 e2       	ldi	r24, 0x28	; 40
    3bf4:	23 d8       	rcall	.-4026   	; 0x2c3c <DW1000_writeBytes>
    3bf6:	24 e0       	ldi	r18, 0x04	; 4
    3bf8:	30 e0       	ldi	r19, 0x00	; 0
    3bfa:	ae 01       	movw	r20, r28
    3bfc:	41 5e       	subi	r20, 0xE1	; 225
    3bfe:	5f 4f       	sbci	r21, 0xFF	; 255
    3c00:	6c e0       	ldi	r22, 0x0C	; 12
    3c02:	70 e0       	ldi	r23, 0x00	; 0
    3c04:	88 e2       	ldi	r24, 0x28	; 40
    3c06:	1a d8       	rcall	.-4044   	; 0x2c3c <DW1000_writeBytes>
    3c08:	21 e0       	ldi	r18, 0x01	; 1
    3c0a:	30 e0       	ldi	r19, 0x00	; 0
    3c0c:	ae 01       	movw	r20, r28
    3c0e:	4d 5d       	subi	r20, 0xDD	; 221
    3c10:	5f 4f       	sbci	r21, 0xFF	; 255
    3c12:	6b e0       	ldi	r22, 0x0B	; 11
    3c14:	70 e0       	ldi	r23, 0x00	; 0
    3c16:	8a e2       	ldi	r24, 0x2A	; 42
    3c18:	11 d8       	rcall	.-4062   	; 0x2c3c <DW1000_writeBytes>
    3c1a:	21 e0       	ldi	r18, 0x01	; 1
    3c1c:	30 e0       	ldi	r19, 0x00	; 0
    3c1e:	ae 01       	movw	r20, r28
    3c20:	48 5d       	subi	r20, 0xD8	; 216
    3c22:	5f 4f       	sbci	r21, 0xFF	; 255
    3c24:	6b e0       	ldi	r22, 0x0B	; 11
    3c26:	70 e0       	ldi	r23, 0x00	; 0
    3c28:	8b e2       	ldi	r24, 0x2B	; 43
    3c2a:	08 d8       	rcall	.-4080   	; 0x2c3c <DW1000_writeBytes>
    3c2c:	24 e0       	ldi	r18, 0x04	; 4
    3c2e:	30 e0       	ldi	r19, 0x00	; 0
    3c30:	ae 01       	movw	r20, r28
    3c32:	4c 5d       	subi	r20, 0xDC	; 220
    3c34:	5f 4f       	sbci	r21, 0xFF	; 255
    3c36:	67 e0       	ldi	r22, 0x07	; 7
    3c38:	70 e0       	ldi	r23, 0x00	; 0
    3c3a:	8b e2       	ldi	r24, 0x2B	; 43
    3c3c:	0e 94 1e 16 	call	0x2c3c	; 0x2c3c <DW1000_writeBytes>
    3c40:	21 e0       	ldi	r18, 0x01	; 1
    3c42:	30 e0       	ldi	r19, 0x00	; 0
    3c44:	ae 01       	movw	r20, r28
    3c46:	47 5d       	subi	r20, 0xD7	; 215
    3c48:	5f 4f       	sbci	r21, 0xFF	; 255
    3c4a:	6e e0       	ldi	r22, 0x0E	; 14
    3c4c:	70 e0       	ldi	r23, 0x00	; 0
    3c4e:	8b e2       	ldi	r24, 0x2B	; 43
    3c50:	0e 94 1e 16 	call	0x2c3c	; 0x2c3c <DW1000_writeBytes>
    3c54:	ad 96       	adiw	r28, 0x2d	; 45
    3c56:	cd bf       	out	0x3d, r28	; 61
    3c58:	de bf       	out	0x3e, r29	; 62
    3c5a:	df 91       	pop	r29
    3c5c:	cf 91       	pop	r28
    3c5e:	08 95       	ret

00003c60 <DW1000_newConfiguration>:
    3c60:	6b d8       	rcall	.-3882   	; 0x2d38 <DW1000_idle>
    3c62:	c7 d8       	rcall	.-3698   	; 0x2df2 <DW1000_readNetworkIdAndDeviceAddress>
    3c64:	b4 d8       	rcall	.-3736   	; 0x2dce <DW1000_readSystemConfigurationRegister>
    3c66:	e9 d8       	rcall	.-3630   	; 0x2e3a <DW1000_readChannelControlRegister>
    3c68:	fa d8       	rcall	.-3596   	; 0x2e5e <DW1000_readTransmitFrameControlRegister>
    3c6a:	d5 c8       	rjmp	.-3670   	; 0x2e16 <DW1000_readSystemEventMaskRegister>
    3c6c:	08 95       	ret

00003c6e <DW1000_commitConfiguration>:
    3c6e:	cf 93       	push	r28
    3c70:	df 93       	push	r29
    3c72:	cd b7       	in	r28, 0x3d	; 61
    3c74:	de b7       	in	r29, 0x3e	; 62
    3c76:	25 97       	sbiw	r28, 0x05	; 5
    3c78:	cd bf       	out	0x3d, r28	; 61
    3c7a:	de bf       	out	0x3e, r29	; 62
    3c7c:	c3 d8       	rcall	.-3706   	; 0x2e04 <DW1000_writeNetworkIdAndDeviceAddress>
    3c7e:	b0 d8       	rcall	.-3744   	; 0x2de0 <DW1000_writeSystemConfigurationRegister>
    3c80:	e5 d8       	rcall	.-3638   	; 0x2e4c <DW1000_writeChannelControlRegister>
    3c82:	f6 d8       	rcall	.-3604   	; 0x2e70 <DW1000_writeTransmitFrameControlRegister>
    3c84:	d1 d8       	rcall	.-3678   	; 0x2e28 <DW1000_writeSystemEventMaskRegister>
    3c86:	79 da       	rcall	.-2830   	; 0x317a <DW1000_tune>
    3c88:	25 e0       	ldi	r18, 0x05	; 5
    3c8a:	30 e0       	ldi	r19, 0x00	; 0
    3c8c:	40 e0       	ldi	r20, 0x00	; 0
    3c8e:	50 e4       	ldi	r21, 0x40	; 64
    3c90:	60 e0       	ldi	r22, 0x00	; 0
    3c92:	70 e0       	ldi	r23, 0x00	; 0
    3c94:	ce 01       	movw	r24, r28
    3c96:	01 96       	adiw	r24, 0x01	; 1
    3c98:	33 d8       	rcall	.-3994   	; 0x2d00 <DW1000_writeValueToBytes>
    3c9a:	22 e0       	ldi	r18, 0x02	; 2
    3c9c:	30 e0       	ldi	r19, 0x00	; 0
    3c9e:	ae 01       	movw	r20, r28
    3ca0:	4f 5f       	subi	r20, 0xFF	; 255
    3ca2:	5f 4f       	sbci	r21, 0xFF	; 255
    3ca4:	6f ef       	ldi	r22, 0xFF	; 255
    3ca6:	70 e0       	ldi	r23, 0x00	; 0
    3ca8:	88 e1       	ldi	r24, 0x18	; 24
    3caa:	0e 94 1e 16 	call	0x2c3c	; 0x2c3c <DW1000_writeBytes>
    3cae:	22 e0       	ldi	r18, 0x02	; 2
    3cb0:	30 e0       	ldi	r19, 0x00	; 0
    3cb2:	ae 01       	movw	r20, r28
    3cb4:	4f 5f       	subi	r20, 0xFF	; 255
    3cb6:	5f 4f       	sbci	r21, 0xFF	; 255
    3cb8:	64 e0       	ldi	r22, 0x04	; 4
    3cba:	78 e1       	ldi	r23, 0x18	; 24
    3cbc:	8e e2       	ldi	r24, 0x2E	; 46
    3cbe:	0e 94 1e 16 	call	0x2c3c	; 0x2c3c <DW1000_writeBytes>
    3cc2:	25 96       	adiw	r28, 0x05	; 5
    3cc4:	cd bf       	out	0x3d, r28	; 61
    3cc6:	de bf       	out	0x3e, r29	; 62
    3cc8:	df 91       	pop	r29
    3cca:	cf 91       	pop	r28
    3ccc:	08 95       	ret

00003cce <DW1000_setDefaults>:
    3cce:	80 91 af 25 	lds	r24, 0x25AF
    3cd2:	81 11       	cpse	r24, r1
    3cd4:	17 c0       	rjmp	.+46     	; 0x3d04 <DW1000_setDefaults+0x36>
    3cd6:	de d8       	rcall	.-3652   	; 0x2e94 <DW1000_useExtendedFrameLength>
    3cd8:	80 e0       	ldi	r24, 0x00	; 0
    3cda:	ea d8       	rcall	.-3628   	; 0x2eb0 <DW1000_useSmartPower>
    3cdc:	81 e0       	ldi	r24, 0x01	; 1
    3cde:	80 93 aa 25 	sts	0x25AA, r24
    3ce2:	80 e0       	ldi	r24, 0x00	; 0
    3ce4:	f2 d8       	rcall	.-3612   	; 0x2eca <DW1000_setFrameFilter>
    3ce6:	81 e0       	ldi	r24, 0x01	; 1
    3ce8:	f9 d8       	rcall	.-3598   	; 0x2edc <DW1000_interruptOnSent>
    3cea:	81 e0       	ldi	r24, 0x01	; 1
    3cec:	00 d9       	rcall	.-3584   	; 0x2eee <DW1000_interruptOnReceived>
    3cee:	81 e0       	ldi	r24, 0x01	; 1
    3cf0:	12 d9       	rcall	.-3548   	; 0x2f16 <DW1000_interruptOnReceiveFailed>
    3cf2:	80 e0       	ldi	r24, 0x00	; 0
    3cf4:	34 d9       	rcall	.-3480   	; 0x2f5e <DW1000_interruptOnReceiveTimestampAvailable>
    3cf6:	81 e0       	ldi	r24, 0x01	; 1
    3cf8:	3b d9       	rcall	.-3466   	; 0x2f70 <DW1000_interruptOnAutomaticAcknowledgeTrigger>
    3cfa:	81 e0       	ldi	r24, 0x01	; 1
    3cfc:	c2 d8       	rcall	.-3708   	; 0x2e82 <DW1000_setReceiverAutoReenable>
    3cfe:	85 eb       	ldi	r24, 0xB5	; 181
    3d00:	90 e2       	ldi	r25, 0x20	; 32
    3d02:	21 ca       	rjmp	.-3006   	; 0x3146 <DW1000_enableMode>
    3d04:	08 95       	ret

00003d06 <DW1000_clearTransmitStatus>:
    3d06:	21 e0       	ldi	r18, 0x01	; 1
    3d08:	44 e0       	ldi	r20, 0x04	; 4
    3d0a:	50 e0       	ldi	r21, 0x00	; 0
    3d0c:	65 e0       	ldi	r22, 0x05	; 5
    3d0e:	70 e0       	ldi	r23, 0x00	; 0
    3d10:	8f e8       	ldi	r24, 0x8F	; 143
    3d12:	95 e2       	ldi	r25, 0x25	; 37
    3d14:	0e 94 a3 15 	call	0x2b46	; 0x2b46 <DW1000_setBit>
    3d18:	21 e0       	ldi	r18, 0x01	; 1
    3d1a:	45 e0       	ldi	r20, 0x05	; 5
    3d1c:	50 e0       	ldi	r21, 0x00	; 0
    3d1e:	65 e0       	ldi	r22, 0x05	; 5
    3d20:	70 e0       	ldi	r23, 0x00	; 0
    3d22:	8f e8       	ldi	r24, 0x8F	; 143
    3d24:	95 e2       	ldi	r25, 0x25	; 37
    3d26:	0e 94 a3 15 	call	0x2b46	; 0x2b46 <DW1000_setBit>
    3d2a:	21 e0       	ldi	r18, 0x01	; 1
    3d2c:	46 e0       	ldi	r20, 0x06	; 6
    3d2e:	50 e0       	ldi	r21, 0x00	; 0
    3d30:	65 e0       	ldi	r22, 0x05	; 5
    3d32:	70 e0       	ldi	r23, 0x00	; 0
    3d34:	8f e8       	ldi	r24, 0x8F	; 143
    3d36:	95 e2       	ldi	r25, 0x25	; 37
    3d38:	0e 94 a3 15 	call	0x2b46	; 0x2b46 <DW1000_setBit>
    3d3c:	21 e0       	ldi	r18, 0x01	; 1
    3d3e:	47 e0       	ldi	r20, 0x07	; 7
    3d40:	50 e0       	ldi	r21, 0x00	; 0
    3d42:	65 e0       	ldi	r22, 0x05	; 5
    3d44:	70 e0       	ldi	r23, 0x00	; 0
    3d46:	8f e8       	ldi	r24, 0x8F	; 143
    3d48:	95 e2       	ldi	r25, 0x25	; 37
    3d4a:	0e 94 a3 15 	call	0x2b46	; 0x2b46 <DW1000_setBit>
    3d4e:	25 e0       	ldi	r18, 0x05	; 5
    3d50:	30 e0       	ldi	r19, 0x00	; 0
    3d52:	4f e8       	ldi	r20, 0x8F	; 143
    3d54:	55 e2       	ldi	r21, 0x25	; 37
    3d56:	6f ef       	ldi	r22, 0xFF	; 255
    3d58:	70 e0       	ldi	r23, 0x00	; 0
    3d5a:	8f e0       	ldi	r24, 0x0F	; 15
    3d5c:	0c 94 1e 16 	jmp	0x2c3c	; 0x2c3c <DW1000_writeBytes>
    3d60:	08 95       	ret

00003d62 <DW1000_newTransmit>:
    3d62:	0e 94 9c 16 	call	0x2d38	; 0x2d38 <DW1000_idle>
    3d66:	10 92 8b 25 	sts	0x258B, r1
    3d6a:	10 92 8c 25 	sts	0x258C, r1
    3d6e:	10 92 8d 25 	sts	0x258D, r1
    3d72:	10 92 8e 25 	sts	0x258E, r1
    3d76:	c7 df       	rcall	.-114    	; 0x3d06 <DW1000_clearTransmitStatus>
    3d78:	82 e0       	ldi	r24, 0x02	; 2
    3d7a:	80 93 af 25 	sts	0x25AF, r24
    3d7e:	08 95       	ret

00003d80 <DW1000_startReceive>:
    3d80:	21 e0       	ldi	r18, 0x01	; 1
    3d82:	80 91 aa 25 	lds	r24, 0x25AA
    3d86:	81 11       	cpse	r24, r1
    3d88:	20 e0       	ldi	r18, 0x00	; 0
    3d8a:	40 e0       	ldi	r20, 0x00	; 0
    3d8c:	50 e0       	ldi	r21, 0x00	; 0
    3d8e:	64 e0       	ldi	r22, 0x04	; 4
    3d90:	70 e0       	ldi	r23, 0x00	; 0
    3d92:	8b e8       	ldi	r24, 0x8B	; 139
    3d94:	95 e2       	ldi	r25, 0x25	; 37
    3d96:	0e 94 a3 15 	call	0x2b46	; 0x2b46 <DW1000_setBit>
    3d9a:	21 e0       	ldi	r18, 0x01	; 1
    3d9c:	48 e0       	ldi	r20, 0x08	; 8
    3d9e:	50 e0       	ldi	r21, 0x00	; 0
    3da0:	64 e0       	ldi	r22, 0x04	; 4
    3da2:	70 e0       	ldi	r23, 0x00	; 0
    3da4:	8b e8       	ldi	r24, 0x8B	; 139
    3da6:	95 e2       	ldi	r25, 0x25	; 37
    3da8:	0e 94 a3 15 	call	0x2b46	; 0x2b46 <DW1000_setBit>
    3dac:	24 e0       	ldi	r18, 0x04	; 4
    3dae:	30 e0       	ldi	r19, 0x00	; 0
    3db0:	4b e8       	ldi	r20, 0x8B	; 139
    3db2:	55 e2       	ldi	r21, 0x25	; 37
    3db4:	6f ef       	ldi	r22, 0xFF	; 255
    3db6:	70 e0       	ldi	r23, 0x00	; 0
    3db8:	8d e0       	ldi	r24, 0x0D	; 13
    3dba:	0c 94 1e 16 	jmp	0x2c3c	; 0x2c3c <DW1000_writeBytes>
    3dbe:	08 95       	ret

00003dc0 <DW1000_startTransmit>:
    3dc0:	57 d8       	rcall	.-3922   	; 0x2e70 <DW1000_writeTransmitFrameControlRegister>
    3dc2:	21 e0       	ldi	r18, 0x01	; 1
    3dc4:	80 91 aa 25 	lds	r24, 0x25AA
    3dc8:	81 11       	cpse	r24, r1
    3dca:	20 e0       	ldi	r18, 0x00	; 0
    3dcc:	40 e0       	ldi	r20, 0x00	; 0
    3dce:	50 e0       	ldi	r21, 0x00	; 0
    3dd0:	64 e0       	ldi	r22, 0x04	; 4
    3dd2:	70 e0       	ldi	r23, 0x00	; 0
    3dd4:	8b e8       	ldi	r24, 0x8B	; 139
    3dd6:	95 e2       	ldi	r25, 0x25	; 37
    3dd8:	0e 94 a3 15 	call	0x2b46	; 0x2b46 <DW1000_setBit>
    3ddc:	21 e0       	ldi	r18, 0x01	; 1
    3dde:	41 e0       	ldi	r20, 0x01	; 1
    3de0:	50 e0       	ldi	r21, 0x00	; 0
    3de2:	64 e0       	ldi	r22, 0x04	; 4
    3de4:	70 e0       	ldi	r23, 0x00	; 0
    3de6:	8b e8       	ldi	r24, 0x8B	; 139
    3de8:	95 e2       	ldi	r25, 0x25	; 37
    3dea:	0e 94 a3 15 	call	0x2b46	; 0x2b46 <DW1000_setBit>
    3dee:	24 e0       	ldi	r18, 0x04	; 4
    3df0:	30 e0       	ldi	r19, 0x00	; 0
    3df2:	4b e8       	ldi	r20, 0x8B	; 139
    3df4:	55 e2       	ldi	r21, 0x25	; 37
    3df6:	6f ef       	ldi	r22, 0xFF	; 255
    3df8:	70 e0       	ldi	r23, 0x00	; 0
    3dfa:	8d e0       	ldi	r24, 0x0D	; 13
    3dfc:	0e 94 1e 16 	call	0x2c3c	; 0x2c3c <DW1000_writeBytes>
    3e00:	80 91 a9 25 	lds	r24, 0x25A9
    3e04:	88 23       	and	r24, r24
    3e06:	69 f0       	breq	.+26     	; 0x3e22 <DW1000_startTransmit+0x62>
    3e08:	10 92 8b 25 	sts	0x258B, r1
    3e0c:	10 92 8c 25 	sts	0x258C, r1
    3e10:	10 92 8d 25 	sts	0x258D, r1
    3e14:	10 92 8e 25 	sts	0x258E, r1
    3e18:	81 e0       	ldi	r24, 0x01	; 1
    3e1a:	80 93 af 25 	sts	0x25AF, r24
    3e1e:	b0 cf       	rjmp	.-160    	; 0x3d80 <DW1000_startReceive>
    3e20:	08 95       	ret
    3e22:	10 92 af 25 	sts	0x25AF, r1
    3e26:	08 95       	ret

00003e28 <DW1000_setData>:
    3e28:	cf 93       	push	r28
    3e2a:	df 93       	push	r29
    3e2c:	eb 01       	movw	r28, r22
    3e2e:	20 91 aa 25 	lds	r18, 0x25AA
    3e32:	21 11       	cpse	r18, r1
    3e34:	22 96       	adiw	r28, 0x02	; 2
    3e36:	c1 15       	cp	r28, r1
    3e38:	24 e0       	ldi	r18, 0x04	; 4
    3e3a:	d2 07       	cpc	r29, r18
    3e3c:	c0 f4       	brcc	.+48     	; 0x3e6e <DW1000_setData+0x46>
    3e3e:	c0 38       	cpi	r28, 0x80	; 128
    3e40:	d1 05       	cpc	r29, r1
    3e42:	20 f0       	brcs	.+8      	; 0x3e4c <DW1000_setData+0x24>
    3e44:	20 91 a2 25 	lds	r18, 0x25A2
    3e48:	22 23       	and	r18, r18
    3e4a:	89 f0       	breq	.+34     	; 0x3e6e <DW1000_setData+0x46>
    3e4c:	9e 01       	movw	r18, r28
    3e4e:	ac 01       	movw	r20, r24
    3e50:	6f ef       	ldi	r22, 0xFF	; 255
    3e52:	70 e0       	ldi	r23, 0x00	; 0
    3e54:	89 e0       	ldi	r24, 0x09	; 9
    3e56:	0e 94 1e 16 	call	0x2c3c	; 0x2c3c <DW1000_writeBytes>
    3e5a:	c0 93 94 25 	sts	0x2594, r28
    3e5e:	e5 e9       	ldi	r30, 0x95	; 149
    3e60:	f5 e2       	ldi	r31, 0x25	; 37
    3e62:	9d 2f       	mov	r25, r29
    3e64:	93 70       	andi	r25, 0x03	; 3
    3e66:	80 81       	ld	r24, Z
    3e68:	80 7e       	andi	r24, 0xE0	; 224
    3e6a:	89 2b       	or	r24, r25
    3e6c:	80 83       	st	Z, r24
    3e6e:	df 91       	pop	r29
    3e70:	cf 91       	pop	r28
    3e72:	08 95       	ret

00003e74 <DW1000_getPrintableDeviceIdentifier>:
    3e74:	0f 93       	push	r16
    3e76:	1f 93       	push	r17
    3e78:	cf 93       	push	r28
    3e7a:	df 93       	push	r29
    3e7c:	00 d0       	rcall	.+0      	; 0x3e7e <DW1000_getPrintableDeviceIdentifier+0xa>
    3e7e:	00 d0       	rcall	.+0      	; 0x3e80 <DW1000_getPrintableDeviceIdentifier+0xc>
    3e80:	cd b7       	in	r28, 0x3d	; 61
    3e82:	de b7       	in	r29, 0x3e	; 62
    3e84:	18 2f       	mov	r17, r24
    3e86:	09 2f       	mov	r16, r25
    3e88:	24 e0       	ldi	r18, 0x04	; 4
    3e8a:	30 e0       	ldi	r19, 0x00	; 0
    3e8c:	ae 01       	movw	r20, r28
    3e8e:	4f 5f       	subi	r20, 0xFF	; 255
    3e90:	5f 4f       	sbci	r21, 0xFF	; 255
    3e92:	6f ef       	ldi	r22, 0xFF	; 255
    3e94:	70 e0       	ldi	r23, 0x00	; 0
    3e96:	80 e0       	ldi	r24, 0x00	; 0
    3e98:	0e 94 cd 15 	call	0x2b9a	; 0x2b9a <DW1000_readBytes>
    3e9c:	29 81       	ldd	r18, Y+1	; 0x01
    3e9e:	82 2f       	mov	r24, r18
    3ea0:	8f 70       	andi	r24, 0x0F	; 15
    3ea2:	1f 92       	push	r1
    3ea4:	8f 93       	push	r24
    3ea6:	22 95       	swap	r18
    3ea8:	2f 70       	andi	r18, 0x0F	; 15
    3eaa:	1f 92       	push	r1
    3eac:	2f 93       	push	r18
    3eae:	8a 81       	ldd	r24, Y+2	; 0x02
    3eb0:	1f 92       	push	r1
    3eb2:	8f 93       	push	r24
    3eb4:	2c 81       	ldd	r18, Y+4	; 0x04
    3eb6:	30 e0       	ldi	r19, 0x00	; 0
    3eb8:	32 2f       	mov	r19, r18
    3eba:	22 27       	eor	r18, r18
    3ebc:	8b 81       	ldd	r24, Y+3	; 0x03
    3ebe:	28 2b       	or	r18, r24
    3ec0:	3f 93       	push	r19
    3ec2:	2f 93       	push	r18
    3ec4:	25 e8       	ldi	r18, 0x85	; 133
    3ec6:	31 e2       	ldi	r19, 0x21	; 33
    3ec8:	3f 93       	push	r19
    3eca:	2f 93       	push	r18
    3ecc:	0f 93       	push	r16
    3ece:	1f 93       	push	r17
    3ed0:	1b d2       	rcall	.+1078   	; 0x4308 <sprintf>
    3ed2:	cd bf       	out	0x3d, r28	; 61
    3ed4:	de bf       	out	0x3e, r29	; 62
    3ed6:	24 96       	adiw	r28, 0x04	; 4
    3ed8:	cd bf       	out	0x3d, r28	; 61
    3eda:	de bf       	out	0x3e, r29	; 62
    3edc:	df 91       	pop	r29
    3ede:	cf 91       	pop	r28
    3ee0:	1f 91       	pop	r17
    3ee2:	0f 91       	pop	r16
    3ee4:	08 95       	ret

00003ee6 <DW1000_getPrintableExtendedUniqueIdentifier>:
    3ee6:	0f 93       	push	r16
    3ee8:	1f 93       	push	r17
    3eea:	cf 93       	push	r28
    3eec:	df 93       	push	r29
    3eee:	cd b7       	in	r28, 0x3d	; 61
    3ef0:	de b7       	in	r29, 0x3e	; 62
    3ef2:	28 97       	sbiw	r28, 0x08	; 8
    3ef4:	cd bf       	out	0x3d, r28	; 61
    3ef6:	de bf       	out	0x3e, r29	; 62
    3ef8:	18 2f       	mov	r17, r24
    3efa:	09 2f       	mov	r16, r25
    3efc:	28 e0       	ldi	r18, 0x08	; 8
    3efe:	30 e0       	ldi	r19, 0x00	; 0
    3f00:	ae 01       	movw	r20, r28
    3f02:	4f 5f       	subi	r20, 0xFF	; 255
    3f04:	5f 4f       	sbci	r21, 0xFF	; 255
    3f06:	6f ef       	ldi	r22, 0xFF	; 255
    3f08:	70 e0       	ldi	r23, 0x00	; 0
    3f0a:	81 e0       	ldi	r24, 0x01	; 1
    3f0c:	0e 94 cd 15 	call	0x2b9a	; 0x2b9a <DW1000_readBytes>
    3f10:	89 81       	ldd	r24, Y+1	; 0x01
    3f12:	1f 92       	push	r1
    3f14:	8f 93       	push	r24
    3f16:	8a 81       	ldd	r24, Y+2	; 0x02
    3f18:	1f 92       	push	r1
    3f1a:	8f 93       	push	r24
    3f1c:	8b 81       	ldd	r24, Y+3	; 0x03
    3f1e:	1f 92       	push	r1
    3f20:	8f 93       	push	r24
    3f22:	8c 81       	ldd	r24, Y+4	; 0x04
    3f24:	1f 92       	push	r1
    3f26:	8f 93       	push	r24
    3f28:	8d 81       	ldd	r24, Y+5	; 0x05
    3f2a:	1f 92       	push	r1
    3f2c:	8f 93       	push	r24
    3f2e:	8e 81       	ldd	r24, Y+6	; 0x06
    3f30:	1f 92       	push	r1
    3f32:	8f 93       	push	r24
    3f34:	8f 81       	ldd	r24, Y+7	; 0x07
    3f36:	1f 92       	push	r1
    3f38:	8f 93       	push	r24
    3f3a:	88 85       	ldd	r24, Y+8	; 0x08
    3f3c:	1f 92       	push	r1
    3f3e:	8f 93       	push	r24
    3f40:	21 eb       	ldi	r18, 0xB1	; 177
    3f42:	31 e2       	ldi	r19, 0x21	; 33
    3f44:	3f 93       	push	r19
    3f46:	2f 93       	push	r18
    3f48:	0f 93       	push	r16
    3f4a:	1f 93       	push	r17
    3f4c:	dd d1       	rcall	.+954    	; 0x4308 <sprintf>
    3f4e:	cd bf       	out	0x3d, r28	; 61
    3f50:	de bf       	out	0x3e, r29	; 62
    3f52:	28 96       	adiw	r28, 0x08	; 8
    3f54:	cd bf       	out	0x3d, r28	; 61
    3f56:	de bf       	out	0x3e, r29	; 62
    3f58:	df 91       	pop	r29
    3f5a:	cf 91       	pop	r28
    3f5c:	1f 91       	pop	r17
    3f5e:	0f 91       	pop	r16
    3f60:	08 95       	ret

00003f62 <DW1000_getPrintableNetworkIdAndShortAddress>:
    3f62:	0f 93       	push	r16
    3f64:	1f 93       	push	r17
    3f66:	cf 93       	push	r28
    3f68:	df 93       	push	r29
    3f6a:	00 d0       	rcall	.+0      	; 0x3f6c <DW1000_getPrintableNetworkIdAndShortAddress+0xa>
    3f6c:	00 d0       	rcall	.+0      	; 0x3f6e <DW1000_getPrintableNetworkIdAndShortAddress+0xc>
    3f6e:	cd b7       	in	r28, 0x3d	; 61
    3f70:	de b7       	in	r29, 0x3e	; 62
    3f72:	18 2f       	mov	r17, r24
    3f74:	09 2f       	mov	r16, r25
    3f76:	24 e0       	ldi	r18, 0x04	; 4
    3f78:	30 e0       	ldi	r19, 0x00	; 0
    3f7a:	ae 01       	movw	r20, r28
    3f7c:	4f 5f       	subi	r20, 0xFF	; 255
    3f7e:	5f 4f       	sbci	r21, 0xFF	; 255
    3f80:	6f ef       	ldi	r22, 0xFF	; 255
    3f82:	70 e0       	ldi	r23, 0x00	; 0
    3f84:	83 e0       	ldi	r24, 0x03	; 3
    3f86:	0e 94 cd 15 	call	0x2b9a	; 0x2b9a <DW1000_readBytes>
    3f8a:	2a 81       	ldd	r18, Y+2	; 0x02
    3f8c:	30 e0       	ldi	r19, 0x00	; 0
    3f8e:	32 2f       	mov	r19, r18
    3f90:	22 27       	eor	r18, r18
    3f92:	89 81       	ldd	r24, Y+1	; 0x01
    3f94:	28 2b       	or	r18, r24
    3f96:	3f 93       	push	r19
    3f98:	2f 93       	push	r18
    3f9a:	2c 81       	ldd	r18, Y+4	; 0x04
    3f9c:	30 e0       	ldi	r19, 0x00	; 0
    3f9e:	32 2f       	mov	r19, r18
    3fa0:	22 27       	eor	r18, r18
    3fa2:	8b 81       	ldd	r24, Y+3	; 0x03
    3fa4:	28 2b       	or	r18, r24
    3fa6:	3f 93       	push	r19
    3fa8:	2f 93       	push	r18
    3faa:	29 ed       	ldi	r18, 0xD9	; 217
    3fac:	31 e2       	ldi	r19, 0x21	; 33
    3fae:	3f 93       	push	r19
    3fb0:	2f 93       	push	r18
    3fb2:	0f 93       	push	r16
    3fb4:	1f 93       	push	r17
    3fb6:	a8 d1       	rcall	.+848    	; 0x4308 <sprintf>
    3fb8:	cd bf       	out	0x3d, r28	; 61
    3fba:	de bf       	out	0x3e, r29	; 62
    3fbc:	24 96       	adiw	r28, 0x04	; 4
    3fbe:	cd bf       	out	0x3d, r28	; 61
    3fc0:	de bf       	out	0x3e, r29	; 62
    3fc2:	df 91       	pop	r29
    3fc4:	cf 91       	pop	r28
    3fc6:	1f 91       	pop	r17
    3fc8:	0f 91       	pop	r16
    3fca:	08 95       	ret

00003fcc <DW1000_getPrintableDeviceMode>:
    3fcc:	20 91 a6 25 	lds	r18, 0x25A6
    3fd0:	21 30       	cpi	r18, 0x01	; 1
    3fd2:	21 f0       	breq	.+8      	; 0x3fdc <DW1000_getPrintableDeviceMode+0x10>
    3fd4:	22 30       	cpi	r18, 0x02	; 2
    3fd6:	21 f4       	brne	.+8      	; 0x3fe0 <DW1000_getPrintableDeviceMode+0x14>
    3fd8:	50 e4       	ldi	r21, 0x40	; 64
    3fda:	03 c0       	rjmp	.+6      	; 0x3fe2 <DW1000_getPrintableDeviceMode+0x16>
    3fdc:	50 e1       	ldi	r21, 0x10	; 16
    3fde:	01 c0       	rjmp	.+2      	; 0x3fe2 <DW1000_getPrintableDeviceMode+0x16>
    3fe0:	50 e0       	ldi	r21, 0x00	; 0
    3fe2:	20 91 a5 25 	lds	r18, 0x25A5
    3fe6:	21 30       	cpi	r18, 0x01	; 1
    3fe8:	89 f0       	breq	.+34     	; 0x400c <DW1000_getPrintableDeviceMode+0x40>
    3fea:	25 30       	cpi	r18, 0x05	; 5
    3fec:	91 f0       	breq	.+36     	; 0x4012 <DW1000_getPrintableDeviceMode+0x46>
    3fee:	29 30       	cpi	r18, 0x09	; 9
    3ff0:	99 f0       	breq	.+38     	; 0x4018 <DW1000_getPrintableDeviceMode+0x4c>
    3ff2:	2d 30       	cpi	r18, 0x0D	; 13
    3ff4:	a1 f0       	breq	.+40     	; 0x401e <DW1000_getPrintableDeviceMode+0x52>
    3ff6:	22 30       	cpi	r18, 0x02	; 2
    3ff8:	a9 f0       	breq	.+42     	; 0x4024 <DW1000_getPrintableDeviceMode+0x58>
    3ffa:	26 30       	cpi	r18, 0x06	; 6
    3ffc:	b1 f0       	breq	.+44     	; 0x402a <DW1000_getPrintableDeviceMode+0x5e>
    3ffe:	2a 30       	cpi	r18, 0x0A	; 10
    4000:	b9 f0       	breq	.+46     	; 0x4030 <DW1000_getPrintableDeviceMode+0x64>
    4002:	23 30       	cpi	r18, 0x03	; 3
    4004:	c1 f4       	brne	.+48     	; 0x4036 <DW1000_getPrintableDeviceMode+0x6a>
    4006:	60 e0       	ldi	r22, 0x00	; 0
    4008:	70 e1       	ldi	r23, 0x10	; 16
    400a:	17 c0       	rjmp	.+46     	; 0x403a <DW1000_getPrintableDeviceMode+0x6e>
    400c:	60 e4       	ldi	r22, 0x40	; 64
    400e:	70 e0       	ldi	r23, 0x00	; 0
    4010:	14 c0       	rjmp	.+40     	; 0x403a <DW1000_getPrintableDeviceMode+0x6e>
    4012:	60 e8       	ldi	r22, 0x80	; 128
    4014:	70 e0       	ldi	r23, 0x00	; 0
    4016:	11 c0       	rjmp	.+34     	; 0x403a <DW1000_getPrintableDeviceMode+0x6e>
    4018:	60 e0       	ldi	r22, 0x00	; 0
    401a:	71 e0       	ldi	r23, 0x01	; 1
    401c:	0e c0       	rjmp	.+28     	; 0x403a <DW1000_getPrintableDeviceMode+0x6e>
    401e:	60 e0       	ldi	r22, 0x00	; 0
    4020:	72 e0       	ldi	r23, 0x02	; 2
    4022:	0b c0       	rjmp	.+22     	; 0x403a <DW1000_getPrintableDeviceMode+0x6e>
    4024:	60 e0       	ldi	r22, 0x00	; 0
    4026:	74 e0       	ldi	r23, 0x04	; 4
    4028:	08 c0       	rjmp	.+16     	; 0x403a <DW1000_getPrintableDeviceMode+0x6e>
    402a:	60 e0       	ldi	r22, 0x00	; 0
    402c:	76 e0       	ldi	r23, 0x06	; 6
    402e:	05 c0       	rjmp	.+10     	; 0x403a <DW1000_getPrintableDeviceMode+0x6e>
    4030:	60 e0       	ldi	r22, 0x00	; 0
    4032:	78 e0       	ldi	r23, 0x08	; 8
    4034:	02 c0       	rjmp	.+4      	; 0x403a <DW1000_getPrintableDeviceMode+0x6e>
    4036:	60 e0       	ldi	r22, 0x00	; 0
    4038:	70 e0       	ldi	r23, 0x00	; 0
    403a:	20 91 a7 25 	lds	r18, 0x25A7
    403e:	22 23       	and	r18, r18
    4040:	39 f0       	breq	.+14     	; 0x4050 <DW1000_getPrintableDeviceMode+0x84>
    4042:	21 30       	cpi	r18, 0x01	; 1
    4044:	41 f0       	breq	.+16     	; 0x4056 <DW1000_getPrintableDeviceMode+0x8a>
    4046:	22 30       	cpi	r18, 0x02	; 2
    4048:	49 f4       	brne	.+18     	; 0x405c <DW1000_getPrintableDeviceMode+0x90>
    404a:	30 e9       	ldi	r19, 0x90	; 144
    404c:	4a e1       	ldi	r20, 0x1A	; 26
    404e:	08 c0       	rjmp	.+16     	; 0x4060 <DW1000_getPrintableDeviceMode+0x94>
    4050:	3e e6       	ldi	r19, 0x6E	; 110
    4052:	40 e0       	ldi	r20, 0x00	; 0
    4054:	05 c0       	rjmp	.+10     	; 0x4060 <DW1000_getPrintableDeviceMode+0x94>
    4056:	32 e5       	ldi	r19, 0x52	; 82
    4058:	43 e0       	ldi	r20, 0x03	; 3
    405a:	02 c0       	rjmp	.+4      	; 0x4060 <DW1000_getPrintableDeviceMode+0x94>
    405c:	30 e0       	ldi	r19, 0x00	; 0
    405e:	40 e0       	ldi	r20, 0x00	; 0
    4060:	20 91 a4 25 	lds	r18, 0x25A4
    4064:	1f 92       	push	r1
    4066:	2f 93       	push	r18
    4068:	20 91 a3 25 	lds	r18, 0x25A3
    406c:	1f 92       	push	r1
    406e:	2f 93       	push	r18
    4070:	7f 93       	push	r23
    4072:	6f 93       	push	r22
    4074:	1f 92       	push	r1
    4076:	5f 93       	push	r21
    4078:	4f 93       	push	r20
    407a:	3f 93       	push	r19
    407c:	28 ef       	ldi	r18, 0xF8	; 248
    407e:	31 e2       	ldi	r19, 0x21	; 33
    4080:	3f 93       	push	r19
    4082:	2f 93       	push	r18
    4084:	9f 93       	push	r25
    4086:	8f 93       	push	r24
    4088:	3f d1       	rcall	.+638    	; 0x4308 <sprintf>
    408a:	8d b7       	in	r24, 0x3d	; 61
    408c:	9e b7       	in	r25, 0x3e	; 62
    408e:	0e 96       	adiw	r24, 0x0e	; 14
    4090:	8d bf       	out	0x3d, r24	; 61
    4092:	9e bf       	out	0x3e, r25	; 62
    4094:	08 95       	ret

00004096 <main>:
	
}

int main (void)
{
    4096:	cf 93       	push	r28
    4098:	df 93       	push	r29
    409a:	cd b7       	in	r28, 0x3d	; 61
    409c:	de b7       	in	r29, 0x3e	; 62
    409e:	c8 54       	subi	r28, 0x48	; 72
    40a0:	d1 40       	sbci	r29, 0x01	; 1
    40a2:	cd bf       	out	0x3d, r28	; 61
    40a4:	de bf       	out	0x3e, r29	; 62
	init_onepos();
    40a6:	0e 94 cf 12 	call	0x259e	; 0x259e <init_onepos>
	spi_init_module();
    40aa:	0e 94 7c 15 	call	0x2af8	; 0x2af8 <spi_init_module>
		.baudrate = USART_SERIAL_BAUDRATE,
		.charlength = USART_SERIAL_CHAR_LENGTH,
		.paritytype = USART_SERIAL_PARITY,
		.stopbits = USART_SERIAL_STOP_BIT
	};
	usart_serial_init(USART_BLE, &BLE_SERIAL_OPTIONS);
    40ae:	6d ea       	ldi	r22, 0xAD	; 173
    40b0:	70 e2       	ldi	r23, 0x20	; 32
    40b2:	80 ea       	ldi	r24, 0xA0	; 160
    40b4:	99 e0       	ldi	r25, 0x09	; 9
    40b6:	0e 94 27 15 	call	0x2a4e	; 0x2a4e <usart_serial_init>
		.baudrate = USART_SERIAL_BAUDRATE,
		.charlength = USART_SERIAL_CHAR_LENGTH,
		.paritytype = USART_SERIAL_PARITY,
		.stopbits = USART_SERIAL_STOP_BIT
	};
	usart_serial_init(USART_RS485, &RS485_SERIAL_OPTIONS);
    40ba:	66 ea       	ldi	r22, 0xA6	; 166
    40bc:	70 e2       	ldi	r23, 0x20	; 32
    40be:	80 ea       	ldi	r24, 0xA0	; 160
    40c0:	9a e0       	ldi	r25, 0x0A	; 10
    40c2:	0e 94 27 15 	call	0x2a4e	; 0x2a4e <usart_serial_init>
	
	
	
	
	init_animation();
    40c6:	0e 94 0c 13 	call	0x2618	; 0x2618 <init_animation>
	
	
	// DEBUG monitoring
	printf("### DW1000-arduino-sender-test ###\n");
    40ca:	87 e4       	ldi	r24, 0x47	; 71
    40cc:	92 e2       	ldi	r25, 0x22	; 34
    40ce:	ef d0       	rcall	.+478    	; 0x42ae <puts>
	// initialize the driver
	printf("DW1000 initialized ...\n");
    40d0:	8a e6       	ldi	r24, 0x6A	; 106
    40d2:	92 e2       	ldi	r25, 0x22	; 34
    40d4:	ec d0       	rcall	.+472    	; 0x42ae <puts>
	// general configuration
	DW1000_newConfiguration();
    40d6:	c4 dd       	rcall	.-1144   	; 0x3c60 <DW1000_newConfiguration>
	DW1000_setDefaults();
    40d8:	fa dd       	rcall	.-1036   	; 0x3cce <DW1000_setDefaults>
	DWM1000_str.networkAndAddress[2] = (uint8_t)(val & 0xFF);
	DWM1000_str.networkAndAddress[3] = (uint8_t)((val >> 8) & 0xFF);
}

void DW1000_setDeviceAddress(uint16_t val) {
	DWM1000_str.networkAndAddress[0] = (uint8_t)(val & 0xFF);
    40da:	85 e0       	ldi	r24, 0x05	; 5
    40dc:	80 93 ab 25 	sts	0x25AB, r24
	DWM1000_str.networkAndAddress[1] = (uint8_t)((val >> 8) & 0xFF);
    40e0:	10 92 ac 25 	sts	0x25AC, r1
/* ###########################################################################
 * #### DW1000 operation functions ###########################################
 * ######################################################################### */

void DW1000_setNetworkId(uint16_t val) {
	DWM1000_str.networkAndAddress[2] = (uint8_t)(val & 0xFF);
    40e4:	8a e0       	ldi	r24, 0x0A	; 10
    40e6:	80 93 ad 25 	sts	0x25AD, r24
	DWM1000_str.networkAndAddress[3] = (uint8_t)((val >> 8) & 0xFF);
    40ea:	10 92 ae 25 	sts	0x25AE, r1
	// general configuration
	DW1000_newConfiguration();
	DW1000_setDefaults();
	DW1000_setDeviceAddress(5);
	DW1000_setNetworkId(10);
	DW1000_enableMode(MODE_LONGDATA_RANGE_LOWPOWER);
    40ee:	85 eb       	ldi	r24, 0xB5	; 181
    40f0:	90 e2       	ldi	r25, 0x20	; 32
    40f2:	29 d8       	rcall	.-4014   	; 0x3146 <DW1000_enableMode>
	DW1000_commitConfiguration();
    40f4:	bc dd       	rcall	.-1160   	; 0x3c6e <DW1000_commitConfiguration>
	printf("Committed configuration ...\n");
    40f6:	81 e8       	ldi	r24, 0x81	; 129
    40f8:	92 e2       	ldi	r25, 0x22	; 34
    40fa:	d9 d0       	rcall	.+434    	; 0x42ae <puts>
	
	// DEBUG chip info and registers pretty printed
	char msg[128];
	DW1000_getPrintableDeviceIdentifier(msg);
    40fc:	8e 01       	movw	r16, r28
    40fe:	0f 5f       	subi	r16, 0xFF	; 255
    4100:	1f 4f       	sbci	r17, 0xFF	; 255
    4102:	c8 01       	movw	r24, r16
    4104:	b7 de       	rcall	.-658    	; 0x3e74 <DW1000_getPrintableDeviceIdentifier>
	printf("Device ID: "); 
    4106:	8d e9       	ldi	r24, 0x9D	; 157
    4108:	92 e2       	ldi	r25, 0x22	; 34
    410a:	9f 93       	push	r25
    410c:	8f 93       	push	r24
    410e:	be d0       	rcall	.+380    	; 0x428c <printf>
	printf(msg);
    4110:	1f 93       	push	r17
    4112:	0f 93       	push	r16
    4114:	bb d0       	rcall	.+374    	; 0x428c <printf>
	DW1000_getPrintableExtendedUniqueIdentifier(msg);
    4116:	c8 01       	movw	r24, r16
    4118:	e6 de       	rcall	.-564    	; 0x3ee6 <DW1000_getPrintableExtendedUniqueIdentifier>
	printf("Unique ID: "); 
    411a:	89 ea       	ldi	r24, 0xA9	; 169
    411c:	92 e2       	ldi	r25, 0x22	; 34
    411e:	9f 93       	push	r25
    4120:	8f 93       	push	r24
    4122:	b4 d0       	rcall	.+360    	; 0x428c <printf>
	printf(msg);
    4124:	1f 93       	push	r17
    4126:	0f 93       	push	r16
    4128:	b1 d0       	rcall	.+354    	; 0x428c <printf>
	DW1000_getPrintableNetworkIdAndShortAddress(msg);
    412a:	c8 01       	movw	r24, r16
    412c:	1a df       	rcall	.-460    	; 0x3f62 <DW1000_getPrintableNetworkIdAndShortAddress>
	printf("Network ID & Device Address: "); 
    412e:	85 eb       	ldi	r24, 0xB5	; 181
    4130:	92 e2       	ldi	r25, 0x22	; 34
    4132:	9f 93       	push	r25
    4134:	8f 93       	push	r24
    4136:	aa d0       	rcall	.+340    	; 0x428c <printf>
	printf(msg);
    4138:	1f 93       	push	r17
    413a:	0f 93       	push	r16
    413c:	a7 d0       	rcall	.+334    	; 0x428c <printf>
	DW1000_getPrintableDeviceMode(msg);
    413e:	c8 01       	movw	r24, r16
    4140:	45 df       	rcall	.-374    	; 0x3fcc <DW1000_getPrintableDeviceMode>
	printf("Device mode: "); 
    4142:	83 ed       	ldi	r24, 0xD3	; 211
    4144:	92 e2       	ldi	r25, 0x22	; 34
    4146:	9f 93       	push	r25
    4148:	8f 93       	push	r24
    414a:	a0 d0       	rcall	.+320    	; 0x428c <printf>
	printf(msg);
    414c:	1f 93       	push	r17
    414e:	0f 93       	push	r16
    4150:	9d d0       	rcall	.+314    	; 0x428c <printf>
    4152:	cd bf       	out	0x3d, r28	; 61
    4154:	de bf       	out	0x3e, r29	; 62
	
	uint8_t sentNum = 0;
	for (;;)
	{
		// transmit some data
		printf("Transmitting packet ... #"); 
    4156:	0f 2e       	mov	r0, r31
    4158:	f1 ee       	ldi	r31, 0xE1	; 225
    415a:	ef 2e       	mov	r14, r31
    415c:	f2 e2       	ldi	r31, 0x22	; 34
    415e:	ff 2e       	mov	r15, r31
    4160:	f0 2d       	mov	r31, r0
		printf("%d\n",sentNum);
    4162:	0b ef       	ldi	r16, 0xFB	; 251
    4164:	12 e2       	ldi	r17, 0x22	; 34
		DW1000_newTransmit();
		DW1000_setDefaults();
		char msg[200] = "Hello DW1000, it's #";
    4166:	0f 2e       	mov	r0, r31
    4168:	f5 e1       	ldi	r31, 0x15	; 21
    416a:	6f 2e       	mov	r6, r31
    416c:	f0 2d       	mov	r31, r0
    416e:	0f 2e       	mov	r0, r31
    4170:	f3 eb       	ldi	r31, 0xB3	; 179
    4172:	7f 2e       	mov	r7, r31
    4174:	f0 2d       	mov	r31, r0
    4176:	0f 2e       	mov	r0, r31
    4178:	f1 e8       	ldi	r31, 0x81	; 129
    417a:	cf 2e       	mov	r12, r31
    417c:	d1 2c       	mov	r13, r1
    417e:	f0 2d       	mov	r31, r0
    4180:	cc 0e       	add	r12, r28
    4182:	dd 1e       	adc	r13, r29
    4184:	95 e1       	ldi	r25, 0x15	; 21
    4186:	c9 0e       	add	r12, r25
    4188:	d1 1c       	adc	r13, r1
		DW1000_setData(msg,20);
		// delay sending the message for the given amount
		//DW1000Time deltaTime = DW1000Time(10, DW1000Time::MILLISECONDS);
		//DW1000.setDelay(deltaTime);
		DW1000_startTransmit();
    418a:	81 2c       	mov	r8, r1
    418c:	0f 2e       	mov	r0, r31
    418e:	f9 e0       	ldi	r31, 0x09	; 9
    4190:	9f 2e       	mov	r9, r31
    4192:	f0 2d       	mov	r31, r0
    4194:	0f 2e       	mov	r0, r31
    4196:	fd e3       	ldi	r31, 0x3D	; 61
    4198:	af 2e       	mov	r10, r31
    419a:	f0 2d       	mov	r31, r0
    419c:	b1 2c       	mov	r11, r1
	
	uint8_t sentNum = 0;
	for (;;)
	{
		// transmit some data
		printf("Transmitting packet ... #"); 
    419e:	ff 92       	push	r15
    41a0:	ef 92       	push	r14
    41a2:	74 d0       	rcall	.+232    	; 0x428c <printf>
		printf("%d\n",sentNum);
    41a4:	1f 92       	push	r1
    41a6:	1f 92       	push	r1
    41a8:	1f 93       	push	r17
    41aa:	0f 93       	push	r16
    41ac:	6f d0       	rcall	.+222    	; 0x428c <printf>
		DW1000_newTransmit();
    41ae:	d9 dd       	rcall	.-1102   	; 0x3d62 <DW1000_newTransmit>
		DW1000_setDefaults();
    41b0:	8e dd       	rcall	.-1252   	; 0x3cce <DW1000_setDefaults>
		char msg[200] = "Hello DW1000, it's #";
    41b2:	e8 eb       	ldi	r30, 0xB8	; 184
    41b4:	f0 e2       	ldi	r31, 0x20	; 32
    41b6:	de 01       	movw	r26, r28
    41b8:	af 57       	subi	r26, 0x7F	; 127
    41ba:	bf 4f       	sbci	r27, 0xFF	; 255
    41bc:	86 2d       	mov	r24, r6
    41be:	01 90       	ld	r0, Z+
    41c0:	0d 92       	st	X+, r0
    41c2:	8a 95       	dec	r24
    41c4:	e1 f7       	brne	.-8      	; 0x41be <main+0x128>
    41c6:	f6 01       	movw	r30, r12
    41c8:	87 2d       	mov	r24, r7
    41ca:	11 92       	st	Z+, r1
    41cc:	8a 95       	dec	r24
    41ce:	e9 f7       	brne	.-6      	; 0x41ca <main+0x134>
		DW1000_setData(msg,20);
    41d0:	64 e1       	ldi	r22, 0x14	; 20
    41d2:	70 e0       	ldi	r23, 0x00	; 0
    41d4:	ce 01       	movw	r24, r28
    41d6:	8f 57       	subi	r24, 0x7F	; 127
    41d8:	9f 4f       	sbci	r25, 0xFF	; 255
    41da:	26 de       	rcall	.-948    	; 0x3e28 <DW1000_setData>
		// delay sending the message for the given amount
		//DW1000Time deltaTime = DW1000Time(10, DW1000Time::MILLISECONDS);
		//DW1000.setDelay(deltaTime);
		DW1000_startTransmit();
    41dc:	f1 dd       	rcall	.-1054   	; 0x3dc0 <DW1000_startTransmit>
    41de:	0f 90       	pop	r0
    41e0:	0f 90       	pop	r0
    41e2:	0f 90       	pop	r0
    41e4:	0f 90       	pop	r0
    41e6:	0f 90       	pop	r0
    41e8:	0f 90       	pop	r0
    41ea:	88 2d       	mov	r24, r8
    41ec:	99 2d       	mov	r25, r9
    41ee:	aa 2d       	mov	r26, r10
    41f0:	bb 2d       	mov	r27, r11
    41f2:	01 97       	sbiw	r24, 0x01	; 1
    41f4:	a1 09       	sbc	r26, r1
    41f6:	b1 09       	sbc	r27, r1
    41f8:	00 97       	sbiw	r24, 0x00	; 0
    41fa:	a1 05       	cpc	r26, r1
    41fc:	b1 05       	cpc	r27, r1
    41fe:	c9 f7       	brne	.-14     	; 0x41f2 <main+0x15c>
    4200:	ce cf       	rjmp	.-100    	; 0x419e <main+0x108>

00004202 <__udivmodhi4>:
    4202:	aa 1b       	sub	r26, r26
    4204:	bb 1b       	sub	r27, r27
    4206:	51 e1       	ldi	r21, 0x11	; 17
    4208:	07 c0       	rjmp	.+14     	; 0x4218 <__udivmodhi4_ep>

0000420a <__udivmodhi4_loop>:
    420a:	aa 1f       	adc	r26, r26
    420c:	bb 1f       	adc	r27, r27
    420e:	a6 17       	cp	r26, r22
    4210:	b7 07       	cpc	r27, r23
    4212:	10 f0       	brcs	.+4      	; 0x4218 <__udivmodhi4_ep>
    4214:	a6 1b       	sub	r26, r22
    4216:	b7 0b       	sbc	r27, r23

00004218 <__udivmodhi4_ep>:
    4218:	88 1f       	adc	r24, r24
    421a:	99 1f       	adc	r25, r25
    421c:	5a 95       	dec	r21
    421e:	a9 f7       	brne	.-22     	; 0x420a <__udivmodhi4_loop>
    4220:	80 95       	com	r24
    4222:	90 95       	com	r25
    4224:	bc 01       	movw	r22, r24
    4226:	cd 01       	movw	r24, r26
    4228:	08 95       	ret

0000422a <__udivmodsi4>:
    422a:	a1 e2       	ldi	r26, 0x21	; 33
    422c:	1a 2e       	mov	r1, r26
    422e:	aa 1b       	sub	r26, r26
    4230:	bb 1b       	sub	r27, r27
    4232:	fd 01       	movw	r30, r26
    4234:	0d c0       	rjmp	.+26     	; 0x4250 <__udivmodsi4_ep>

00004236 <__udivmodsi4_loop>:
    4236:	aa 1f       	adc	r26, r26
    4238:	bb 1f       	adc	r27, r27
    423a:	ee 1f       	adc	r30, r30
    423c:	ff 1f       	adc	r31, r31
    423e:	a2 17       	cp	r26, r18
    4240:	b3 07       	cpc	r27, r19
    4242:	e4 07       	cpc	r30, r20
    4244:	f5 07       	cpc	r31, r21
    4246:	20 f0       	brcs	.+8      	; 0x4250 <__udivmodsi4_ep>
    4248:	a2 1b       	sub	r26, r18
    424a:	b3 0b       	sbc	r27, r19
    424c:	e4 0b       	sbc	r30, r20
    424e:	f5 0b       	sbc	r31, r21

00004250 <__udivmodsi4_ep>:
    4250:	66 1f       	adc	r22, r22
    4252:	77 1f       	adc	r23, r23
    4254:	88 1f       	adc	r24, r24
    4256:	99 1f       	adc	r25, r25
    4258:	1a 94       	dec	r1
    425a:	69 f7       	brne	.-38     	; 0x4236 <__udivmodsi4_loop>
    425c:	60 95       	com	r22
    425e:	70 95       	com	r23
    4260:	80 95       	com	r24
    4262:	90 95       	com	r25
    4264:	9b 01       	movw	r18, r22
    4266:	ac 01       	movw	r20, r24
    4268:	bd 01       	movw	r22, r26
    426a:	cf 01       	movw	r24, r30
    426c:	08 95       	ret

0000426e <__tablejump2__>:
    426e:	ee 0f       	add	r30, r30
    4270:	ff 1f       	adc	r31, r31

00004272 <__tablejump__>:
    4272:	05 90       	lpm	r0, Z+
    4274:	f4 91       	lpm	r31, Z
    4276:	e0 2d       	mov	r30, r0
    4278:	09 94       	ijmp

0000427a <memcpy>:
    427a:	fb 01       	movw	r30, r22
    427c:	dc 01       	movw	r26, r24
    427e:	02 c0       	rjmp	.+4      	; 0x4284 <memcpy+0xa>
    4280:	01 90       	ld	r0, Z+
    4282:	0d 92       	st	X+, r0
    4284:	41 50       	subi	r20, 0x01	; 1
    4286:	50 40       	sbci	r21, 0x00	; 0
    4288:	d8 f7       	brcc	.-10     	; 0x4280 <memcpy+0x6>
    428a:	08 95       	ret

0000428c <printf>:
    428c:	a0 e0       	ldi	r26, 0x00	; 0
    428e:	b0 e0       	ldi	r27, 0x00	; 0
    4290:	eb e4       	ldi	r30, 0x4B	; 75
    4292:	f1 e2       	ldi	r31, 0x21	; 33
    4294:	d1 c2       	rjmp	.+1442   	; 0x4838 <__prologue_saves__+0x20>
    4296:	fe 01       	movw	r30, r28
    4298:	35 96       	adiw	r30, 0x05	; 5
    429a:	61 91       	ld	r22, Z+
    429c:	71 91       	ld	r23, Z+
    429e:	af 01       	movw	r20, r30
    42a0:	80 91 b2 25 	lds	r24, 0x25B2
    42a4:	90 91 b3 25 	lds	r25, 0x25B3
    42a8:	4e d0       	rcall	.+156    	; 0x4346 <vfprintf>
    42aa:	e2 e0       	ldi	r30, 0x02	; 2
    42ac:	de c2       	rjmp	.+1468   	; 0x486a <__epilogue_restores__+0x20>

000042ae <puts>:
    42ae:	0f 93       	push	r16
    42b0:	1f 93       	push	r17
    42b2:	cf 93       	push	r28
    42b4:	df 93       	push	r29
    42b6:	e0 91 b2 25 	lds	r30, 0x25B2
    42ba:	f0 91 b3 25 	lds	r31, 0x25B3
    42be:	23 81       	ldd	r18, Z+3	; 0x03
    42c0:	21 ff       	sbrs	r18, 1
    42c2:	1b c0       	rjmp	.+54     	; 0x42fa <puts+0x4c>
    42c4:	ec 01       	movw	r28, r24
    42c6:	00 e0       	ldi	r16, 0x00	; 0
    42c8:	10 e0       	ldi	r17, 0x00	; 0
    42ca:	89 91       	ld	r24, Y+
    42cc:	60 91 b2 25 	lds	r22, 0x25B2
    42d0:	70 91 b3 25 	lds	r23, 0x25B3
    42d4:	db 01       	movw	r26, r22
    42d6:	18 96       	adiw	r26, 0x08	; 8
    42d8:	ed 91       	ld	r30, X+
    42da:	fc 91       	ld	r31, X
    42dc:	19 97       	sbiw	r26, 0x09	; 9
    42de:	88 23       	and	r24, r24
    42e0:	31 f0       	breq	.+12     	; 0x42ee <puts+0x40>
    42e2:	09 95       	icall
    42e4:	89 2b       	or	r24, r25
    42e6:	89 f3       	breq	.-30     	; 0x42ca <puts+0x1c>
    42e8:	0f ef       	ldi	r16, 0xFF	; 255
    42ea:	1f ef       	ldi	r17, 0xFF	; 255
    42ec:	ee cf       	rjmp	.-36     	; 0x42ca <puts+0x1c>
    42ee:	8a e0       	ldi	r24, 0x0A	; 10
    42f0:	09 95       	icall
    42f2:	89 2b       	or	r24, r25
    42f4:	11 f4       	brne	.+4      	; 0x42fa <puts+0x4c>
    42f6:	c8 01       	movw	r24, r16
    42f8:	02 c0       	rjmp	.+4      	; 0x42fe <puts+0x50>
    42fa:	8f ef       	ldi	r24, 0xFF	; 255
    42fc:	9f ef       	ldi	r25, 0xFF	; 255
    42fe:	df 91       	pop	r29
    4300:	cf 91       	pop	r28
    4302:	1f 91       	pop	r17
    4304:	0f 91       	pop	r16
    4306:	08 95       	ret

00004308 <sprintf>:
    4308:	ae e0       	ldi	r26, 0x0E	; 14
    430a:	b0 e0       	ldi	r27, 0x00	; 0
    430c:	e9 e8       	ldi	r30, 0x89	; 137
    430e:	f1 e2       	ldi	r31, 0x21	; 33
    4310:	91 c2       	rjmp	.+1314   	; 0x4834 <__prologue_saves__+0x1c>
    4312:	0d 89       	ldd	r16, Y+21	; 0x15
    4314:	1e 89       	ldd	r17, Y+22	; 0x16
    4316:	86 e0       	ldi	r24, 0x06	; 6
    4318:	8c 83       	std	Y+4, r24	; 0x04
    431a:	09 83       	std	Y+1, r16	; 0x01
    431c:	1a 83       	std	Y+2, r17	; 0x02
    431e:	8f ef       	ldi	r24, 0xFF	; 255
    4320:	9f e7       	ldi	r25, 0x7F	; 127
    4322:	8d 83       	std	Y+5, r24	; 0x05
    4324:	9e 83       	std	Y+6, r25	; 0x06
    4326:	ae 01       	movw	r20, r28
    4328:	47 5e       	subi	r20, 0xE7	; 231
    432a:	5f 4f       	sbci	r21, 0xFF	; 255
    432c:	6f 89       	ldd	r22, Y+23	; 0x17
    432e:	78 8d       	ldd	r23, Y+24	; 0x18
    4330:	ce 01       	movw	r24, r28
    4332:	01 96       	adiw	r24, 0x01	; 1
    4334:	08 d0       	rcall	.+16     	; 0x4346 <vfprintf>
    4336:	ef 81       	ldd	r30, Y+7	; 0x07
    4338:	f8 85       	ldd	r31, Y+8	; 0x08
    433a:	e0 0f       	add	r30, r16
    433c:	f1 1f       	adc	r31, r17
    433e:	10 82       	st	Z, r1
    4340:	2e 96       	adiw	r28, 0x0e	; 14
    4342:	e4 e0       	ldi	r30, 0x04	; 4
    4344:	90 c2       	rjmp	.+1312   	; 0x4866 <__epilogue_restores__+0x1c>

00004346 <vfprintf>:
    4346:	ac e0       	ldi	r26, 0x0C	; 12
    4348:	b0 e0       	ldi	r27, 0x00	; 0
    434a:	e8 ea       	ldi	r30, 0xA8	; 168
    434c:	f1 e2       	ldi	r31, 0x21	; 33
    434e:	64 c2       	rjmp	.+1224   	; 0x4818 <__prologue_saves__>
    4350:	7c 01       	movw	r14, r24
    4352:	6b 01       	movw	r12, r22
    4354:	8a 01       	movw	r16, r20
    4356:	fc 01       	movw	r30, r24
    4358:	16 82       	std	Z+6, r1	; 0x06
    435a:	17 82       	std	Z+7, r1	; 0x07
    435c:	83 81       	ldd	r24, Z+3	; 0x03
    435e:	81 ff       	sbrs	r24, 1
    4360:	b0 c1       	rjmp	.+864    	; 0x46c2 <vfprintf+0x37c>
    4362:	ce 01       	movw	r24, r28
    4364:	01 96       	adiw	r24, 0x01	; 1
    4366:	4c 01       	movw	r8, r24
    4368:	f7 01       	movw	r30, r14
    436a:	93 81       	ldd	r25, Z+3	; 0x03
    436c:	f6 01       	movw	r30, r12
    436e:	93 fd       	sbrc	r25, 3
    4370:	85 91       	lpm	r24, Z+
    4372:	93 ff       	sbrs	r25, 3
    4374:	81 91       	ld	r24, Z+
    4376:	6f 01       	movw	r12, r30
    4378:	88 23       	and	r24, r24
    437a:	09 f4       	brne	.+2      	; 0x437e <vfprintf+0x38>
    437c:	9e c1       	rjmp	.+828    	; 0x46ba <vfprintf+0x374>
    437e:	85 32       	cpi	r24, 0x25	; 37
    4380:	39 f4       	brne	.+14     	; 0x4390 <vfprintf+0x4a>
    4382:	93 fd       	sbrc	r25, 3
    4384:	85 91       	lpm	r24, Z+
    4386:	93 ff       	sbrs	r25, 3
    4388:	81 91       	ld	r24, Z+
    438a:	6f 01       	movw	r12, r30
    438c:	85 32       	cpi	r24, 0x25	; 37
    438e:	21 f4       	brne	.+8      	; 0x4398 <vfprintf+0x52>
    4390:	b7 01       	movw	r22, r14
    4392:	90 e0       	ldi	r25, 0x00	; 0
    4394:	b1 d1       	rcall	.+866    	; 0x46f8 <fputc>
    4396:	e8 cf       	rjmp	.-48     	; 0x4368 <vfprintf+0x22>
    4398:	51 2c       	mov	r5, r1
    439a:	31 2c       	mov	r3, r1
    439c:	20 e0       	ldi	r18, 0x00	; 0
    439e:	20 32       	cpi	r18, 0x20	; 32
    43a0:	a0 f4       	brcc	.+40     	; 0x43ca <vfprintf+0x84>
    43a2:	8b 32       	cpi	r24, 0x2B	; 43
    43a4:	69 f0       	breq	.+26     	; 0x43c0 <vfprintf+0x7a>
    43a6:	30 f4       	brcc	.+12     	; 0x43b4 <vfprintf+0x6e>
    43a8:	80 32       	cpi	r24, 0x20	; 32
    43aa:	59 f0       	breq	.+22     	; 0x43c2 <vfprintf+0x7c>
    43ac:	83 32       	cpi	r24, 0x23	; 35
    43ae:	69 f4       	brne	.+26     	; 0x43ca <vfprintf+0x84>
    43b0:	20 61       	ori	r18, 0x10	; 16
    43b2:	2c c0       	rjmp	.+88     	; 0x440c <vfprintf+0xc6>
    43b4:	8d 32       	cpi	r24, 0x2D	; 45
    43b6:	39 f0       	breq	.+14     	; 0x43c6 <vfprintf+0x80>
    43b8:	80 33       	cpi	r24, 0x30	; 48
    43ba:	39 f4       	brne	.+14     	; 0x43ca <vfprintf+0x84>
    43bc:	21 60       	ori	r18, 0x01	; 1
    43be:	26 c0       	rjmp	.+76     	; 0x440c <vfprintf+0xc6>
    43c0:	22 60       	ori	r18, 0x02	; 2
    43c2:	24 60       	ori	r18, 0x04	; 4
    43c4:	23 c0       	rjmp	.+70     	; 0x440c <vfprintf+0xc6>
    43c6:	28 60       	ori	r18, 0x08	; 8
    43c8:	21 c0       	rjmp	.+66     	; 0x440c <vfprintf+0xc6>
    43ca:	27 fd       	sbrc	r18, 7
    43cc:	27 c0       	rjmp	.+78     	; 0x441c <vfprintf+0xd6>
    43ce:	30 ed       	ldi	r19, 0xD0	; 208
    43d0:	38 0f       	add	r19, r24
    43d2:	3a 30       	cpi	r19, 0x0A	; 10
    43d4:	78 f4       	brcc	.+30     	; 0x43f4 <vfprintf+0xae>
    43d6:	26 ff       	sbrs	r18, 6
    43d8:	06 c0       	rjmp	.+12     	; 0x43e6 <vfprintf+0xa0>
    43da:	fa e0       	ldi	r31, 0x0A	; 10
    43dc:	5f 9e       	mul	r5, r31
    43de:	30 0d       	add	r19, r0
    43e0:	11 24       	eor	r1, r1
    43e2:	53 2e       	mov	r5, r19
    43e4:	13 c0       	rjmp	.+38     	; 0x440c <vfprintf+0xc6>
    43e6:	8a e0       	ldi	r24, 0x0A	; 10
    43e8:	38 9e       	mul	r3, r24
    43ea:	30 0d       	add	r19, r0
    43ec:	11 24       	eor	r1, r1
    43ee:	33 2e       	mov	r3, r19
    43f0:	20 62       	ori	r18, 0x20	; 32
    43f2:	0c c0       	rjmp	.+24     	; 0x440c <vfprintf+0xc6>
    43f4:	8e 32       	cpi	r24, 0x2E	; 46
    43f6:	21 f4       	brne	.+8      	; 0x4400 <vfprintf+0xba>
    43f8:	26 fd       	sbrc	r18, 6
    43fa:	5f c1       	rjmp	.+702    	; 0x46ba <vfprintf+0x374>
    43fc:	20 64       	ori	r18, 0x40	; 64
    43fe:	06 c0       	rjmp	.+12     	; 0x440c <vfprintf+0xc6>
    4400:	8c 36       	cpi	r24, 0x6C	; 108
    4402:	11 f4       	brne	.+4      	; 0x4408 <vfprintf+0xc2>
    4404:	20 68       	ori	r18, 0x80	; 128
    4406:	02 c0       	rjmp	.+4      	; 0x440c <vfprintf+0xc6>
    4408:	88 36       	cpi	r24, 0x68	; 104
    440a:	41 f4       	brne	.+16     	; 0x441c <vfprintf+0xd6>
    440c:	f6 01       	movw	r30, r12
    440e:	93 fd       	sbrc	r25, 3
    4410:	85 91       	lpm	r24, Z+
    4412:	93 ff       	sbrs	r25, 3
    4414:	81 91       	ld	r24, Z+
    4416:	6f 01       	movw	r12, r30
    4418:	81 11       	cpse	r24, r1
    441a:	c1 cf       	rjmp	.-126    	; 0x439e <vfprintf+0x58>
    441c:	98 2f       	mov	r25, r24
    441e:	9f 7d       	andi	r25, 0xDF	; 223
    4420:	95 54       	subi	r25, 0x45	; 69
    4422:	93 30       	cpi	r25, 0x03	; 3
    4424:	28 f4       	brcc	.+10     	; 0x4430 <vfprintf+0xea>
    4426:	0c 5f       	subi	r16, 0xFC	; 252
    4428:	1f 4f       	sbci	r17, 0xFF	; 255
    442a:	ff e3       	ldi	r31, 0x3F	; 63
    442c:	f9 83       	std	Y+1, r31	; 0x01
    442e:	0d c0       	rjmp	.+26     	; 0x444a <vfprintf+0x104>
    4430:	83 36       	cpi	r24, 0x63	; 99
    4432:	31 f0       	breq	.+12     	; 0x4440 <vfprintf+0xfa>
    4434:	83 37       	cpi	r24, 0x73	; 115
    4436:	71 f0       	breq	.+28     	; 0x4454 <vfprintf+0x10e>
    4438:	83 35       	cpi	r24, 0x53	; 83
    443a:	09 f0       	breq	.+2      	; 0x443e <vfprintf+0xf8>
    443c:	57 c0       	rjmp	.+174    	; 0x44ec <vfprintf+0x1a6>
    443e:	21 c0       	rjmp	.+66     	; 0x4482 <vfprintf+0x13c>
    4440:	f8 01       	movw	r30, r16
    4442:	80 81       	ld	r24, Z
    4444:	89 83       	std	Y+1, r24	; 0x01
    4446:	0e 5f       	subi	r16, 0xFE	; 254
    4448:	1f 4f       	sbci	r17, 0xFF	; 255
    444a:	44 24       	eor	r4, r4
    444c:	43 94       	inc	r4
    444e:	51 2c       	mov	r5, r1
    4450:	54 01       	movw	r10, r8
    4452:	14 c0       	rjmp	.+40     	; 0x447c <vfprintf+0x136>
    4454:	38 01       	movw	r6, r16
    4456:	f2 e0       	ldi	r31, 0x02	; 2
    4458:	6f 0e       	add	r6, r31
    445a:	71 1c       	adc	r7, r1
    445c:	f8 01       	movw	r30, r16
    445e:	a0 80       	ld	r10, Z
    4460:	b1 80       	ldd	r11, Z+1	; 0x01
    4462:	26 ff       	sbrs	r18, 6
    4464:	03 c0       	rjmp	.+6      	; 0x446c <vfprintf+0x126>
    4466:	65 2d       	mov	r22, r5
    4468:	70 e0       	ldi	r23, 0x00	; 0
    446a:	02 c0       	rjmp	.+4      	; 0x4470 <vfprintf+0x12a>
    446c:	6f ef       	ldi	r22, 0xFF	; 255
    446e:	7f ef       	ldi	r23, 0xFF	; 255
    4470:	c5 01       	movw	r24, r10
    4472:	2c 87       	std	Y+12, r18	; 0x0c
    4474:	36 d1       	rcall	.+620    	; 0x46e2 <strnlen>
    4476:	2c 01       	movw	r4, r24
    4478:	83 01       	movw	r16, r6
    447a:	2c 85       	ldd	r18, Y+12	; 0x0c
    447c:	2f 77       	andi	r18, 0x7F	; 127
    447e:	22 2e       	mov	r2, r18
    4480:	16 c0       	rjmp	.+44     	; 0x44ae <vfprintf+0x168>
    4482:	38 01       	movw	r6, r16
    4484:	f2 e0       	ldi	r31, 0x02	; 2
    4486:	6f 0e       	add	r6, r31
    4488:	71 1c       	adc	r7, r1
    448a:	f8 01       	movw	r30, r16
    448c:	a0 80       	ld	r10, Z
    448e:	b1 80       	ldd	r11, Z+1	; 0x01
    4490:	26 ff       	sbrs	r18, 6
    4492:	03 c0       	rjmp	.+6      	; 0x449a <vfprintf+0x154>
    4494:	65 2d       	mov	r22, r5
    4496:	70 e0       	ldi	r23, 0x00	; 0
    4498:	02 c0       	rjmp	.+4      	; 0x449e <vfprintf+0x158>
    449a:	6f ef       	ldi	r22, 0xFF	; 255
    449c:	7f ef       	ldi	r23, 0xFF	; 255
    449e:	c5 01       	movw	r24, r10
    44a0:	2c 87       	std	Y+12, r18	; 0x0c
    44a2:	14 d1       	rcall	.+552    	; 0x46cc <strnlen_P>
    44a4:	2c 01       	movw	r4, r24
    44a6:	2c 85       	ldd	r18, Y+12	; 0x0c
    44a8:	20 68       	ori	r18, 0x80	; 128
    44aa:	22 2e       	mov	r2, r18
    44ac:	83 01       	movw	r16, r6
    44ae:	23 fc       	sbrc	r2, 3
    44b0:	19 c0       	rjmp	.+50     	; 0x44e4 <vfprintf+0x19e>
    44b2:	83 2d       	mov	r24, r3
    44b4:	90 e0       	ldi	r25, 0x00	; 0
    44b6:	48 16       	cp	r4, r24
    44b8:	59 06       	cpc	r5, r25
    44ba:	a0 f4       	brcc	.+40     	; 0x44e4 <vfprintf+0x19e>
    44bc:	b7 01       	movw	r22, r14
    44be:	80 e2       	ldi	r24, 0x20	; 32
    44c0:	90 e0       	ldi	r25, 0x00	; 0
    44c2:	1a d1       	rcall	.+564    	; 0x46f8 <fputc>
    44c4:	3a 94       	dec	r3
    44c6:	f5 cf       	rjmp	.-22     	; 0x44b2 <vfprintf+0x16c>
    44c8:	f5 01       	movw	r30, r10
    44ca:	27 fc       	sbrc	r2, 7
    44cc:	85 91       	lpm	r24, Z+
    44ce:	27 fe       	sbrs	r2, 7
    44d0:	81 91       	ld	r24, Z+
    44d2:	5f 01       	movw	r10, r30
    44d4:	b7 01       	movw	r22, r14
    44d6:	90 e0       	ldi	r25, 0x00	; 0
    44d8:	0f d1       	rcall	.+542    	; 0x46f8 <fputc>
    44da:	31 10       	cpse	r3, r1
    44dc:	3a 94       	dec	r3
    44de:	f1 e0       	ldi	r31, 0x01	; 1
    44e0:	4f 1a       	sub	r4, r31
    44e2:	51 08       	sbc	r5, r1
    44e4:	41 14       	cp	r4, r1
    44e6:	51 04       	cpc	r5, r1
    44e8:	79 f7       	brne	.-34     	; 0x44c8 <vfprintf+0x182>
    44ea:	de c0       	rjmp	.+444    	; 0x46a8 <vfprintf+0x362>
    44ec:	84 36       	cpi	r24, 0x64	; 100
    44ee:	11 f0       	breq	.+4      	; 0x44f4 <vfprintf+0x1ae>
    44f0:	89 36       	cpi	r24, 0x69	; 105
    44f2:	31 f5       	brne	.+76     	; 0x4540 <vfprintf+0x1fa>
    44f4:	f8 01       	movw	r30, r16
    44f6:	27 ff       	sbrs	r18, 7
    44f8:	07 c0       	rjmp	.+14     	; 0x4508 <vfprintf+0x1c2>
    44fa:	60 81       	ld	r22, Z
    44fc:	71 81       	ldd	r23, Z+1	; 0x01
    44fe:	82 81       	ldd	r24, Z+2	; 0x02
    4500:	93 81       	ldd	r25, Z+3	; 0x03
    4502:	0c 5f       	subi	r16, 0xFC	; 252
    4504:	1f 4f       	sbci	r17, 0xFF	; 255
    4506:	08 c0       	rjmp	.+16     	; 0x4518 <vfprintf+0x1d2>
    4508:	60 81       	ld	r22, Z
    450a:	71 81       	ldd	r23, Z+1	; 0x01
    450c:	88 27       	eor	r24, r24
    450e:	77 fd       	sbrc	r23, 7
    4510:	80 95       	com	r24
    4512:	98 2f       	mov	r25, r24
    4514:	0e 5f       	subi	r16, 0xFE	; 254
    4516:	1f 4f       	sbci	r17, 0xFF	; 255
    4518:	2f 76       	andi	r18, 0x6F	; 111
    451a:	b2 2e       	mov	r11, r18
    451c:	97 ff       	sbrs	r25, 7
    451e:	09 c0       	rjmp	.+18     	; 0x4532 <vfprintf+0x1ec>
    4520:	90 95       	com	r25
    4522:	80 95       	com	r24
    4524:	70 95       	com	r23
    4526:	61 95       	neg	r22
    4528:	7f 4f       	sbci	r23, 0xFF	; 255
    452a:	8f 4f       	sbci	r24, 0xFF	; 255
    452c:	9f 4f       	sbci	r25, 0xFF	; 255
    452e:	20 68       	ori	r18, 0x80	; 128
    4530:	b2 2e       	mov	r11, r18
    4532:	2a e0       	ldi	r18, 0x0A	; 10
    4534:	30 e0       	ldi	r19, 0x00	; 0
    4536:	a4 01       	movw	r20, r8
    4538:	11 d1       	rcall	.+546    	; 0x475c <__ultoa_invert>
    453a:	a8 2e       	mov	r10, r24
    453c:	a8 18       	sub	r10, r8
    453e:	43 c0       	rjmp	.+134    	; 0x45c6 <vfprintf+0x280>
    4540:	85 37       	cpi	r24, 0x75	; 117
    4542:	29 f4       	brne	.+10     	; 0x454e <vfprintf+0x208>
    4544:	2f 7e       	andi	r18, 0xEF	; 239
    4546:	b2 2e       	mov	r11, r18
    4548:	2a e0       	ldi	r18, 0x0A	; 10
    454a:	30 e0       	ldi	r19, 0x00	; 0
    454c:	25 c0       	rjmp	.+74     	; 0x4598 <vfprintf+0x252>
    454e:	f2 2f       	mov	r31, r18
    4550:	f9 7f       	andi	r31, 0xF9	; 249
    4552:	bf 2e       	mov	r11, r31
    4554:	8f 36       	cpi	r24, 0x6F	; 111
    4556:	c1 f0       	breq	.+48     	; 0x4588 <vfprintf+0x242>
    4558:	18 f4       	brcc	.+6      	; 0x4560 <vfprintf+0x21a>
    455a:	88 35       	cpi	r24, 0x58	; 88
    455c:	79 f0       	breq	.+30     	; 0x457c <vfprintf+0x236>
    455e:	ad c0       	rjmp	.+346    	; 0x46ba <vfprintf+0x374>
    4560:	80 37       	cpi	r24, 0x70	; 112
    4562:	19 f0       	breq	.+6      	; 0x456a <vfprintf+0x224>
    4564:	88 37       	cpi	r24, 0x78	; 120
    4566:	21 f0       	breq	.+8      	; 0x4570 <vfprintf+0x22a>
    4568:	a8 c0       	rjmp	.+336    	; 0x46ba <vfprintf+0x374>
    456a:	2f 2f       	mov	r18, r31
    456c:	20 61       	ori	r18, 0x10	; 16
    456e:	b2 2e       	mov	r11, r18
    4570:	b4 fe       	sbrs	r11, 4
    4572:	0d c0       	rjmp	.+26     	; 0x458e <vfprintf+0x248>
    4574:	8b 2d       	mov	r24, r11
    4576:	84 60       	ori	r24, 0x04	; 4
    4578:	b8 2e       	mov	r11, r24
    457a:	09 c0       	rjmp	.+18     	; 0x458e <vfprintf+0x248>
    457c:	24 ff       	sbrs	r18, 4
    457e:	0a c0       	rjmp	.+20     	; 0x4594 <vfprintf+0x24e>
    4580:	9f 2f       	mov	r25, r31
    4582:	96 60       	ori	r25, 0x06	; 6
    4584:	b9 2e       	mov	r11, r25
    4586:	06 c0       	rjmp	.+12     	; 0x4594 <vfprintf+0x24e>
    4588:	28 e0       	ldi	r18, 0x08	; 8
    458a:	30 e0       	ldi	r19, 0x00	; 0
    458c:	05 c0       	rjmp	.+10     	; 0x4598 <vfprintf+0x252>
    458e:	20 e1       	ldi	r18, 0x10	; 16
    4590:	30 e0       	ldi	r19, 0x00	; 0
    4592:	02 c0       	rjmp	.+4      	; 0x4598 <vfprintf+0x252>
    4594:	20 e1       	ldi	r18, 0x10	; 16
    4596:	32 e0       	ldi	r19, 0x02	; 2
    4598:	f8 01       	movw	r30, r16
    459a:	b7 fe       	sbrs	r11, 7
    459c:	07 c0       	rjmp	.+14     	; 0x45ac <vfprintf+0x266>
    459e:	60 81       	ld	r22, Z
    45a0:	71 81       	ldd	r23, Z+1	; 0x01
    45a2:	82 81       	ldd	r24, Z+2	; 0x02
    45a4:	93 81       	ldd	r25, Z+3	; 0x03
    45a6:	0c 5f       	subi	r16, 0xFC	; 252
    45a8:	1f 4f       	sbci	r17, 0xFF	; 255
    45aa:	06 c0       	rjmp	.+12     	; 0x45b8 <vfprintf+0x272>
    45ac:	60 81       	ld	r22, Z
    45ae:	71 81       	ldd	r23, Z+1	; 0x01
    45b0:	80 e0       	ldi	r24, 0x00	; 0
    45b2:	90 e0       	ldi	r25, 0x00	; 0
    45b4:	0e 5f       	subi	r16, 0xFE	; 254
    45b6:	1f 4f       	sbci	r17, 0xFF	; 255
    45b8:	a4 01       	movw	r20, r8
    45ba:	d0 d0       	rcall	.+416    	; 0x475c <__ultoa_invert>
    45bc:	a8 2e       	mov	r10, r24
    45be:	a8 18       	sub	r10, r8
    45c0:	fb 2d       	mov	r31, r11
    45c2:	ff 77       	andi	r31, 0x7F	; 127
    45c4:	bf 2e       	mov	r11, r31
    45c6:	b6 fe       	sbrs	r11, 6
    45c8:	0b c0       	rjmp	.+22     	; 0x45e0 <vfprintf+0x29a>
    45ca:	2b 2d       	mov	r18, r11
    45cc:	2e 7f       	andi	r18, 0xFE	; 254
    45ce:	a5 14       	cp	r10, r5
    45d0:	50 f4       	brcc	.+20     	; 0x45e6 <vfprintf+0x2a0>
    45d2:	b4 fe       	sbrs	r11, 4
    45d4:	0a c0       	rjmp	.+20     	; 0x45ea <vfprintf+0x2a4>
    45d6:	b2 fc       	sbrc	r11, 2
    45d8:	08 c0       	rjmp	.+16     	; 0x45ea <vfprintf+0x2a4>
    45da:	2b 2d       	mov	r18, r11
    45dc:	2e 7e       	andi	r18, 0xEE	; 238
    45de:	05 c0       	rjmp	.+10     	; 0x45ea <vfprintf+0x2a4>
    45e0:	7a 2c       	mov	r7, r10
    45e2:	2b 2d       	mov	r18, r11
    45e4:	03 c0       	rjmp	.+6      	; 0x45ec <vfprintf+0x2a6>
    45e6:	7a 2c       	mov	r7, r10
    45e8:	01 c0       	rjmp	.+2      	; 0x45ec <vfprintf+0x2a6>
    45ea:	75 2c       	mov	r7, r5
    45ec:	24 ff       	sbrs	r18, 4
    45ee:	0d c0       	rjmp	.+26     	; 0x460a <vfprintf+0x2c4>
    45f0:	fe 01       	movw	r30, r28
    45f2:	ea 0d       	add	r30, r10
    45f4:	f1 1d       	adc	r31, r1
    45f6:	80 81       	ld	r24, Z
    45f8:	80 33       	cpi	r24, 0x30	; 48
    45fa:	11 f4       	brne	.+4      	; 0x4600 <vfprintf+0x2ba>
    45fc:	29 7e       	andi	r18, 0xE9	; 233
    45fe:	09 c0       	rjmp	.+18     	; 0x4612 <vfprintf+0x2cc>
    4600:	22 ff       	sbrs	r18, 2
    4602:	06 c0       	rjmp	.+12     	; 0x4610 <vfprintf+0x2ca>
    4604:	73 94       	inc	r7
    4606:	73 94       	inc	r7
    4608:	04 c0       	rjmp	.+8      	; 0x4612 <vfprintf+0x2cc>
    460a:	82 2f       	mov	r24, r18
    460c:	86 78       	andi	r24, 0x86	; 134
    460e:	09 f0       	breq	.+2      	; 0x4612 <vfprintf+0x2cc>
    4610:	73 94       	inc	r7
    4612:	23 fd       	sbrc	r18, 3
    4614:	12 c0       	rjmp	.+36     	; 0x463a <vfprintf+0x2f4>
    4616:	20 ff       	sbrs	r18, 0
    4618:	06 c0       	rjmp	.+12     	; 0x4626 <vfprintf+0x2e0>
    461a:	5a 2c       	mov	r5, r10
    461c:	73 14       	cp	r7, r3
    461e:	18 f4       	brcc	.+6      	; 0x4626 <vfprintf+0x2e0>
    4620:	53 0c       	add	r5, r3
    4622:	57 18       	sub	r5, r7
    4624:	73 2c       	mov	r7, r3
    4626:	73 14       	cp	r7, r3
    4628:	60 f4       	brcc	.+24     	; 0x4642 <vfprintf+0x2fc>
    462a:	b7 01       	movw	r22, r14
    462c:	80 e2       	ldi	r24, 0x20	; 32
    462e:	90 e0       	ldi	r25, 0x00	; 0
    4630:	2c 87       	std	Y+12, r18	; 0x0c
    4632:	62 d0       	rcall	.+196    	; 0x46f8 <fputc>
    4634:	73 94       	inc	r7
    4636:	2c 85       	ldd	r18, Y+12	; 0x0c
    4638:	f6 cf       	rjmp	.-20     	; 0x4626 <vfprintf+0x2e0>
    463a:	73 14       	cp	r7, r3
    463c:	10 f4       	brcc	.+4      	; 0x4642 <vfprintf+0x2fc>
    463e:	37 18       	sub	r3, r7
    4640:	01 c0       	rjmp	.+2      	; 0x4644 <vfprintf+0x2fe>
    4642:	31 2c       	mov	r3, r1
    4644:	24 ff       	sbrs	r18, 4
    4646:	11 c0       	rjmp	.+34     	; 0x466a <vfprintf+0x324>
    4648:	b7 01       	movw	r22, r14
    464a:	80 e3       	ldi	r24, 0x30	; 48
    464c:	90 e0       	ldi	r25, 0x00	; 0
    464e:	2c 87       	std	Y+12, r18	; 0x0c
    4650:	53 d0       	rcall	.+166    	; 0x46f8 <fputc>
    4652:	2c 85       	ldd	r18, Y+12	; 0x0c
    4654:	22 ff       	sbrs	r18, 2
    4656:	16 c0       	rjmp	.+44     	; 0x4684 <vfprintf+0x33e>
    4658:	21 ff       	sbrs	r18, 1
    465a:	03 c0       	rjmp	.+6      	; 0x4662 <vfprintf+0x31c>
    465c:	88 e5       	ldi	r24, 0x58	; 88
    465e:	90 e0       	ldi	r25, 0x00	; 0
    4660:	02 c0       	rjmp	.+4      	; 0x4666 <vfprintf+0x320>
    4662:	88 e7       	ldi	r24, 0x78	; 120
    4664:	90 e0       	ldi	r25, 0x00	; 0
    4666:	b7 01       	movw	r22, r14
    4668:	0c c0       	rjmp	.+24     	; 0x4682 <vfprintf+0x33c>
    466a:	82 2f       	mov	r24, r18
    466c:	86 78       	andi	r24, 0x86	; 134
    466e:	51 f0       	breq	.+20     	; 0x4684 <vfprintf+0x33e>
    4670:	21 fd       	sbrc	r18, 1
    4672:	02 c0       	rjmp	.+4      	; 0x4678 <vfprintf+0x332>
    4674:	80 e2       	ldi	r24, 0x20	; 32
    4676:	01 c0       	rjmp	.+2      	; 0x467a <vfprintf+0x334>
    4678:	8b e2       	ldi	r24, 0x2B	; 43
    467a:	27 fd       	sbrc	r18, 7
    467c:	8d e2       	ldi	r24, 0x2D	; 45
    467e:	b7 01       	movw	r22, r14
    4680:	90 e0       	ldi	r25, 0x00	; 0
    4682:	3a d0       	rcall	.+116    	; 0x46f8 <fputc>
    4684:	a5 14       	cp	r10, r5
    4686:	30 f4       	brcc	.+12     	; 0x4694 <vfprintf+0x34e>
    4688:	b7 01       	movw	r22, r14
    468a:	80 e3       	ldi	r24, 0x30	; 48
    468c:	90 e0       	ldi	r25, 0x00	; 0
    468e:	34 d0       	rcall	.+104    	; 0x46f8 <fputc>
    4690:	5a 94       	dec	r5
    4692:	f8 cf       	rjmp	.-16     	; 0x4684 <vfprintf+0x33e>
    4694:	aa 94       	dec	r10
    4696:	f4 01       	movw	r30, r8
    4698:	ea 0d       	add	r30, r10
    469a:	f1 1d       	adc	r31, r1
    469c:	80 81       	ld	r24, Z
    469e:	b7 01       	movw	r22, r14
    46a0:	90 e0       	ldi	r25, 0x00	; 0
    46a2:	2a d0       	rcall	.+84     	; 0x46f8 <fputc>
    46a4:	a1 10       	cpse	r10, r1
    46a6:	f6 cf       	rjmp	.-20     	; 0x4694 <vfprintf+0x34e>
    46a8:	33 20       	and	r3, r3
    46aa:	09 f4       	brne	.+2      	; 0x46ae <vfprintf+0x368>
    46ac:	5d ce       	rjmp	.-838    	; 0x4368 <vfprintf+0x22>
    46ae:	b7 01       	movw	r22, r14
    46b0:	80 e2       	ldi	r24, 0x20	; 32
    46b2:	90 e0       	ldi	r25, 0x00	; 0
    46b4:	21 d0       	rcall	.+66     	; 0x46f8 <fputc>
    46b6:	3a 94       	dec	r3
    46b8:	f7 cf       	rjmp	.-18     	; 0x46a8 <vfprintf+0x362>
    46ba:	f7 01       	movw	r30, r14
    46bc:	86 81       	ldd	r24, Z+6	; 0x06
    46be:	97 81       	ldd	r25, Z+7	; 0x07
    46c0:	02 c0       	rjmp	.+4      	; 0x46c6 <vfprintf+0x380>
    46c2:	8f ef       	ldi	r24, 0xFF	; 255
    46c4:	9f ef       	ldi	r25, 0xFF	; 255
    46c6:	2c 96       	adiw	r28, 0x0c	; 12
    46c8:	e2 e1       	ldi	r30, 0x12	; 18
    46ca:	bf c0       	rjmp	.+382    	; 0x484a <__epilogue_restores__>

000046cc <strnlen_P>:
    46cc:	fc 01       	movw	r30, r24
    46ce:	05 90       	lpm	r0, Z+
    46d0:	61 50       	subi	r22, 0x01	; 1
    46d2:	70 40       	sbci	r23, 0x00	; 0
    46d4:	01 10       	cpse	r0, r1
    46d6:	d8 f7       	brcc	.-10     	; 0x46ce <strnlen_P+0x2>
    46d8:	80 95       	com	r24
    46da:	90 95       	com	r25
    46dc:	8e 0f       	add	r24, r30
    46de:	9f 1f       	adc	r25, r31
    46e0:	08 95       	ret

000046e2 <strnlen>:
    46e2:	fc 01       	movw	r30, r24
    46e4:	61 50       	subi	r22, 0x01	; 1
    46e6:	70 40       	sbci	r23, 0x00	; 0
    46e8:	01 90       	ld	r0, Z+
    46ea:	01 10       	cpse	r0, r1
    46ec:	d8 f7       	brcc	.-10     	; 0x46e4 <strnlen+0x2>
    46ee:	80 95       	com	r24
    46f0:	90 95       	com	r25
    46f2:	8e 0f       	add	r24, r30
    46f4:	9f 1f       	adc	r25, r31
    46f6:	08 95       	ret

000046f8 <fputc>:
    46f8:	0f 93       	push	r16
    46fa:	1f 93       	push	r17
    46fc:	cf 93       	push	r28
    46fe:	df 93       	push	r29
    4700:	18 2f       	mov	r17, r24
    4702:	09 2f       	mov	r16, r25
    4704:	eb 01       	movw	r28, r22
    4706:	8b 81       	ldd	r24, Y+3	; 0x03
    4708:	81 fd       	sbrc	r24, 1
    470a:	03 c0       	rjmp	.+6      	; 0x4712 <fputc+0x1a>
    470c:	8f ef       	ldi	r24, 0xFF	; 255
    470e:	9f ef       	ldi	r25, 0xFF	; 255
    4710:	20 c0       	rjmp	.+64     	; 0x4752 <fputc+0x5a>
    4712:	82 ff       	sbrs	r24, 2
    4714:	10 c0       	rjmp	.+32     	; 0x4736 <fputc+0x3e>
    4716:	4e 81       	ldd	r20, Y+6	; 0x06
    4718:	5f 81       	ldd	r21, Y+7	; 0x07
    471a:	2c 81       	ldd	r18, Y+4	; 0x04
    471c:	3d 81       	ldd	r19, Y+5	; 0x05
    471e:	42 17       	cp	r20, r18
    4720:	53 07       	cpc	r21, r19
    4722:	7c f4       	brge	.+30     	; 0x4742 <fputc+0x4a>
    4724:	e8 81       	ld	r30, Y
    4726:	f9 81       	ldd	r31, Y+1	; 0x01
    4728:	9f 01       	movw	r18, r30
    472a:	2f 5f       	subi	r18, 0xFF	; 255
    472c:	3f 4f       	sbci	r19, 0xFF	; 255
    472e:	28 83       	st	Y, r18
    4730:	39 83       	std	Y+1, r19	; 0x01
    4732:	10 83       	st	Z, r17
    4734:	06 c0       	rjmp	.+12     	; 0x4742 <fputc+0x4a>
    4736:	e8 85       	ldd	r30, Y+8	; 0x08
    4738:	f9 85       	ldd	r31, Y+9	; 0x09
    473a:	81 2f       	mov	r24, r17
    473c:	09 95       	icall
    473e:	89 2b       	or	r24, r25
    4740:	29 f7       	brne	.-54     	; 0x470c <fputc+0x14>
    4742:	2e 81       	ldd	r18, Y+6	; 0x06
    4744:	3f 81       	ldd	r19, Y+7	; 0x07
    4746:	2f 5f       	subi	r18, 0xFF	; 255
    4748:	3f 4f       	sbci	r19, 0xFF	; 255
    474a:	2e 83       	std	Y+6, r18	; 0x06
    474c:	3f 83       	std	Y+7, r19	; 0x07
    474e:	81 2f       	mov	r24, r17
    4750:	90 2f       	mov	r25, r16
    4752:	df 91       	pop	r29
    4754:	cf 91       	pop	r28
    4756:	1f 91       	pop	r17
    4758:	0f 91       	pop	r16
    475a:	08 95       	ret

0000475c <__ultoa_invert>:
    475c:	fa 01       	movw	r30, r20
    475e:	aa 27       	eor	r26, r26
    4760:	28 30       	cpi	r18, 0x08	; 8
    4762:	51 f1       	breq	.+84     	; 0x47b8 <__ultoa_invert+0x5c>
    4764:	20 31       	cpi	r18, 0x10	; 16
    4766:	81 f1       	breq	.+96     	; 0x47c8 <__ultoa_invert+0x6c>
    4768:	e8 94       	clt
    476a:	6f 93       	push	r22
    476c:	6e 7f       	andi	r22, 0xFE	; 254
    476e:	6e 5f       	subi	r22, 0xFE	; 254
    4770:	7f 4f       	sbci	r23, 0xFF	; 255
    4772:	8f 4f       	sbci	r24, 0xFF	; 255
    4774:	9f 4f       	sbci	r25, 0xFF	; 255
    4776:	af 4f       	sbci	r26, 0xFF	; 255
    4778:	b1 e0       	ldi	r27, 0x01	; 1
    477a:	3e d0       	rcall	.+124    	; 0x47f8 <__ultoa_invert+0x9c>
    477c:	b4 e0       	ldi	r27, 0x04	; 4
    477e:	3c d0       	rcall	.+120    	; 0x47f8 <__ultoa_invert+0x9c>
    4780:	67 0f       	add	r22, r23
    4782:	78 1f       	adc	r23, r24
    4784:	89 1f       	adc	r24, r25
    4786:	9a 1f       	adc	r25, r26
    4788:	a1 1d       	adc	r26, r1
    478a:	68 0f       	add	r22, r24
    478c:	79 1f       	adc	r23, r25
    478e:	8a 1f       	adc	r24, r26
    4790:	91 1d       	adc	r25, r1
    4792:	a1 1d       	adc	r26, r1
    4794:	6a 0f       	add	r22, r26
    4796:	71 1d       	adc	r23, r1
    4798:	81 1d       	adc	r24, r1
    479a:	91 1d       	adc	r25, r1
    479c:	a1 1d       	adc	r26, r1
    479e:	20 d0       	rcall	.+64     	; 0x47e0 <__ultoa_invert+0x84>
    47a0:	09 f4       	brne	.+2      	; 0x47a4 <__ultoa_invert+0x48>
    47a2:	68 94       	set
    47a4:	3f 91       	pop	r19
    47a6:	2a e0       	ldi	r18, 0x0A	; 10
    47a8:	26 9f       	mul	r18, r22
    47aa:	11 24       	eor	r1, r1
    47ac:	30 19       	sub	r19, r0
    47ae:	30 5d       	subi	r19, 0xD0	; 208
    47b0:	31 93       	st	Z+, r19
    47b2:	de f6       	brtc	.-74     	; 0x476a <__ultoa_invert+0xe>
    47b4:	cf 01       	movw	r24, r30
    47b6:	08 95       	ret
    47b8:	46 2f       	mov	r20, r22
    47ba:	47 70       	andi	r20, 0x07	; 7
    47bc:	40 5d       	subi	r20, 0xD0	; 208
    47be:	41 93       	st	Z+, r20
    47c0:	b3 e0       	ldi	r27, 0x03	; 3
    47c2:	0f d0       	rcall	.+30     	; 0x47e2 <__ultoa_invert+0x86>
    47c4:	c9 f7       	brne	.-14     	; 0x47b8 <__ultoa_invert+0x5c>
    47c6:	f6 cf       	rjmp	.-20     	; 0x47b4 <__ultoa_invert+0x58>
    47c8:	46 2f       	mov	r20, r22
    47ca:	4f 70       	andi	r20, 0x0F	; 15
    47cc:	40 5d       	subi	r20, 0xD0	; 208
    47ce:	4a 33       	cpi	r20, 0x3A	; 58
    47d0:	18 f0       	brcs	.+6      	; 0x47d8 <__ultoa_invert+0x7c>
    47d2:	49 5d       	subi	r20, 0xD9	; 217
    47d4:	31 fd       	sbrc	r19, 1
    47d6:	40 52       	subi	r20, 0x20	; 32
    47d8:	41 93       	st	Z+, r20
    47da:	02 d0       	rcall	.+4      	; 0x47e0 <__ultoa_invert+0x84>
    47dc:	a9 f7       	brne	.-22     	; 0x47c8 <__ultoa_invert+0x6c>
    47de:	ea cf       	rjmp	.-44     	; 0x47b4 <__ultoa_invert+0x58>
    47e0:	b4 e0       	ldi	r27, 0x04	; 4
    47e2:	a6 95       	lsr	r26
    47e4:	97 95       	ror	r25
    47e6:	87 95       	ror	r24
    47e8:	77 95       	ror	r23
    47ea:	67 95       	ror	r22
    47ec:	ba 95       	dec	r27
    47ee:	c9 f7       	brne	.-14     	; 0x47e2 <__ultoa_invert+0x86>
    47f0:	00 97       	sbiw	r24, 0x00	; 0
    47f2:	61 05       	cpc	r22, r1
    47f4:	71 05       	cpc	r23, r1
    47f6:	08 95       	ret
    47f8:	9b 01       	movw	r18, r22
    47fa:	ac 01       	movw	r20, r24
    47fc:	0a 2e       	mov	r0, r26
    47fe:	06 94       	lsr	r0
    4800:	57 95       	ror	r21
    4802:	47 95       	ror	r20
    4804:	37 95       	ror	r19
    4806:	27 95       	ror	r18
    4808:	ba 95       	dec	r27
    480a:	c9 f7       	brne	.-14     	; 0x47fe <__ultoa_invert+0xa2>
    480c:	62 0f       	add	r22, r18
    480e:	73 1f       	adc	r23, r19
    4810:	84 1f       	adc	r24, r20
    4812:	95 1f       	adc	r25, r21
    4814:	a0 1d       	adc	r26, r0
    4816:	08 95       	ret

00004818 <__prologue_saves__>:
    4818:	2f 92       	push	r2
    481a:	3f 92       	push	r3
    481c:	4f 92       	push	r4
    481e:	5f 92       	push	r5
    4820:	6f 92       	push	r6
    4822:	7f 92       	push	r7
    4824:	8f 92       	push	r8
    4826:	9f 92       	push	r9
    4828:	af 92       	push	r10
    482a:	bf 92       	push	r11
    482c:	cf 92       	push	r12
    482e:	df 92       	push	r13
    4830:	ef 92       	push	r14
    4832:	ff 92       	push	r15
    4834:	0f 93       	push	r16
    4836:	1f 93       	push	r17
    4838:	cf 93       	push	r28
    483a:	df 93       	push	r29
    483c:	cd b7       	in	r28, 0x3d	; 61
    483e:	de b7       	in	r29, 0x3e	; 62
    4840:	ca 1b       	sub	r28, r26
    4842:	db 0b       	sbc	r29, r27
    4844:	cd bf       	out	0x3d, r28	; 61
    4846:	de bf       	out	0x3e, r29	; 62
    4848:	09 94       	ijmp

0000484a <__epilogue_restores__>:
    484a:	2a 88       	ldd	r2, Y+18	; 0x12
    484c:	39 88       	ldd	r3, Y+17	; 0x11
    484e:	48 88       	ldd	r4, Y+16	; 0x10
    4850:	5f 84       	ldd	r5, Y+15	; 0x0f
    4852:	6e 84       	ldd	r6, Y+14	; 0x0e
    4854:	7d 84       	ldd	r7, Y+13	; 0x0d
    4856:	8c 84       	ldd	r8, Y+12	; 0x0c
    4858:	9b 84       	ldd	r9, Y+11	; 0x0b
    485a:	aa 84       	ldd	r10, Y+10	; 0x0a
    485c:	b9 84       	ldd	r11, Y+9	; 0x09
    485e:	c8 84       	ldd	r12, Y+8	; 0x08
    4860:	df 80       	ldd	r13, Y+7	; 0x07
    4862:	ee 80       	ldd	r14, Y+6	; 0x06
    4864:	fd 80       	ldd	r15, Y+5	; 0x05
    4866:	0c 81       	ldd	r16, Y+4	; 0x04
    4868:	1b 81       	ldd	r17, Y+3	; 0x03
    486a:	aa 81       	ldd	r26, Y+2	; 0x02
    486c:	b9 81       	ldd	r27, Y+1	; 0x01
    486e:	ce 0f       	add	r28, r30
    4870:	d1 1d       	adc	r29, r1
    4872:	cd bf       	out	0x3d, r28	; 61
    4874:	de bf       	out	0x3e, r29	; 62
    4876:	ed 01       	movw	r28, r26
    4878:	08 95       	ret

0000487a <_exit>:
    487a:	f8 94       	cli

0000487c <__stop_program>:
    487c:	ff cf       	rjmp	.-2      	; 0x487c <__stop_program>
